ARM GAS  C:\usertemp\ccDXhwvm.s 			page 1


   1              		.cpu cortex-m33
   2              		.arch armv8-m.main
   3              		.fpu fpv4-sp-d16
   4              		.arch_extension dsp
   5              		.eabi_attribute 27, 1
   6              		.eabi_attribute 28, 1
   7              		.eabi_attribute 20, 1
   8              		.eabi_attribute 21, 1
   9              		.eabi_attribute 23, 3
  10              		.eabi_attribute 24, 1
  11              		.eabi_attribute 25, 1
  12              		.eabi_attribute 26, 1
  13              		.eabi_attribute 30, 1
  14              		.eabi_attribute 34, 1
  15              		.eabi_attribute 18, 4
  16              		.file	"falcon_cmd.c"
  17              		.text
  18              	.Ltext0:
  19              		.cfi_sections	.debug_frame
  20              		.file 1 "TINYC256_192/falcon_cmd.c"
  21              		.section	.text.vdcmd_init_by_type,"ax",%progbits
  22              		.align	1
  23              		.global	vdcmd_init_by_type
  24              		.syntax unified
  25              		.thumb
  26              		.thumb_func
  28              	vdcmd_init_by_type:
  29              	.LVL0:
  30              	.LFB160:
   1:TINYC256_192/falcon_cmd.c **** #include "falcon_cmd.h"
   2:TINYC256_192/falcon_cmd.c **** #include <stdio.h>
   3:TINYC256_192/falcon_cmd.c **** #include <stdint.h>
   4:TINYC256_192/falcon_cmd.c **** #include "vdcmd.h"
   5:TINYC256_192/falcon_cmd.c **** #include "main.h"
   6:TINYC256_192/falcon_cmd.c **** 
   7:TINYC256_192/falcon_cmd.c **** #if defined(FALCON_CMD)
   8:TINYC256_192/falcon_cmd.c **** 
   9:TINYC256_192/falcon_cmd.c **** typedef struct
  10:TINYC256_192/falcon_cmd.c **** {
  11:TINYC256_192/falcon_cmd.c ****     uint8_t bySdpcDeadPixEn;       // 盲元功能使能
  12:TINYC256_192/falcon_cmd.c ****     uint8_t bySdpRpEn;             // 新增盲元写入盲元表使能
  13:TINYC256_192/falcon_cmd.c ****     uint8_t bySdpcDeadPixType;     // 盲元类型（勿改）
  14:TINYC256_192/falcon_cmd.c ****     uint8_t bySdpcInterpolationTh; // 盲元替换时的插值阈值
  15:TINYC256_192/falcon_cmd.c ****     uint8_t bySdpcMedianFilterEn;  // 中值滤波使能
  16:TINYC256_192/falcon_cmd.c **** } SdpcParma_t;
  17:TINYC256_192/falcon_cmd.c **** 
  18:TINYC256_192/falcon_cmd.c **** typedef struct
  19:TINYC256_192/falcon_cmd.c **** {
  20:TINYC256_192/falcon_cmd.c ****     uint8_t byBpEn;             // 新增单点盲元检测使能
  21:TINYC256_192/falcon_cmd.c ****     uint8_t byBpOptEn;          // 新增连续盲元检测使能
  22:TINYC256_192/falcon_cmd.c ****     int16_t swBpMaxTshd;        // 新增单点盲元最大值的算法裕度
  23:TINYC256_192/falcon_cmd.c ****     int16_t swBpMinTshd;        // 新增单点盲元最小值的算法裕度
  24:TINYC256_192/falcon_cmd.c ****     int16_t swBpMaxOptTshd;     // 新增连续盲元最大值的算法裕度
  25:TINYC256_192/falcon_cmd.c ****     int16_t swBpMinOptTshd;     // 新增连续盲元最小值的算法裕度
  26:TINYC256_192/falcon_cmd.c ****     int8_t sbyBpRpMaxOffset;    // 新增单点盲元最大值的算法偏移
  27:TINYC256_192/falcon_cmd.c ****     int8_t sbyBpRpMinOffset;    // 新增单点盲元最小值的算法偏移
  28:TINYC256_192/falcon_cmd.c ****     int8_t sbyBpRpMaxOptOffset; // 新增连续盲元最大值的算法偏移
ARM GAS  C:\usertemp\ccDXhwvm.s 			page 2


  29:TINYC256_192/falcon_cmd.c ****     int8_t sbyBpRpMinOptOffset; // 新增连续盲元最小值的算法偏移
  30:TINYC256_192/falcon_cmd.c **** } DdpcParma_t;
  31:TINYC256_192/falcon_cmd.c **** 
  32:TINYC256_192/falcon_cmd.c **** enum isp_param_module
  33:TINYC256_192/falcon_cmd.c **** {
  34:TINYC256_192/falcon_cmd.c ****     CDC = 0,
  35:TINYC256_192/falcon_cmd.c ****     HBC = 1,
  36:TINYC256_192/falcon_cmd.c ****     SDPC = 2,
  37:TINYC256_192/falcon_cmd.c ****     VBC = 3,
  38:TINYC256_192/falcon_cmd.c ****     TNR = 4,
  39:TINYC256_192/falcon_cmd.c ****     DUMMY = 5,
  40:TINYC256_192/falcon_cmd.c ****     RMVCOVER = 6,
  41:TINYC256_192/falcon_cmd.c ****     TPD = 7,
  42:TINYC256_192/falcon_cmd.c ****     SNR_GAUSS = 8,
  43:TINYC256_192/falcon_cmd.c ****     SNR_BP = 9,
  44:TINYC256_192/falcon_cmd.c ****     DDPC = 10,
  45:TINYC256_192/falcon_cmd.c ****     FOCUS = 11,
  46:TINYC256_192/falcon_cmd.c ****     AGC = 12,
  47:TINYC256_192/falcon_cmd.c ****     DDE = 13,
  48:TINYC256_192/falcon_cmd.c ****     GAMMA = 14,
  49:TINYC256_192/falcon_cmd.c ****     MIRROR_AND_FLIP = 15,
  50:TINYC256_192/falcon_cmd.c ****     KBC = 16,
  51:TINYC256_192/falcon_cmd.c ****     OOC = 17
  52:TINYC256_192/falcon_cmd.c **** };
  53:TINYC256_192/falcon_cmd.c **** 
  54:TINYC256_192/falcon_cmd.c **** // register vendor command by selected type
  55:TINYC256_192/falcon_cmd.c **** ir_error_t vdcmd_init_by_type(enum vdcmd_driver_type type)
  56:TINYC256_192/falcon_cmd.c **** {
  31              		.loc 1 56 1 view -0
  32              		.cfi_startproc
  33              		@ args = 0, pretend = 0, frame = 0
  34              		@ frame_needed = 0, uses_anonymous_args = 0
  35              		.loc 1 56 1 is_stmt 0 view .LVU1
  36 0000 08B5     		push	{r3, lr}
  37              	.LCFI0:
  38              		.cfi_def_cfa_offset 8
  39              		.cfi_offset 3, -8
  40              		.cfi_offset 14, -4
  41 0002 0146     		mov	r1, r0
  57:TINYC256_192/falcon_cmd.c ****     ir_error_t rst;
  42              		.loc 1 57 5 is_stmt 1 view .LVU2
  58:TINYC256_192/falcon_cmd.c ****     rst = vdcmd_rw_handle_register(FALCON_PRODUCT, type);
  43              		.loc 1 58 5 view .LVU3
  44              		.loc 1 58 11 is_stmt 0 view .LVU4
  45 0004 0020     		movs	r0, #0
  46              	.LVL1:
  47              		.loc 1 58 11 view .LVU5
  48 0006 FFF7FEFF 		bl	vdcmd_rw_handle_register
  49              	.LVL2:
  59:TINYC256_192/falcon_cmd.c ****     return rst;
  50              		.loc 1 59 5 is_stmt 1 view .LVU6
  60:TINYC256_192/falcon_cmd.c **** }
  51              		.loc 1 60 1 is_stmt 0 view .LVU7
  52 000a 08BD     		pop	{r3, pc}
  53              		.cfi_endproc
  54              	.LFE160:
  56              		.section	.text.restore_default_cfg,"ax",%progbits
ARM GAS  C:\usertemp\ccDXhwvm.s 			page 3


  57              		.align	1
  58              		.global	restore_default_cfg
  59              		.syntax unified
  60              		.thumb
  61              		.thumb_func
  63              	restore_default_cfg:
  64              	.LVL3:
  65              	.LFB161:
  61:TINYC256_192/falcon_cmd.c **** 
  62:TINYC256_192/falcon_cmd.c **** // restore default config
  63:TINYC256_192/falcon_cmd.c **** ir_error_t restore_default_cfg(enum prop_default_cfg default_cfg_type)
  64:TINYC256_192/falcon_cmd.c **** {
  66              		.loc 1 64 1 is_stmt 1 view -0
  67              		.cfi_startproc
  68              		@ args = 0, pretend = 0, frame = 8
  69              		@ frame_needed = 0, uses_anonymous_args = 0
  70              		.loc 1 64 1 is_stmt 0 view .LVU9
  71 0000 00B5     		push	{lr}
  72              	.LCFI1:
  73              		.cfi_def_cfa_offset 4
  74              		.cfi_offset 14, -4
  75 0002 83B0     		sub	sp, sp, #12
  76              	.LCFI2:
  77              		.cfi_def_cfa_offset 16
  65:TINYC256_192/falcon_cmd.c ****     vdcmd_std_header_t ptVdCmdHeader = {0};
  78              		.loc 1 65 5 is_stmt 1 view .LVU10
  79              		.loc 1 65 24 is_stmt 0 view .LVU11
  80 0004 0021     		movs	r1, #0
  81 0006 0091     		str	r1, [sp]
  82 0008 0191     		str	r1, [sp, #4]
  66:TINYC256_192/falcon_cmd.c **** 
  67:TINYC256_192/falcon_cmd.c ****     ptVdCmdHeader.byCmdType = CMDTYPE_STANDARD_TYPE_SPI;
  83              		.loc 1 67 5 is_stmt 1 view .LVU12
  84              		.loc 1 67 29 is_stmt 0 view .LVU13
  85 000a 0123     		movs	r3, #1
  86 000c 8DF80030 		strb	r3, [sp]
  68:TINYC256_192/falcon_cmd.c ****     ptVdCmdHeader.bySubCmd = SUBCMD_SPI_DEFAULT_CFG_RESTORE;
  87              		.loc 1 68 5 is_stmt 1 view .LVU14
  88              		.loc 1 68 28 is_stmt 0 view .LVU15
  89 0010 0E23     		movs	r3, #14
  90 0012 8DF80130 		strb	r3, [sp, #1]
  69:TINYC256_192/falcon_cmd.c ****     ptVdCmdHeader.byPara = default_cfg_type;
  91              		.loc 1 69 5 is_stmt 1 view .LVU16
  92              		.loc 1 69 26 is_stmt 0 view .LVU17
  93 0016 8DF80200 		strb	r0, [sp, #2]
  70:TINYC256_192/falcon_cmd.c **** 
  71:TINYC256_192/falcon_cmd.c ****     return standard_cmd_write(&ptVdCmdHeader, 0, NULL);
  94              		.loc 1 71 5 is_stmt 1 view .LVU18
  95              		.loc 1 71 12 is_stmt 0 view .LVU19
  96 001a 0A46     		mov	r2, r1
  97 001c 6846     		mov	r0, sp
  98              	.LVL4:
  99              		.loc 1 71 12 view .LVU20
 100 001e FFF7FEFF 		bl	standard_cmd_write
 101              	.LVL5:
  72:TINYC256_192/falcon_cmd.c **** }
 102              		.loc 1 72 1 view .LVU21
ARM GAS  C:\usertemp\ccDXhwvm.s 			page 4


 103 0022 03B0     		add	sp, sp, #12
 104              	.LCFI3:
 105              		.cfi_def_cfa_offset 4
 106              		@ sp needed
 107 0024 5DF804FB 		ldr	pc, [sp], #4
 108              		.cfi_endproc
 109              	.LFE161:
 111              		.section	.text.load_prop_default_params,"ax",%progbits
 112              		.align	1
 113              		.global	load_prop_default_params
 114              		.syntax unified
 115              		.thumb
 116              		.thumb_func
 118              	load_prop_default_params:
 119              	.LVL6:
 120              	.LFB162:
  73:TINYC256_192/falcon_cmd.c **** 
  74:TINYC256_192/falcon_cmd.c **** // load property page's defaut parameters
  75:TINYC256_192/falcon_cmd.c **** ir_error_t load_prop_default_params(enum prop_default_params default_param)
  76:TINYC256_192/falcon_cmd.c **** {
 121              		.loc 1 76 1 is_stmt 1 view -0
 122              		.cfi_startproc
 123              		@ args = 0, pretend = 0, frame = 16
 124              		@ frame_needed = 0, uses_anonymous_args = 0
 125              		.loc 1 76 1 is_stmt 0 view .LVU23
 126 0000 00B5     		push	{lr}
 127              	.LCFI4:
 128              		.cfi_def_cfa_offset 4
 129              		.cfi_offset 14, -4
 130 0002 87B0     		sub	sp, sp, #28
 131              	.LCFI5:
 132              		.cfi_def_cfa_offset 32
 133 0004 0146     		mov	r1, r0
  77:TINYC256_192/falcon_cmd.c ****     uint16_t wParam = 0;
 134              		.loc 1 77 5 is_stmt 1 view .LVU24
 135              	.LVL7:
  78:TINYC256_192/falcon_cmd.c ****     uint32_t dwAddr1 = 0;
 136              		.loc 1 78 5 view .LVU25
  79:TINYC256_192/falcon_cmd.c ****     uint32_t dwAddr2 = 0;
 137              		.loc 1 79 5 view .LVU26
  80:TINYC256_192/falcon_cmd.c ****     vdcmd_long_header_t ptVdCmdHeader = {0};
 138              		.loc 1 80 5 view .LVU27
 139              		.loc 1 80 25 is_stmt 0 view .LVU28
 140 0006 0022     		movs	r2, #0
 141 0008 0292     		str	r2, [sp, #8]
 142 000a 0392     		str	r2, [sp, #12]
 143 000c 0492     		str	r2, [sp, #16]
 144 000e 0592     		str	r2, [sp, #20]
  81:TINYC256_192/falcon_cmd.c ****     ptVdCmdHeader.byCmdType = CMDTYPE_LONG_TYPE_PROP_PAGE;
 145              		.loc 1 81 5 is_stmt 1 view .LVU29
 146              		.loc 1 81 29 is_stmt 0 view .LVU30
 147 0010 1423     		movs	r3, #20
 148 0012 8DF80830 		strb	r3, [sp, #8]
  82:TINYC256_192/falcon_cmd.c ****     ptVdCmdHeader.bySubCmd = SUBCMD_PROP_LOAD_DEFAULT_PARAM;
 149              		.loc 1 82 5 is_stmt 1 view .LVU31
 150              		.loc 1 82 28 is_stmt 0 view .LVU32
 151 0016 0123     		movs	r3, #1
ARM GAS  C:\usertemp\ccDXhwvm.s 			page 5


 152 0018 8DF80930 		strb	r3, [sp, #9]
  83:TINYC256_192/falcon_cmd.c ****     wParam = default_param;
 153              		.loc 1 83 5 is_stmt 1 view .LVU33
 154              	.LVL8:
  84:TINYC256_192/falcon_cmd.c **** 
  85:TINYC256_192/falcon_cmd.c ****     return long_cmd_write(&ptVdCmdHeader, wParam, dwAddr1, dwAddr2, 0);
 155              		.loc 1 85 5 view .LVU34
 156              		.loc 1 85 12 is_stmt 0 view .LVU35
 157 001c 0092     		str	r2, [sp]
 158 001e 1346     		mov	r3, r2
 159 0020 02A8     		add	r0, sp, #8
 160              	.LVL9:
 161              		.loc 1 85 12 view .LVU36
 162 0022 FFF7FEFF 		bl	long_cmd_write
 163              	.LVL10:
  86:TINYC256_192/falcon_cmd.c **** }
 164              		.loc 1 86 1 view .LVU37
 165 0026 07B0     		add	sp, sp, #28
 166              	.LCFI6:
 167              		.cfi_def_cfa_offset 4
 168              		@ sp needed
 169 0028 5DF804FB 		ldr	pc, [sp], #4
 170              		.cfi_endproc
 171              	.LFE162:
 173              		.section	.text.set_prop_auto_shutter_params,"ax",%progbits
 174              		.align	1
 175              		.global	set_prop_auto_shutter_params
 176              		.syntax unified
 177              		.thumb
 178              		.thumb_func
 180              	set_prop_auto_shutter_params:
 181              	.LVL11:
 182              	.LFB163:
  87:TINYC256_192/falcon_cmd.c **** 
  88:TINYC256_192/falcon_cmd.c **** // set property page's auto shutter parameters
  89:TINYC256_192/falcon_cmd.c **** ir_error_t set_prop_auto_shutter_params(enum prop_auto_shutter_params shutter_param, uint16_t value
  90:TINYC256_192/falcon_cmd.c **** {
 183              		.loc 1 90 1 is_stmt 1 view -0
 184              		.cfi_startproc
 185              		@ args = 0, pretend = 0, frame = 16
 186              		@ frame_needed = 0, uses_anonymous_args = 0
 187              		.loc 1 90 1 is_stmt 0 view .LVU39
 188 0000 00B5     		push	{lr}
 189              	.LCFI7:
 190              		.cfi_def_cfa_offset 4
 191              		.cfi_offset 14, -4
 192 0002 87B0     		sub	sp, sp, #28
 193              	.LCFI8:
 194              		.cfi_def_cfa_offset 32
 195 0004 0A46     		mov	r2, r1
  91:TINYC256_192/falcon_cmd.c ****     uint16_t wParam = 0;
 196              		.loc 1 91 5 is_stmt 1 view .LVU40
 197              	.LVL12:
  92:TINYC256_192/falcon_cmd.c ****     uint32_t dwAddr1 = 0;
 198              		.loc 1 92 5 view .LVU41
  93:TINYC256_192/falcon_cmd.c ****     uint32_t dwAddr2 = 0;
 199              		.loc 1 93 5 view .LVU42
ARM GAS  C:\usertemp\ccDXhwvm.s 			page 6


  94:TINYC256_192/falcon_cmd.c ****     vdcmd_long_header_t ptVdCmdHeader = {0};
 200              		.loc 1 94 5 view .LVU43
 201              		.loc 1 94 25 is_stmt 0 view .LVU44
 202 0006 0023     		movs	r3, #0
 203 0008 0293     		str	r3, [sp, #8]
 204 000a 0393     		str	r3, [sp, #12]
 205 000c 0493     		str	r3, [sp, #16]
 206 000e 0593     		str	r3, [sp, #20]
  95:TINYC256_192/falcon_cmd.c ****     ptVdCmdHeader.byCmdType = CMDTYPE_LONG_TYPE_PROP_PAGE;
 207              		.loc 1 95 5 is_stmt 1 view .LVU45
 208              		.loc 1 95 29 is_stmt 0 view .LVU46
 209 0010 1423     		movs	r3, #20
 210 0012 8DF80830 		strb	r3, [sp, #8]
  96:TINYC256_192/falcon_cmd.c ****     ptVdCmdHeader.bySubCmd = SUBCMD_PROP_AUTO_SHUTTER_PARAM_SET;
 211              		.loc 1 96 5 is_stmt 1 view .LVU47
 212              		.loc 1 96 28 is_stmt 0 view .LVU48
 213 0016 C223     		movs	r3, #194
 214 0018 8DF80930 		strb	r3, [sp, #9]
  97:TINYC256_192/falcon_cmd.c ****     wParam = shutter_param;
 215              		.loc 1 97 5 is_stmt 1 view .LVU49
 216              	.LVL13:
  98:TINYC256_192/falcon_cmd.c ****     dwAddr1 = (uint32_t)value;
 217              		.loc 1 98 5 view .LVU50
  99:TINYC256_192/falcon_cmd.c **** 
 100:TINYC256_192/falcon_cmd.c ****     if (((shutter_param == SHUTTER_PROP_MIN_INTERVAL) && (value < SHUTTER_PROP_MIN_INTERVAL_MIN)) |
 218              		.loc 1 100 5 view .LVU51
 219              		.loc 1 100 8 is_stmt 0 view .LVU52
 220 001c 0128     		cmp	r0, #1
 221 001e 17D0     		beq	.L24
 222              	.LVL14:
 223              	.L8:
 101:TINYC256_192/falcon_cmd.c ****     {
 102:TINYC256_192/falcon_cmd.c ****         // printf("parameter MIN_INTERVAL out of range\r\n");
 103:TINYC256_192/falcon_cmd.c ****         return IR_ERROR_PARAM;
 104:TINYC256_192/falcon_cmd.c ****     }
 105:TINYC256_192/falcon_cmd.c **** 
 106:TINYC256_192/falcon_cmd.c ****     if (((shutter_param == SHUTTER_PROP_MAX_INTERVAL) && (value < SHUTTER_PROP_MAX_INTERVAL_MIN)) |
 224              		.loc 1 106 5 is_stmt 1 view .LVU53
 225              		.loc 1 106 8 is_stmt 0 view .LVU54
 226 0020 0228     		cmp	r0, #2
 227 0022 1ED0     		beq	.L25
 228              	.L10:
 107:TINYC256_192/falcon_cmd.c ****     {
 108:TINYC256_192/falcon_cmd.c ****         // printf("parameter MAX_INTERVAL out of range\r\n");
 109:TINYC256_192/falcon_cmd.c ****         return IR_ERROR_PARAM;
 110:TINYC256_192/falcon_cmd.c ****     }
 111:TINYC256_192/falcon_cmd.c **** 
 112:TINYC256_192/falcon_cmd.c ****     if ((shutter_param == SHUTTER_PROP_TEMP_THRESHOLD_B) && (value > SHUTTER_PROP_TEMP_THR_B_MAX))
 229              		.loc 1 112 5 is_stmt 1 view .LVU55
 113:TINYC256_192/falcon_cmd.c ****     {
 114:TINYC256_192/falcon_cmd.c ****         // printf("parameter TEMP_THRESHOLD_B out of range\r\n");
 115:TINYC256_192/falcon_cmd.c ****         return IR_ERROR_PARAM;
 116:TINYC256_192/falcon_cmd.c ****     }
 117:TINYC256_192/falcon_cmd.c **** 
 118:TINYC256_192/falcon_cmd.c ****     if ((shutter_param == SHUTTER_PROP_ANY_INTERVAL) && (value > SHUTTER_PROP_ANY_INTERVAL_MAX))
 230              		.loc 1 118 5 view .LVU56
 231              		.loc 1 118 8 is_stmt 0 view .LVU57
ARM GAS  C:\usertemp\ccDXhwvm.s 			page 7


 232 0024 0628     		cmp	r0, #6
 233 0026 25D0     		beq	.L26
 234              	.L11:
 119:TINYC256_192/falcon_cmd.c ****     {
 120:TINYC256_192/falcon_cmd.c ****         // printf("parameter ANY_INTERVAL out of range\r\n");
 121:TINYC256_192/falcon_cmd.c ****         return IR_ERROR_PARAM;
 122:TINYC256_192/falcon_cmd.c ****     }
 123:TINYC256_192/falcon_cmd.c **** 
 124:TINYC256_192/falcon_cmd.c ****     if ((shutter_param == SHUTTER_PROTECT_THR_HIGH_GAIN) && (value > SHUTTER_PROP_THR_HIGH_GAIN_MAX
 235              		.loc 1 124 5 is_stmt 1 view .LVU58
 125:TINYC256_192/falcon_cmd.c ****     {
 126:TINYC256_192/falcon_cmd.c ****         // printf("parameter PROTECT_THR_HIGH_GAIN out of range\r\n");
 127:TINYC256_192/falcon_cmd.c ****         return IR_ERROR_PARAM;
 128:TINYC256_192/falcon_cmd.c ****     }
 129:TINYC256_192/falcon_cmd.c **** 
 130:TINYC256_192/falcon_cmd.c ****     if ((shutter_param == SHUTTER_PROTECT_THR_LOW_GAIN) && (value > SHUTTER_PROP_THR_LOW_GAIN_MAX))
 236              		.loc 1 130 5 view .LVU59
 131:TINYC256_192/falcon_cmd.c ****     {
 132:TINYC256_192/falcon_cmd.c ****         // printf("parameter PROTECT_THR_LOW_GAIN out of range\r\n");
 133:TINYC256_192/falcon_cmd.c ****         return IR_ERROR_PARAM;
 134:TINYC256_192/falcon_cmd.c ****     }
 135:TINYC256_192/falcon_cmd.c **** 
 136:TINYC256_192/falcon_cmd.c ****     if ((shutter_param == SHUTTER_PREVIEW_START_1ST_DELAY) && (value > SHUTTER_PROP_PREVIEW_START_1
 237              		.loc 1 136 5 view .LVU60
 238              		.loc 1 136 8 is_stmt 0 view .LVU61
 239 0028 0928     		cmp	r0, #9
 240 002a 29D0     		beq	.L27
 241              	.L12:
 137:TINYC256_192/falcon_cmd.c ****     {
 138:TINYC256_192/falcon_cmd.c ****         // printf("parameter PREVIEW_START_1ST_DELAY out of range\r\n");
 139:TINYC256_192/falcon_cmd.c ****         return IR_ERROR_PARAM;
 140:TINYC256_192/falcon_cmd.c ****     }
 141:TINYC256_192/falcon_cmd.c **** 
 142:TINYC256_192/falcon_cmd.c ****     if ((shutter_param == SHUTTER_PREVIEW_START_2ND_DELAY) && (value > SHUTTER_PROP_PREVIEW_START_2
 242              		.loc 1 142 5 is_stmt 1 view .LVU62
 243              		.loc 1 142 8 is_stmt 0 view .LVU63
 244 002c 0A28     		cmp	r0, #10
 245 002e 2DD0     		beq	.L28
 246              	.L13:
 143:TINYC256_192/falcon_cmd.c ****     {
 144:TINYC256_192/falcon_cmd.c ****         // printf("parameter PREVIEW_START_2ND_DELAY out of range\r\n");
 145:TINYC256_192/falcon_cmd.c ****         return IR_ERROR_PARAM;
 146:TINYC256_192/falcon_cmd.c ****     }
 147:TINYC256_192/falcon_cmd.c **** 
 148:TINYC256_192/falcon_cmd.c ****     if ((shutter_param == SHUTTER_CHANGE_GAIN_1ST_DELAY) && (value > SHUTTER_PROP_CHANGE_GAIN_1ST_D
 247              		.loc 1 148 5 is_stmt 1 view .LVU64
 248              		.loc 1 148 8 is_stmt 0 view .LVU65
 249 0030 0B28     		cmp	r0, #11
 250 0032 31D0     		beq	.L29
 251              	.L14:
 149:TINYC256_192/falcon_cmd.c ****     {
 150:TINYC256_192/falcon_cmd.c ****         // printf("parameter CHANGE_GAIN_1ST_DELAY out of rangeprintf");
 151:TINYC256_192/falcon_cmd.c ****         return IR_ERROR_PARAM;
 152:TINYC256_192/falcon_cmd.c ****     }
 153:TINYC256_192/falcon_cmd.c **** 
 154:TINYC256_192/falcon_cmd.c ****     if ((shutter_param == SHUTTER_CHANGE_GAIN_2ND_DELAY) && (value > SHUTTER_PROP_CHANGE_GAIN_2ND_D
 252              		.loc 1 154 5 is_stmt 1 view .LVU66
ARM GAS  C:\usertemp\ccDXhwvm.s 			page 8


 253              		.loc 1 154 8 is_stmt 0 view .LVU67
 254 0034 0C28     		cmp	r0, #12
 255 0036 02D1     		bne	.L15
 256              		.loc 1 154 58 discriminator 1 view .LVU68
 257 0038 B2F5247F 		cmp	r2, #656
 258 003c 32D2     		bcs	.L22
 259              	.L15:
 155:TINYC256_192/falcon_cmd.c ****     {
 156:TINYC256_192/falcon_cmd.c ****         // printf("parameter CHANGE_GAIN_2ND_DELAY out of range\r\n");
 157:TINYC256_192/falcon_cmd.c ****         return IR_ERROR_PARAM;
 158:TINYC256_192/falcon_cmd.c ****     }
 159:TINYC256_192/falcon_cmd.c **** 
 160:TINYC256_192/falcon_cmd.c ****     return long_cmd_write(&ptVdCmdHeader, wParam, dwAddr1, dwAddr2, 0);
 260              		.loc 1 160 5 is_stmt 1 view .LVU69
 261              		.loc 1 160 12 is_stmt 0 view .LVU70
 262 003e 0023     		movs	r3, #0
 263 0040 0093     		str	r3, [sp]
 264 0042 0146     		mov	r1, r0
 265 0044 02A8     		add	r0, sp, #8
 266              	.LVL15:
 267              		.loc 1 160 12 view .LVU71
 268 0046 FFF7FEFF 		bl	long_cmd_write
 269              	.LVL16:
 270              	.L9:
 161:TINYC256_192/falcon_cmd.c **** }
 271              		.loc 1 161 1 view .LVU72
 272 004a 07B0     		add	sp, sp, #28
 273              	.LCFI9:
 274              		.cfi_remember_state
 275              		.cfi_def_cfa_offset 4
 276              		@ sp needed
 277 004c 5DF804FB 		ldr	pc, [sp], #4
 278              	.LVL17:
 279              	.L24:
 280              	.LCFI10:
 281              		.cfi_restore_state
 100:TINYC256_192/falcon_cmd.c ****     {
 282              		.loc 1 100 99 discriminator 1 view .LVU73
 283 0050 4B1F     		subs	r3, r1, #5
 284 0052 9BB2     		uxth	r3, r3
 285 0054 40F28A21 		movw	r1, #650
 286              	.LVL18:
 100:TINYC256_192/falcon_cmd.c ****     {
 287              		.loc 1 100 99 discriminator 1 view .LVU74
 288 0058 8B42     		cmp	r3, r1
 289 005a E1D9     		bls	.L8
 103:TINYC256_192/falcon_cmd.c ****     }
 290              		.loc 1 103 16 view .LVU75
 291 005c 4FF0FF30 		mov	r0, #-1
 292              	.LVL19:
 103:TINYC256_192/falcon_cmd.c ****     }
 293              		.loc 1 103 16 view .LVU76
 294 0060 F3E7     		b	.L9
 295              	.LVL20:
 296              	.L25:
 106:TINYC256_192/falcon_cmd.c ****     {
 297              		.loc 1 106 99 discriminator 1 view .LVU77
ARM GAS  C:\usertemp\ccDXhwvm.s 			page 9


 298 0062 531F     		subs	r3, r2, #5
 299 0064 9BB2     		uxth	r3, r3
 300 0066 40F28A21 		movw	r1, #650
 301 006a 8B42     		cmp	r3, r1
 302 006c DAD9     		bls	.L10
 109:TINYC256_192/falcon_cmd.c ****     }
 303              		.loc 1 109 16 view .LVU78
 304 006e 4FF0FF30 		mov	r0, #-1
 305              	.LVL21:
 109:TINYC256_192/falcon_cmd.c ****     }
 306              		.loc 1 109 16 view .LVU79
 307 0072 EAE7     		b	.L9
 308              	.LVL22:
 309              	.L26:
 118:TINYC256_192/falcon_cmd.c ****     {
 310              		.loc 1 118 54 discriminator 1 view .LVU80
 311 0074 B2F5247F 		cmp	r2, #656
 312 0078 D6D3     		bcc	.L11
 121:TINYC256_192/falcon_cmd.c ****     }
 313              		.loc 1 121 16 view .LVU81
 314 007a 4FF0FF30 		mov	r0, #-1
 315              	.LVL23:
 121:TINYC256_192/falcon_cmd.c ****     }
 316              		.loc 1 121 16 view .LVU82
 317 007e E4E7     		b	.L9
 318              	.LVL24:
 319              	.L27:
 136:TINYC256_192/falcon_cmd.c ****     {
 320              		.loc 1 136 60 discriminator 1 view .LVU83
 321 0080 B2F5247F 		cmp	r2, #656
 322 0084 D2D3     		bcc	.L12
 139:TINYC256_192/falcon_cmd.c ****     }
 323              		.loc 1 139 16 view .LVU84
 324 0086 4FF0FF30 		mov	r0, #-1
 325              	.LVL25:
 139:TINYC256_192/falcon_cmd.c ****     }
 326              		.loc 1 139 16 view .LVU85
 327 008a DEE7     		b	.L9
 328              	.LVL26:
 329              	.L28:
 142:TINYC256_192/falcon_cmd.c ****     {
 330              		.loc 1 142 60 discriminator 1 view .LVU86
 331 008c B2F5247F 		cmp	r2, #656
 332 0090 CED3     		bcc	.L13
 145:TINYC256_192/falcon_cmd.c ****     }
 333              		.loc 1 145 16 view .LVU87
 334 0092 4FF0FF30 		mov	r0, #-1
 335              	.LVL27:
 145:TINYC256_192/falcon_cmd.c ****     }
 336              		.loc 1 145 16 view .LVU88
 337 0096 D8E7     		b	.L9
 338              	.LVL28:
 339              	.L29:
 148:TINYC256_192/falcon_cmd.c ****     {
 340              		.loc 1 148 58 discriminator 1 view .LVU89
 341 0098 B2F5247F 		cmp	r2, #656
 342 009c CAD3     		bcc	.L14
ARM GAS  C:\usertemp\ccDXhwvm.s 			page 10


 151:TINYC256_192/falcon_cmd.c ****     }
 343              		.loc 1 151 16 view .LVU90
 344 009e 4FF0FF30 		mov	r0, #-1
 345              	.LVL29:
 151:TINYC256_192/falcon_cmd.c ****     }
 346              		.loc 1 151 16 view .LVU91
 347 00a2 D2E7     		b	.L9
 348              	.LVL30:
 349              	.L22:
 157:TINYC256_192/falcon_cmd.c ****     }
 350              		.loc 1 157 16 view .LVU92
 351 00a4 4FF0FF30 		mov	r0, #-1
 352              	.LVL31:
 157:TINYC256_192/falcon_cmd.c ****     }
 353              		.loc 1 157 16 view .LVU93
 354 00a8 CFE7     		b	.L9
 355              		.cfi_endproc
 356              	.LFE163:
 358              		.section	.text.get_prop_auto_shutter_params,"ax",%progbits
 359              		.align	1
 360              		.global	get_prop_auto_shutter_params
 361              		.syntax unified
 362              		.thumb
 363              		.thumb_func
 365              	get_prop_auto_shutter_params:
 366              	.LVL32:
 367              	.LFB164:
 162:TINYC256_192/falcon_cmd.c **** 
 163:TINYC256_192/falcon_cmd.c **** // get property page's auto shutter parameters
 164:TINYC256_192/falcon_cmd.c **** ir_error_t get_prop_auto_shutter_params(enum prop_auto_shutter_params shutter_param, uint16_t *valu
 165:TINYC256_192/falcon_cmd.c **** {
 368              		.loc 1 165 1 is_stmt 1 view -0
 369              		.cfi_startproc
 370              		@ args = 0, pretend = 0, frame = 24
 371              		@ frame_needed = 0, uses_anonymous_args = 0
 372              		.loc 1 165 1 is_stmt 0 view .LVU95
 373 0000 10B5     		push	{r4, lr}
 374              	.LCFI11:
 375              		.cfi_def_cfa_offset 8
 376              		.cfi_offset 4, -8
 377              		.cfi_offset 14, -4
 378 0002 88B0     		sub	sp, sp, #32
 379              	.LCFI12:
 380              		.cfi_def_cfa_offset 40
 381 0004 0C46     		mov	r4, r1
 166:TINYC256_192/falcon_cmd.c ****     ir_error_t rst;
 382              		.loc 1 166 5 is_stmt 1 view .LVU96
 167:TINYC256_192/falcon_cmd.c ****     uint8_t data[2] = {0};
 383              		.loc 1 167 5 view .LVU97
 384              		.loc 1 167 13 is_stmt 0 view .LVU98
 385 0006 0022     		movs	r2, #0
 386 0008 ADF81C20 		strh	r2, [sp, #28]	@ movhi
 168:TINYC256_192/falcon_cmd.c ****     uint16_t wParam = 0;
 387              		.loc 1 168 5 is_stmt 1 view .LVU99
 388              	.LVL33:
 169:TINYC256_192/falcon_cmd.c ****     uint32_t dwAddr1 = 0;
 389              		.loc 1 169 5 view .LVU100
ARM GAS  C:\usertemp\ccDXhwvm.s 			page 11


 170:TINYC256_192/falcon_cmd.c ****     uint32_t dwAddr2 = 0;
 390              		.loc 1 170 5 view .LVU101
 171:TINYC256_192/falcon_cmd.c ****     vdcmd_long_header_t ptVdCmdHeader = {0};
 391              		.loc 1 171 5 view .LVU102
 392              		.loc 1 171 25 is_stmt 0 view .LVU103
 393 000c 0392     		str	r2, [sp, #12]
 394 000e 0492     		str	r2, [sp, #16]
 395 0010 0592     		str	r2, [sp, #20]
 396 0012 0692     		str	r2, [sp, #24]
 172:TINYC256_192/falcon_cmd.c ****     ptVdCmdHeader.byCmdType = CMDTYPE_LONG_TYPE_PROP_PAGE;
 397              		.loc 1 172 5 is_stmt 1 view .LVU104
 398              		.loc 1 172 29 is_stmt 0 view .LVU105
 399 0014 1423     		movs	r3, #20
 400 0016 8DF80C30 		strb	r3, [sp, #12]
 173:TINYC256_192/falcon_cmd.c ****     ptVdCmdHeader.bySubCmd = SUBCMD_PROP_AUTO_SHUTTER_PARAM_GET;
 401              		.loc 1 173 5 is_stmt 1 view .LVU106
 402              		.loc 1 173 28 is_stmt 0 view .LVU107
 403 001a 8223     		movs	r3, #130
 404 001c 8DF80D30 		strb	r3, [sp, #13]
 174:TINYC256_192/falcon_cmd.c ****     wParam = shutter_param;
 405              		.loc 1 174 5 is_stmt 1 view .LVU108
 406              	.LVL34:
 175:TINYC256_192/falcon_cmd.c **** 
 176:TINYC256_192/falcon_cmd.c ****     rst = long_cmd_read(&ptVdCmdHeader, wParam, dwAddr1, dwAddr2, 2, data);
 407              		.loc 1 176 5 view .LVU109
 408              		.loc 1 176 11 is_stmt 0 view .LVU110
 409 0020 07AB     		add	r3, sp, #28
 410 0022 0193     		str	r3, [sp, #4]
 411 0024 0223     		movs	r3, #2
 412 0026 0093     		str	r3, [sp]
 413 0028 1346     		mov	r3, r2
 414 002a 0146     		mov	r1, r0
 415              	.LVL35:
 416              		.loc 1 176 11 view .LVU111
 417 002c 03A8     		add	r0, sp, #12
 418              	.LVL36:
 419              		.loc 1 176 11 view .LVU112
 420 002e FFF7FEFF 		bl	long_cmd_read
 421              	.LVL37:
 177:TINYC256_192/falcon_cmd.c ****     *value = ((uint16_t)data[0] << 8) + data[1];
 422              		.loc 1 177 5 is_stmt 1 view .LVU113
 423              		.loc 1 177 29 is_stmt 0 view .LVU114
 424 0032 9DF81C20 		ldrb	r2, [sp, #28]	@ zero_extendqisi2
 425              		.loc 1 177 45 view .LVU115
 426 0036 9DF81D30 		ldrb	r3, [sp, #29]	@ zero_extendqisi2
 427              		.loc 1 177 39 view .LVU116
 428 003a 03EB0223 		add	r3, r3, r2, lsl #8
 429              		.loc 1 177 12 view .LVU117
 430 003e 2380     		strh	r3, [r4]	@ movhi
 178:TINYC256_192/falcon_cmd.c ****     return rst;
 431              		.loc 1 178 5 is_stmt 1 view .LVU118
 179:TINYC256_192/falcon_cmd.c **** }
 432              		.loc 1 179 1 is_stmt 0 view .LVU119
 433 0040 08B0     		add	sp, sp, #32
 434              	.LCFI13:
 435              		.cfi_def_cfa_offset 8
 436              		@ sp needed
ARM GAS  C:\usertemp\ccDXhwvm.s 			page 12


 437 0042 10BD     		pop	{r4, pc}
 438              		.loc 1 179 1 view .LVU120
 439              		.cfi_endproc
 440              	.LFE164:
 442              		.section	.text.set_prop_image_params,"ax",%progbits
 443              		.align	1
 444              		.global	set_prop_image_params
 445              		.syntax unified
 446              		.thumb
 447              		.thumb_func
 449              	set_prop_image_params:
 450              	.LVL38:
 451              	.LFB165:
 180:TINYC256_192/falcon_cmd.c **** 
 181:TINYC256_192/falcon_cmd.c **** // set property page's image parameters
 182:TINYC256_192/falcon_cmd.c **** ir_error_t set_prop_image_params(enum prop_image_params image_param, uint16_t value)
 183:TINYC256_192/falcon_cmd.c **** {
 452              		.loc 1 183 1 is_stmt 1 view -0
 453              		.cfi_startproc
 454              		@ args = 0, pretend = 0, frame = 16
 455              		@ frame_needed = 0, uses_anonymous_args = 0
 456              		.loc 1 183 1 is_stmt 0 view .LVU122
 457 0000 00B5     		push	{lr}
 458              	.LCFI14:
 459              		.cfi_def_cfa_offset 4
 460              		.cfi_offset 14, -4
 461 0002 87B0     		sub	sp, sp, #28
 462              	.LCFI15:
 463              		.cfi_def_cfa_offset 32
 464 0004 0A46     		mov	r2, r1
 184:TINYC256_192/falcon_cmd.c ****     uint16_t wParam = 0;
 465              		.loc 1 184 5 is_stmt 1 view .LVU123
 466              	.LVL39:
 185:TINYC256_192/falcon_cmd.c ****     uint32_t dwAddr1 = 0;
 467              		.loc 1 185 5 view .LVU124
 186:TINYC256_192/falcon_cmd.c ****     uint32_t dwAddr2 = 0;
 468              		.loc 1 186 5 view .LVU125
 187:TINYC256_192/falcon_cmd.c ****     vdcmd_long_header_t ptVdCmdHeader = {0};
 469              		.loc 1 187 5 view .LVU126
 470              		.loc 1 187 25 is_stmt 0 view .LVU127
 471 0006 0023     		movs	r3, #0
 472 0008 0293     		str	r3, [sp, #8]
 473 000a 0393     		str	r3, [sp, #12]
 474 000c 0493     		str	r3, [sp, #16]
 475 000e 0593     		str	r3, [sp, #20]
 188:TINYC256_192/falcon_cmd.c ****     ptVdCmdHeader.byCmdType = CMDTYPE_LONG_TYPE_PROP_PAGE;
 476              		.loc 1 188 5 is_stmt 1 view .LVU128
 477              		.loc 1 188 29 is_stmt 0 view .LVU129
 478 0010 1423     		movs	r3, #20
 479 0012 8DF80830 		strb	r3, [sp, #8]
 189:TINYC256_192/falcon_cmd.c ****     ptVdCmdHeader.bySubCmd = SUBCMD_PROP_IMAGE_PARAM_SET;
 480              		.loc 1 189 5 is_stmt 1 view .LVU130
 481              		.loc 1 189 28 is_stmt 0 view .LVU131
 482 0016 C323     		movs	r3, #195
 483 0018 8DF80930 		strb	r3, [sp, #9]
 190:TINYC256_192/falcon_cmd.c ****     wParam = image_param;
 484              		.loc 1 190 5 is_stmt 1 view .LVU132
ARM GAS  C:\usertemp\ccDXhwvm.s 			page 13


 485              	.LVL40:
 191:TINYC256_192/falcon_cmd.c ****     dwAddr1 = (uint32_t)value;
 486              		.loc 1 191 5 view .LVU133
 192:TINYC256_192/falcon_cmd.c **** 
 193:TINYC256_192/falcon_cmd.c ****     if ((image_param == IMAGE_PROP_LEVEL_TNR) && (value > IMG_PROP_TNR_MAX))
 487              		.loc 1 193 5 view .LVU134
 488              		.loc 1 193 8 is_stmt 0 view .LVU135
 489 001c 0146     		mov	r1, r0
 490              	.LVL41:
 491              		.loc 1 193 8 view .LVU136
 492 001e 08B9     		cbnz	r0, .L33
 493              		.loc 1 193 47 discriminator 1 view .LVU137
 494 0020 032A     		cmp	r2, #3
 495 0022 3CD8     		bhi	.L43
 496              	.L33:
 194:TINYC256_192/falcon_cmd.c ****     {
 195:TINYC256_192/falcon_cmd.c ****         // printf("parameter TNR out of range\r\n");
 196:TINYC256_192/falcon_cmd.c ****         return IR_ERROR_PARAM;
 197:TINYC256_192/falcon_cmd.c ****     }
 198:TINYC256_192/falcon_cmd.c **** 
 199:TINYC256_192/falcon_cmd.c ****     if ((image_param == IMAGE_PROP_LEVEL_SNR) && (value > IMG_PROP_SNR_MAX))
 497              		.loc 1 199 5 is_stmt 1 view .LVU138
 498              		.loc 1 199 8 is_stmt 0 view .LVU139
 499 0024 0129     		cmp	r1, #1
 500 0026 17D0     		beq	.L53
 501              	.L35:
 200:TINYC256_192/falcon_cmd.c ****     {
 201:TINYC256_192/falcon_cmd.c ****         // printf("parameter SNR out of range\r\n");
 202:TINYC256_192/falcon_cmd.c ****         return IR_ERROR_PARAM;
 203:TINYC256_192/falcon_cmd.c ****     }
 204:TINYC256_192/falcon_cmd.c **** 
 205:TINYC256_192/falcon_cmd.c ****     if ((image_param == IMAGE_PROP_LEVEL_DDE) && (value > IMG_PROP_DDE_MAX))
 502              		.loc 1 205 5 is_stmt 1 view .LVU140
 503              		.loc 1 205 8 is_stmt 0 view .LVU141
 504 0028 0229     		cmp	r1, #2
 505 002a 1AD0     		beq	.L54
 506              	.L36:
 206:TINYC256_192/falcon_cmd.c ****     {
 207:TINYC256_192/falcon_cmd.c ****         // printf("parameter DDE out of range\r\n");
 208:TINYC256_192/falcon_cmd.c ****         return IR_ERROR_PARAM;
 209:TINYC256_192/falcon_cmd.c ****     }
 210:TINYC256_192/falcon_cmd.c **** 
 211:TINYC256_192/falcon_cmd.c ****     if ((image_param == IMAGE_PROP_LEVEL_BRIGHTNESS) && (value > IMG_PROP_BRIGHTNESS_MAX))
 507              		.loc 1 211 5 is_stmt 1 view .LVU142
 508              		.loc 1 211 8 is_stmt 0 view .LVU143
 509 002c 0329     		cmp	r1, #3
 510 002e 1DD0     		beq	.L55
 511              	.L37:
 212:TINYC256_192/falcon_cmd.c ****     {
 213:TINYC256_192/falcon_cmd.c ****         // printf("parameter BRIGHTNESS out of range\r\n");
 214:TINYC256_192/falcon_cmd.c ****         return IR_ERROR_PARAM;
 215:TINYC256_192/falcon_cmd.c ****     }
 216:TINYC256_192/falcon_cmd.c **** 
 217:TINYC256_192/falcon_cmd.c ****     if ((image_param == IMAGE_PROP_LEVEL_CONTRAST) && (value > IMG_PROP_CONTRAST_MAX))
 512              		.loc 1 217 5 is_stmt 1 view .LVU144
 513              		.loc 1 217 8 is_stmt 0 view .LVU145
 514 0030 0429     		cmp	r1, #4
ARM GAS  C:\usertemp\ccDXhwvm.s 			page 14


 515 0032 20D0     		beq	.L56
 516              	.L38:
 218:TINYC256_192/falcon_cmd.c ****     {
 219:TINYC256_192/falcon_cmd.c ****         // printf("parameter CONTRAST out of range\r\n");
 220:TINYC256_192/falcon_cmd.c ****         return IR_ERROR_PARAM;
 221:TINYC256_192/falcon_cmd.c ****     }
 222:TINYC256_192/falcon_cmd.c **** 
 223:TINYC256_192/falcon_cmd.c ****     if ((image_param == IMAGE_PROP_MODE_AGC) && (value > IMG_PROP_AGC_MAX))
 517              		.loc 1 223 5 is_stmt 1 view .LVU146
 518              		.loc 1 223 8 is_stmt 0 view .LVU147
 519 0034 0529     		cmp	r1, #5
 520 0036 23D0     		beq	.L57
 521              	.L39:
 224:TINYC256_192/falcon_cmd.c ****     {
 225:TINYC256_192/falcon_cmd.c ****         // printf("parameter AGC out of range\r\n");
 226:TINYC256_192/falcon_cmd.c ****         return IR_ERROR_PARAM;
 227:TINYC256_192/falcon_cmd.c ****     }
 228:TINYC256_192/falcon_cmd.c **** 
 229:TINYC256_192/falcon_cmd.c ****     if ((image_param == IMAGE_PROP_LEVEL_MAX_GAIN) && (value > IMG_PROP_AGC_MAXGAIN_MAX))
 522              		.loc 1 229 5 is_stmt 1 view .LVU148
 523              		.loc 1 229 8 is_stmt 0 view .LVU149
 524 0038 0629     		cmp	r1, #6
 525 003a 26D0     		beq	.L58
 526              	.L40:
 230:TINYC256_192/falcon_cmd.c ****     {
 231:TINYC256_192/falcon_cmd.c ****         // printf("parameter MAX_GAIN out of range\r\n");
 232:TINYC256_192/falcon_cmd.c ****         return IR_ERROR_PARAM;
 233:TINYC256_192/falcon_cmd.c ****     }
 234:TINYC256_192/falcon_cmd.c **** 
 235:TINYC256_192/falcon_cmd.c ****     if ((image_param == IMAGE_PROP_LEVEL_BOS) && (value > IMG_PROP_AGC_BOS_MAX))
 527              		.loc 1 235 5 is_stmt 1 view .LVU150
 528              		.loc 1 235 8 is_stmt 0 view .LVU151
 529 003c 0729     		cmp	r1, #7
 530 003e 29D0     		beq	.L59
 531              	.L41:
 236:TINYC256_192/falcon_cmd.c ****     {
 237:TINYC256_192/falcon_cmd.c ****         // printf("parameter BOS out of range\r\n");
 238:TINYC256_192/falcon_cmd.c ****         return IR_ERROR_PARAM;
 239:TINYC256_192/falcon_cmd.c ****     }
 240:TINYC256_192/falcon_cmd.c **** 
 241:TINYC256_192/falcon_cmd.c ****     if ((image_param == IMAGE_PROP_SEL_MIRROR_FLIP) && (value > IMG_PROP_MIRROR_FLIP_MAX))
 532              		.loc 1 241 5 is_stmt 1 view .LVU152
 533              		.loc 1 241 8 is_stmt 0 view .LVU153
 534 0040 0929     		cmp	r1, #9
 535 0042 01D1     		bne	.L42
 536              		.loc 1 241 53 discriminator 1 view .LVU154
 537 0044 032A     		cmp	r2, #3
 538 0046 2DD8     		bhi	.L51
 539              	.L42:
 242:TINYC256_192/falcon_cmd.c ****     {
 243:TINYC256_192/falcon_cmd.c ****         // printf("parameter MIRROR_FLIP out of range\r\n");
 244:TINYC256_192/falcon_cmd.c ****         return IR_ERROR_PARAM;
 245:TINYC256_192/falcon_cmd.c ****     }
 246:TINYC256_192/falcon_cmd.c ****     return long_cmd_write(&ptVdCmdHeader, wParam, dwAddr1, dwAddr2, 0);
 540              		.loc 1 246 5 is_stmt 1 view .LVU155
 541              		.loc 1 246 12 is_stmt 0 view .LVU156
 542 0048 0023     		movs	r3, #0
ARM GAS  C:\usertemp\ccDXhwvm.s 			page 15


 543 004a 0093     		str	r3, [sp]
 544 004c 02A8     		add	r0, sp, #8
 545              	.LVL42:
 546              		.loc 1 246 12 view .LVU157
 547 004e FFF7FEFF 		bl	long_cmd_write
 548              	.LVL43:
 549              	.L34:
 247:TINYC256_192/falcon_cmd.c **** }
 550              		.loc 1 247 1 view .LVU158
 551 0052 07B0     		add	sp, sp, #28
 552              	.LCFI16:
 553              		.cfi_remember_state
 554              		.cfi_def_cfa_offset 4
 555              		@ sp needed
 556 0054 5DF804FB 		ldr	pc, [sp], #4
 557              	.LVL44:
 558              	.L53:
 559              	.LCFI17:
 560              		.cfi_restore_state
 199:TINYC256_192/falcon_cmd.c ****     {
 561              		.loc 1 199 47 discriminator 1 view .LVU159
 562 0058 032A     		cmp	r2, #3
 563 005a E5D9     		bls	.L35
 202:TINYC256_192/falcon_cmd.c ****     }
 564              		.loc 1 202 16 view .LVU160
 565 005c 4FF0FF30 		mov	r0, #-1
 566              	.LVL45:
 202:TINYC256_192/falcon_cmd.c ****     }
 567              		.loc 1 202 16 view .LVU161
 568 0060 F7E7     		b	.L34
 569              	.LVL46:
 570              	.L54:
 205:TINYC256_192/falcon_cmd.c ****     {
 571              		.loc 1 205 47 discriminator 1 view .LVU162
 572 0062 062A     		cmp	r2, #6
 573 0064 E2D9     		bls	.L36
 208:TINYC256_192/falcon_cmd.c ****     }
 574              		.loc 1 208 16 view .LVU163
 575 0066 4FF0FF30 		mov	r0, #-1
 576              	.LVL47:
 208:TINYC256_192/falcon_cmd.c ****     }
 577              		.loc 1 208 16 view .LVU164
 578 006a F2E7     		b	.L34
 579              	.LVL48:
 580              	.L55:
 211:TINYC256_192/falcon_cmd.c ****     {
 581              		.loc 1 211 54 discriminator 1 view .LVU165
 582 006c FF2A     		cmp	r2, #255
 583 006e DFD9     		bls	.L37
 214:TINYC256_192/falcon_cmd.c ****     }
 584              		.loc 1 214 16 view .LVU166
 585 0070 4FF0FF30 		mov	r0, #-1
 586              	.LVL49:
 214:TINYC256_192/falcon_cmd.c ****     }
 587              		.loc 1 214 16 view .LVU167
 588 0074 EDE7     		b	.L34
 589              	.LVL50:
ARM GAS  C:\usertemp\ccDXhwvm.s 			page 16


 590              	.L56:
 217:TINYC256_192/falcon_cmd.c ****     {
 591              		.loc 1 217 52 discriminator 1 view .LVU168
 592 0076 FF2A     		cmp	r2, #255
 593 0078 DCD9     		bls	.L38
 220:TINYC256_192/falcon_cmd.c ****     }
 594              		.loc 1 220 16 view .LVU169
 595 007a 4FF0FF30 		mov	r0, #-1
 596              	.LVL51:
 220:TINYC256_192/falcon_cmd.c ****     }
 597              		.loc 1 220 16 view .LVU170
 598 007e E8E7     		b	.L34
 599              	.LVL52:
 600              	.L57:
 223:TINYC256_192/falcon_cmd.c ****     {
 601              		.loc 1 223 46 discriminator 1 view .LVU171
 602 0080 052A     		cmp	r2, #5
 603 0082 D9D9     		bls	.L39
 226:TINYC256_192/falcon_cmd.c ****     }
 604              		.loc 1 226 16 view .LVU172
 605 0084 4FF0FF30 		mov	r0, #-1
 606              	.LVL53:
 226:TINYC256_192/falcon_cmd.c ****     }
 607              		.loc 1 226 16 view .LVU173
 608 0088 E3E7     		b	.L34
 609              	.LVL54:
 610              	.L58:
 229:TINYC256_192/falcon_cmd.c ****     {
 611              		.loc 1 229 52 discriminator 1 view .LVU174
 612 008a FF2A     		cmp	r2, #255
 613 008c D6D9     		bls	.L40
 232:TINYC256_192/falcon_cmd.c ****     }
 614              		.loc 1 232 16 view .LVU175
 615 008e 4FF0FF30 		mov	r0, #-1
 616              	.LVL55:
 232:TINYC256_192/falcon_cmd.c ****     }
 617              		.loc 1 232 16 view .LVU176
 618 0092 DEE7     		b	.L34
 619              	.LVL56:
 620              	.L59:
 235:TINYC256_192/falcon_cmd.c ****     {
 621              		.loc 1 235 47 discriminator 1 view .LVU177
 622 0094 FF2A     		cmp	r2, #255
 623 0096 D3D9     		bls	.L41
 238:TINYC256_192/falcon_cmd.c ****     }
 624              		.loc 1 238 16 view .LVU178
 625 0098 4FF0FF30 		mov	r0, #-1
 626              	.LVL57:
 238:TINYC256_192/falcon_cmd.c ****     }
 627              		.loc 1 238 16 view .LVU179
 628 009c D9E7     		b	.L34
 629              	.LVL58:
 630              	.L43:
 196:TINYC256_192/falcon_cmd.c ****     }
 631              		.loc 1 196 16 view .LVU180
 632 009e 4FF0FF30 		mov	r0, #-1
 633              	.LVL59:
ARM GAS  C:\usertemp\ccDXhwvm.s 			page 17


 196:TINYC256_192/falcon_cmd.c ****     }
 634              		.loc 1 196 16 view .LVU181
 635 00a2 D6E7     		b	.L34
 636              	.LVL60:
 637              	.L51:
 244:TINYC256_192/falcon_cmd.c ****     }
 638              		.loc 1 244 16 view .LVU182
 639 00a4 4FF0FF30 		mov	r0, #-1
 640              	.LVL61:
 244:TINYC256_192/falcon_cmd.c ****     }
 641              		.loc 1 244 16 view .LVU183
 642 00a8 D3E7     		b	.L34
 643              		.cfi_endproc
 644              	.LFE165:
 646              		.section	.text.get_prop_image_params,"ax",%progbits
 647              		.align	1
 648              		.global	get_prop_image_params
 649              		.syntax unified
 650              		.thumb
 651              		.thumb_func
 653              	get_prop_image_params:
 654              	.LVL62:
 655              	.LFB166:
 248:TINYC256_192/falcon_cmd.c **** 
 249:TINYC256_192/falcon_cmd.c **** // get property page's image parameters
 250:TINYC256_192/falcon_cmd.c **** ir_error_t get_prop_image_params(enum prop_image_params image_param, uint16_t *value)
 251:TINYC256_192/falcon_cmd.c **** {
 656              		.loc 1 251 1 is_stmt 1 view -0
 657              		.cfi_startproc
 658              		@ args = 0, pretend = 0, frame = 24
 659              		@ frame_needed = 0, uses_anonymous_args = 0
 660              		.loc 1 251 1 is_stmt 0 view .LVU185
 661 0000 10B5     		push	{r4, lr}
 662              	.LCFI18:
 663              		.cfi_def_cfa_offset 8
 664              		.cfi_offset 4, -8
 665              		.cfi_offset 14, -4
 666 0002 88B0     		sub	sp, sp, #32
 667              	.LCFI19:
 668              		.cfi_def_cfa_offset 40
 669 0004 0C46     		mov	r4, r1
 252:TINYC256_192/falcon_cmd.c ****     ir_error_t rst;
 670              		.loc 1 252 5 is_stmt 1 view .LVU186
 253:TINYC256_192/falcon_cmd.c ****     uint8_t data[2] = {0};
 671              		.loc 1 253 5 view .LVU187
 672              		.loc 1 253 13 is_stmt 0 view .LVU188
 673 0006 0022     		movs	r2, #0
 674 0008 ADF81C20 		strh	r2, [sp, #28]	@ movhi
 254:TINYC256_192/falcon_cmd.c ****     uint16_t wParam = 0;
 675              		.loc 1 254 5 is_stmt 1 view .LVU189
 676              	.LVL63:
 255:TINYC256_192/falcon_cmd.c ****     uint32_t dwAddr1 = 0;
 677              		.loc 1 255 5 view .LVU190
 256:TINYC256_192/falcon_cmd.c ****     uint32_t dwAddr2 = 0;
 678              		.loc 1 256 5 view .LVU191
 257:TINYC256_192/falcon_cmd.c ****     vdcmd_long_header_t ptVdCmdHeader = {0};
 679              		.loc 1 257 5 view .LVU192
ARM GAS  C:\usertemp\ccDXhwvm.s 			page 18


 680              		.loc 1 257 25 is_stmt 0 view .LVU193
 681 000c 0392     		str	r2, [sp, #12]
 682 000e 0492     		str	r2, [sp, #16]
 683 0010 0592     		str	r2, [sp, #20]
 684 0012 0692     		str	r2, [sp, #24]
 258:TINYC256_192/falcon_cmd.c ****     ptVdCmdHeader.byCmdType = CMDTYPE_LONG_TYPE_PROP_PAGE;
 685              		.loc 1 258 5 is_stmt 1 view .LVU194
 686              		.loc 1 258 29 is_stmt 0 view .LVU195
 687 0014 1423     		movs	r3, #20
 688 0016 8DF80C30 		strb	r3, [sp, #12]
 259:TINYC256_192/falcon_cmd.c ****     ptVdCmdHeader.bySubCmd = SUBCMD_PROP_IMAGE_PARAM_GET;
 689              		.loc 1 259 5 is_stmt 1 view .LVU196
 690              		.loc 1 259 28 is_stmt 0 view .LVU197
 691 001a 8323     		movs	r3, #131
 692 001c 8DF80D30 		strb	r3, [sp, #13]
 260:TINYC256_192/falcon_cmd.c ****     wParam = image_param;
 693              		.loc 1 260 5 is_stmt 1 view .LVU198
 694              	.LVL64:
 261:TINYC256_192/falcon_cmd.c **** 
 262:TINYC256_192/falcon_cmd.c ****     rst = long_cmd_read(&ptVdCmdHeader, wParam, dwAddr1, dwAddr2, 2, data);
 695              		.loc 1 262 5 view .LVU199
 696              		.loc 1 262 11 is_stmt 0 view .LVU200
 697 0020 07AB     		add	r3, sp, #28
 698 0022 0193     		str	r3, [sp, #4]
 699 0024 0223     		movs	r3, #2
 700 0026 0093     		str	r3, [sp]
 701 0028 1346     		mov	r3, r2
 702 002a 0146     		mov	r1, r0
 703              	.LVL65:
 704              		.loc 1 262 11 view .LVU201
 705 002c 03A8     		add	r0, sp, #12
 706              	.LVL66:
 707              		.loc 1 262 11 view .LVU202
 708 002e FFF7FEFF 		bl	long_cmd_read
 709              	.LVL67:
 263:TINYC256_192/falcon_cmd.c ****     *value = ((uint16_t)data[0] << 8) + data[1];
 710              		.loc 1 263 5 is_stmt 1 view .LVU203
 711              		.loc 1 263 29 is_stmt 0 view .LVU204
 712 0032 9DF81C20 		ldrb	r2, [sp, #28]	@ zero_extendqisi2
 713              		.loc 1 263 45 view .LVU205
 714 0036 9DF81D30 		ldrb	r3, [sp, #29]	@ zero_extendqisi2
 715              		.loc 1 263 39 view .LVU206
 716 003a 03EB0223 		add	r3, r3, r2, lsl #8
 717              		.loc 1 263 12 view .LVU207
 718 003e 2380     		strh	r3, [r4]	@ movhi
 264:TINYC256_192/falcon_cmd.c **** 
 265:TINYC256_192/falcon_cmd.c ****     return rst;
 719              		.loc 1 265 5 is_stmt 1 view .LVU208
 266:TINYC256_192/falcon_cmd.c **** }
 720              		.loc 1 266 1 is_stmt 0 view .LVU209
 721 0040 08B0     		add	sp, sp, #32
 722              	.LCFI20:
 723              		.cfi_def_cfa_offset 8
 724              		@ sp needed
 725 0042 10BD     		pop	{r4, pc}
 726              		.loc 1 266 1 view .LVU210
 727              		.cfi_endproc
ARM GAS  C:\usertemp\ccDXhwvm.s 			page 19


 728              	.LFE166:
 730              		.section	.text.set_prop_tpd_params,"ax",%progbits
 731              		.align	1
 732              		.global	set_prop_tpd_params
 733              		.syntax unified
 734              		.thumb
 735              		.thumb_func
 737              	set_prop_tpd_params:
 738              	.LVL68:
 739              	.LFB167:
 267:TINYC256_192/falcon_cmd.c **** 
 268:TINYC256_192/falcon_cmd.c **** // set property page's tpd parameters
 269:TINYC256_192/falcon_cmd.c **** ir_error_t set_prop_tpd_params(enum prop_tpd_params tpd_param, uint16_t value)
 270:TINYC256_192/falcon_cmd.c **** {
 740              		.loc 1 270 1 is_stmt 1 view -0
 741              		.cfi_startproc
 742              		@ args = 0, pretend = 0, frame = 16
 743              		@ frame_needed = 0, uses_anonymous_args = 0
 744              		.loc 1 270 1 is_stmt 0 view .LVU212
 745 0000 00B5     		push	{lr}
 746              	.LCFI21:
 747              		.cfi_def_cfa_offset 4
 748              		.cfi_offset 14, -4
 749 0002 87B0     		sub	sp, sp, #28
 750              	.LCFI22:
 751              		.cfi_def_cfa_offset 32
 752 0004 0A46     		mov	r2, r1
 271:TINYC256_192/falcon_cmd.c ****     uint16_t wParam = 0;
 753              		.loc 1 271 5 is_stmt 1 view .LVU213
 754              	.LVL69:
 272:TINYC256_192/falcon_cmd.c ****     uint32_t dwAddr1 = 0;
 755              		.loc 1 272 5 view .LVU214
 273:TINYC256_192/falcon_cmd.c ****     uint32_t dwAddr2 = 0;
 756              		.loc 1 273 5 view .LVU215
 274:TINYC256_192/falcon_cmd.c ****     vdcmd_long_header_t ptVdCmdHeader = {0};
 757              		.loc 1 274 5 view .LVU216
 758              		.loc 1 274 25 is_stmt 0 view .LVU217
 759 0006 0023     		movs	r3, #0
 760 0008 0293     		str	r3, [sp, #8]
 761 000a 0393     		str	r3, [sp, #12]
 762 000c 0493     		str	r3, [sp, #16]
 763 000e 0593     		str	r3, [sp, #20]
 275:TINYC256_192/falcon_cmd.c ****     ptVdCmdHeader.byCmdType = CMDTYPE_LONG_TYPE_PROP_PAGE;
 764              		.loc 1 275 5 is_stmt 1 view .LVU218
 765              		.loc 1 275 29 is_stmt 0 view .LVU219
 766 0010 1423     		movs	r3, #20
 767 0012 8DF80830 		strb	r3, [sp, #8]
 276:TINYC256_192/falcon_cmd.c ****     ptVdCmdHeader.bySubCmd = SUBCMD_PROP_TPD_PARAM_SET;
 768              		.loc 1 276 5 is_stmt 1 view .LVU220
 769              		.loc 1 276 28 is_stmt 0 view .LVU221
 770 0016 C523     		movs	r3, #197
 771 0018 8DF80930 		strb	r3, [sp, #9]
 277:TINYC256_192/falcon_cmd.c ****     wParam = tpd_param;
 772              		.loc 1 277 5 is_stmt 1 view .LVU222
 773              	.LVL70:
 278:TINYC256_192/falcon_cmd.c ****     dwAddr1 = (uint32_t)value;
 774              		.loc 1 278 5 view .LVU223
ARM GAS  C:\usertemp\ccDXhwvm.s 			page 20


 279:TINYC256_192/falcon_cmd.c ****     if ((tpd_param == TPD_PROP_DISTANCE) && (value > TPD_PARAM_DIST_MAX))
 775              		.loc 1 279 5 view .LVU224
 776              		.loc 1 279 8 is_stmt 0 view .LVU225
 777 001c 0146     		mov	r1, r0
 778              	.LVL71:
 779              		.loc 1 279 8 view .LVU226
 780 001e 10B9     		cbnz	r0, .L63
 781              		.loc 1 279 42 discriminator 1 view .LVU227
 782 0020 12F4004F 		tst	r2, #32768
 783 0024 2ED1     		bne	.L69
 784              	.L63:
 280:TINYC256_192/falcon_cmd.c ****     {
 281:TINYC256_192/falcon_cmd.c ****         // printf("parameter DISTANCE out of range\r\n");
 282:TINYC256_192/falcon_cmd.c ****         return IR_ERROR_PARAM;
 283:TINYC256_192/falcon_cmd.c ****     }
 284:TINYC256_192/falcon_cmd.c **** 
 285:TINYC256_192/falcon_cmd.c ****     if ((tpd_param == TPD_PROP_TU) && ((value < TPD_PARAM_TU_MIN) || (value > TPD_PARAM_TU_MAX)))
 785              		.loc 1 285 5 is_stmt 1 view .LVU228
 786              		.loc 1 285 8 is_stmt 0 view .LVU229
 787 0026 0129     		cmp	r1, #1
 788 0028 11D0     		beq	.L75
 789              	.LVL72:
 790              	.L65:
 286:TINYC256_192/falcon_cmd.c ****     {
 287:TINYC256_192/falcon_cmd.c ****         // printf("parameter TU out of range\r\n");
 288:TINYC256_192/falcon_cmd.c ****         return IR_ERROR_PARAM;
 289:TINYC256_192/falcon_cmd.c ****     }
 290:TINYC256_192/falcon_cmd.c **** 
 291:TINYC256_192/falcon_cmd.c ****     if ((tpd_param == TPD_PROP_TA) && ((value < TPD_PARAM_TA_MIN) || (value > TPD_PARAM_TA_MAX)))
 791              		.loc 1 291 5 is_stmt 1 view .LVU230
 792              		.loc 1 291 8 is_stmt 0 view .LVU231
 793 002a 0229     		cmp	r1, #2
 794 002c 19D0     		beq	.L76
 795              	.L66:
 292:TINYC256_192/falcon_cmd.c ****     {
 293:TINYC256_192/falcon_cmd.c ****         // printf("parameter TA out of range\r\n");
 294:TINYC256_192/falcon_cmd.c ****         return IR_ERROR_PARAM;
 295:TINYC256_192/falcon_cmd.c ****     }
 296:TINYC256_192/falcon_cmd.c **** 
 297:TINYC256_192/falcon_cmd.c ****     if ((tpd_param == TPD_PROP_EMS) && ((value < TPD_PARAM_EMS_MIN) || (value > TPD_PARAM_EMS_MAX))
 796              		.loc 1 297 5 is_stmt 1 view .LVU232
 797              		.loc 1 297 8 is_stmt 0 view .LVU233
 798 002e 0329     		cmp	r1, #3
 799 0030 21D0     		beq	.L77
 800              	.L67:
 298:TINYC256_192/falcon_cmd.c ****     {
 299:TINYC256_192/falcon_cmd.c ****         // printf("parameter EMS out of range\r\n");
 300:TINYC256_192/falcon_cmd.c ****         return IR_ERROR_PARAM;
 301:TINYC256_192/falcon_cmd.c ****     }
 302:TINYC256_192/falcon_cmd.c **** 
 303:TINYC256_192/falcon_cmd.c ****     if ((tpd_param == TPD_PROP_TAU) && ((value < TPD_PARAM_TAU_MIN) || (value > TPD_PARAM_TAU_MAX))
 801              		.loc 1 303 5 is_stmt 1 view .LVU234
 802              		.loc 1 303 8 is_stmt 0 view .LVU235
 803 0032 0429     		cmp	r1, #4
 804 0034 03D1     		bne	.L68
 805              		.loc 1 303 69 discriminator 1 view .LVU236
 806 0036 531E     		subs	r3, r2, #1
ARM GAS  C:\usertemp\ccDXhwvm.s 			page 21


 807 0038 9BB2     		uxth	r3, r3
 808              		.loc 1 303 37 discriminator 1 view .LVU237
 809 003a 7F2B     		cmp	r3, #127
 810 003c 25D8     		bhi	.L73
 811              	.L68:
 304:TINYC256_192/falcon_cmd.c ****     {
 305:TINYC256_192/falcon_cmd.c ****         // printf("parameter TAU out of range\r\n");
 306:TINYC256_192/falcon_cmd.c ****         return IR_ERROR_PARAM;
 307:TINYC256_192/falcon_cmd.c ****     }
 308:TINYC256_192/falcon_cmd.c **** 
 309:TINYC256_192/falcon_cmd.c ****     return long_cmd_write(&ptVdCmdHeader, wParam, dwAddr1, dwAddr2, 0);
 812              		.loc 1 309 5 is_stmt 1 view .LVU238
 813              		.loc 1 309 12 is_stmt 0 view .LVU239
 814 003e 0023     		movs	r3, #0
 815 0040 0093     		str	r3, [sp]
 816 0042 02A8     		add	r0, sp, #8
 817 0044 FFF7FEFF 		bl	long_cmd_write
 818              	.LVL73:
 819              	.L64:
 310:TINYC256_192/falcon_cmd.c **** }
 820              		.loc 1 310 1 view .LVU240
 821 0048 07B0     		add	sp, sp, #28
 822              	.LCFI23:
 823              		.cfi_remember_state
 824              		.cfi_def_cfa_offset 4
 825              		@ sp needed
 826 004a 5DF804FB 		ldr	pc, [sp], #4
 827              	.LVL74:
 828              	.L75:
 829              	.LCFI24:
 830              		.cfi_restore_state
 285:TINYC256_192/falcon_cmd.c ****     {
 831              		.loc 1 285 67 discriminator 1 view .LVU241
 832 004e A2F1E603 		sub	r3, r2, #230
 833 0052 9BB2     		uxth	r3, r3
 285:TINYC256_192/falcon_cmd.c ****     {
 834              		.loc 1 285 36 discriminator 1 view .LVU242
 835 0054 40F29E20 		movw	r0, #670
 836              	.LVL75:
 285:TINYC256_192/falcon_cmd.c ****     {
 837              		.loc 1 285 36 discriminator 1 view .LVU243
 838 0058 8342     		cmp	r3, r0
 839 005a E6D9     		bls	.L65
 288:TINYC256_192/falcon_cmd.c ****     }
 840              		.loc 1 288 16 view .LVU244
 841 005c 4FF0FF30 		mov	r0, #-1
 842 0060 F2E7     		b	.L64
 843              	.L76:
 291:TINYC256_192/falcon_cmd.c ****     {
 844              		.loc 1 291 67 discriminator 1 view .LVU245
 845 0062 A2F1E603 		sub	r3, r2, #230
 846 0066 9BB2     		uxth	r3, r3
 291:TINYC256_192/falcon_cmd.c ****     {
 847              		.loc 1 291 36 discriminator 1 view .LVU246
 848 0068 40F29E20 		movw	r0, #670
 849 006c 8342     		cmp	r3, r0
 850 006e DED9     		bls	.L66
ARM GAS  C:\usertemp\ccDXhwvm.s 			page 22


 294:TINYC256_192/falcon_cmd.c ****     }
 851              		.loc 1 294 16 view .LVU247
 852 0070 4FF0FF30 		mov	r0, #-1
 853 0074 E8E7     		b	.L64
 854              	.L77:
 297:TINYC256_192/falcon_cmd.c ****     {
 855              		.loc 1 297 69 discriminator 1 view .LVU248
 856 0076 531E     		subs	r3, r2, #1
 857 0078 9BB2     		uxth	r3, r3
 297:TINYC256_192/falcon_cmd.c ****     {
 858              		.loc 1 297 37 discriminator 1 view .LVU249
 859 007a 7F2B     		cmp	r3, #127
 860 007c D9D9     		bls	.L67
 300:TINYC256_192/falcon_cmd.c ****     }
 861              		.loc 1 300 16 view .LVU250
 862 007e 4FF0FF30 		mov	r0, #-1
 863 0082 E1E7     		b	.L64
 864              	.LVL76:
 865              	.L69:
 282:TINYC256_192/falcon_cmd.c ****     }
 866              		.loc 1 282 16 view .LVU251
 867 0084 4FF0FF30 		mov	r0, #-1
 868              	.LVL77:
 282:TINYC256_192/falcon_cmd.c ****     }
 869              		.loc 1 282 16 view .LVU252
 870 0088 DEE7     		b	.L64
 871              	.L73:
 306:TINYC256_192/falcon_cmd.c ****     }
 872              		.loc 1 306 16 view .LVU253
 873 008a 4FF0FF30 		mov	r0, #-1
 874 008e DBE7     		b	.L64
 875              		.cfi_endproc
 876              	.LFE167:
 878              		.section	.text.get_prop_tpd_params,"ax",%progbits
 879              		.align	1
 880              		.global	get_prop_tpd_params
 881              		.syntax unified
 882              		.thumb
 883              		.thumb_func
 885              	get_prop_tpd_params:
 886              	.LVL78:
 887              	.LFB168:
 311:TINYC256_192/falcon_cmd.c **** 
 312:TINYC256_192/falcon_cmd.c **** // get property page's tpd parameters
 313:TINYC256_192/falcon_cmd.c **** ir_error_t get_prop_tpd_params(enum prop_tpd_params tpd_param, uint16_t *value)
 314:TINYC256_192/falcon_cmd.c **** {
 888              		.loc 1 314 1 is_stmt 1 view -0
 889              		.cfi_startproc
 890              		@ args = 0, pretend = 0, frame = 24
 891              		@ frame_needed = 0, uses_anonymous_args = 0
 892              		.loc 1 314 1 is_stmt 0 view .LVU255
 893 0000 10B5     		push	{r4, lr}
 894              	.LCFI25:
 895              		.cfi_def_cfa_offset 8
 896              		.cfi_offset 4, -8
 897              		.cfi_offset 14, -4
 898 0002 88B0     		sub	sp, sp, #32
ARM GAS  C:\usertemp\ccDXhwvm.s 			page 23


 899              	.LCFI26:
 900              		.cfi_def_cfa_offset 40
 901 0004 0C46     		mov	r4, r1
 315:TINYC256_192/falcon_cmd.c ****     ir_error_t rst;
 902              		.loc 1 315 5 is_stmt 1 view .LVU256
 316:TINYC256_192/falcon_cmd.c ****     uint8_t data[2] = {0};
 903              		.loc 1 316 5 view .LVU257
 904              		.loc 1 316 13 is_stmt 0 view .LVU258
 905 0006 0023     		movs	r3, #0
 906 0008 ADF81C30 		strh	r3, [sp, #28]	@ movhi
 317:TINYC256_192/falcon_cmd.c ****     uint16_t wParam = 0;
 907              		.loc 1 317 5 is_stmt 1 view .LVU259
 908              	.LVL79:
 318:TINYC256_192/falcon_cmd.c ****     uint32_t dwAddr1 = 0;
 909              		.loc 1 318 5 view .LVU260
 319:TINYC256_192/falcon_cmd.c ****     uint32_t dwAddr2 = 0;
 910              		.loc 1 319 5 view .LVU261
 320:TINYC256_192/falcon_cmd.c ****     vdcmd_long_header_t ptVdCmdHeader = {0};
 911              		.loc 1 320 5 view .LVU262
 912              		.loc 1 320 25 is_stmt 0 view .LVU263
 913 000c 0393     		str	r3, [sp, #12]
 914 000e 0493     		str	r3, [sp, #16]
 915 0010 0593     		str	r3, [sp, #20]
 916 0012 0693     		str	r3, [sp, #24]
 321:TINYC256_192/falcon_cmd.c ****     if (tpd_param == TPD_PROP_DIST_COR_FACT)
 917              		.loc 1 321 5 is_stmt 1 view .LVU264
 918              		.loc 1 321 8 is_stmt 0 view .LVU265
 919 0014 0628     		cmp	r0, #6
 920 0016 1CD0     		beq	.L83
 322:TINYC256_192/falcon_cmd.c ****     {
 323:TINYC256_192/falcon_cmd.c ****         *value = 0;
 324:TINYC256_192/falcon_cmd.c ****         // printf("error parameter\n");
 325:TINYC256_192/falcon_cmd.c ****         return IR_ERROR_PARAM;
 326:TINYC256_192/falcon_cmd.c ****     }
 327:TINYC256_192/falcon_cmd.c ****     else if ((tpd_param == TPD_PROP_ENV_CORRECT_SEL) || (tpd_param == TPD_PROP_DIST_CORRECT_SEL) ||
 921              		.loc 1 327 10 is_stmt 1 view .LVU266
 922              		.loc 1 327 98 is_stmt 0 view .LVU267
 923 0018 C31F     		subs	r3, r0, #7
 924 001a DBB2     		uxtb	r3, r3
 925              		.loc 1 327 13 view .LVU268
 926 001c 022B     		cmp	r3, #2
 927 001e 1CD9     		bls	.L84
 328:TINYC256_192/falcon_cmd.c ****              (tpd_param == TPD_PROP_TEMP_MAP_SEL))
 329:TINYC256_192/falcon_cmd.c ****     {
 330:TINYC256_192/falcon_cmd.c ****         *value = 1;
 331:TINYC256_192/falcon_cmd.c ****         // printf("error parameter\n");
 332:TINYC256_192/falcon_cmd.c ****         return IR_ERROR_PARAM;
 333:TINYC256_192/falcon_cmd.c ****     }
 334:TINYC256_192/falcon_cmd.c ****     ptVdCmdHeader.byCmdType = CMDTYPE_LONG_TYPE_PROP_PAGE;
 928              		.loc 1 334 5 is_stmt 1 view .LVU269
 929              		.loc 1 334 29 is_stmt 0 view .LVU270
 930 0020 1423     		movs	r3, #20
 931 0022 8DF80C30 		strb	r3, [sp, #12]
 335:TINYC256_192/falcon_cmd.c ****     ptVdCmdHeader.bySubCmd = SUBCMD_PROP_TPD_PARAM_GET;
 932              		.loc 1 335 5 is_stmt 1 view .LVU271
 933              		.loc 1 335 28 is_stmt 0 view .LVU272
 934 0026 8523     		movs	r3, #133
ARM GAS  C:\usertemp\ccDXhwvm.s 			page 24


 935 0028 8DF80D30 		strb	r3, [sp, #13]
 336:TINYC256_192/falcon_cmd.c ****     wParam = tpd_param;
 936              		.loc 1 336 5 is_stmt 1 view .LVU273
 937              	.LVL80:
 337:TINYC256_192/falcon_cmd.c **** 
 338:TINYC256_192/falcon_cmd.c ****     rst = long_cmd_read(&ptVdCmdHeader, wParam, dwAddr1, dwAddr2, 2, data);
 938              		.loc 1 338 5 view .LVU274
 939              		.loc 1 338 11 is_stmt 0 view .LVU275
 940 002c 07AB     		add	r3, sp, #28
 941 002e 0193     		str	r3, [sp, #4]
 942 0030 0223     		movs	r3, #2
 943 0032 0093     		str	r3, [sp]
 944 0034 0023     		movs	r3, #0
 945 0036 1A46     		mov	r2, r3
 946 0038 0146     		mov	r1, r0
 947              	.LVL81:
 948              		.loc 1 338 11 view .LVU276
 949 003a 03A8     		add	r0, sp, #12
 950              	.LVL82:
 951              		.loc 1 338 11 view .LVU277
 952 003c FFF7FEFF 		bl	long_cmd_read
 953              	.LVL83:
 339:TINYC256_192/falcon_cmd.c ****     *value = ((uint16_t)data[0] << 8) + data[1];
 954              		.loc 1 339 5 is_stmt 1 view .LVU278
 955              		.loc 1 339 29 is_stmt 0 view .LVU279
 956 0040 9DF81C20 		ldrb	r2, [sp, #28]	@ zero_extendqisi2
 957              		.loc 1 339 45 view .LVU280
 958 0044 9DF81D30 		ldrb	r3, [sp, #29]	@ zero_extendqisi2
 959              		.loc 1 339 39 view .LVU281
 960 0048 03EB0223 		add	r3, r3, r2, lsl #8
 961              		.loc 1 339 12 view .LVU282
 962 004c 2380     		strh	r3, [r4]	@ movhi
 340:TINYC256_192/falcon_cmd.c ****     return rst;
 963              		.loc 1 340 5 is_stmt 1 view .LVU283
 964              	.LVL84:
 965              	.L80:
 341:TINYC256_192/falcon_cmd.c **** }
 966              		.loc 1 341 1 is_stmt 0 view .LVU284
 967 004e 08B0     		add	sp, sp, #32
 968              	.LCFI27:
 969              		.cfi_remember_state
 970              		.cfi_def_cfa_offset 8
 971              		@ sp needed
 972 0050 10BD     		pop	{r4, pc}
 973              	.LVL85:
 974              	.L83:
 975              	.LCFI28:
 976              		.cfi_restore_state
 323:TINYC256_192/falcon_cmd.c ****         // printf("error parameter\n");
 977              		.loc 1 323 9 is_stmt 1 view .LVU285
 323:TINYC256_192/falcon_cmd.c ****         // printf("error parameter\n");
 978              		.loc 1 323 16 is_stmt 0 view .LVU286
 979 0052 0B80     		strh	r3, [r1]	@ movhi
 325:TINYC256_192/falcon_cmd.c ****     }
 980              		.loc 1 325 9 is_stmt 1 view .LVU287
 325:TINYC256_192/falcon_cmd.c ****     }
 981              		.loc 1 325 16 is_stmt 0 view .LVU288
ARM GAS  C:\usertemp\ccDXhwvm.s 			page 25


 982 0054 4FF0FF30 		mov	r0, #-1
 983              	.LVL86:
 325:TINYC256_192/falcon_cmd.c ****     }
 984              		.loc 1 325 16 view .LVU289
 985 0058 F9E7     		b	.L80
 986              	.LVL87:
 987              	.L84:
 330:TINYC256_192/falcon_cmd.c ****         // printf("error parameter\n");
 988              		.loc 1 330 9 is_stmt 1 view .LVU290
 330:TINYC256_192/falcon_cmd.c ****         // printf("error parameter\n");
 989              		.loc 1 330 16 is_stmt 0 view .LVU291
 990 005a 0123     		movs	r3, #1
 991 005c 0B80     		strh	r3, [r1]	@ movhi
 332:TINYC256_192/falcon_cmd.c ****     }
 992              		.loc 1 332 9 is_stmt 1 view .LVU292
 332:TINYC256_192/falcon_cmd.c ****     }
 993              		.loc 1 332 16 is_stmt 0 view .LVU293
 994 005e 4FF0FF30 		mov	r0, #-1
 995              	.LVL88:
 332:TINYC256_192/falcon_cmd.c ****     }
 996              		.loc 1 332 16 view .LVU294
 997 0062 F4E7     		b	.L80
 998              		.cfi_endproc
 999              	.LFE168:
 1001              		.section	.text.get_device_info,"ax",%progbits
 1002              		.align	1
 1003              		.global	get_device_info
 1004              		.syntax unified
 1005              		.thumb
 1006              		.thumb_func
 1008              	get_device_info:
 1009              	.LVL89:
 1010              	.LFB169:
 342:TINYC256_192/falcon_cmd.c **** 
 343:TINYC256_192/falcon_cmd.c **** // get device info
 344:TINYC256_192/falcon_cmd.c **** ir_error_t get_device_info(enum device_id_types id_type, uint8_t *id_content)
 345:TINYC256_192/falcon_cmd.c **** {
 1011              		.loc 1 345 1 is_stmt 1 view -0
 1012              		.cfi_startproc
 1013              		@ args = 0, pretend = 0, frame = 8
 1014              		@ frame_needed = 0, uses_anonymous_args = 0
 1015              		.loc 1 345 1 is_stmt 0 view .LVU296
 1016 0000 00B5     		push	{lr}
 1017              	.LCFI29:
 1018              		.cfi_def_cfa_offset 4
 1019              		.cfi_offset 14, -4
 1020 0002 83B0     		sub	sp, sp, #12
 1021              	.LCFI30:
 1022              		.cfi_def_cfa_offset 16
 346:TINYC256_192/falcon_cmd.c ****     uint16_t wTmpLen = 64;
 1023              		.loc 1 346 5 is_stmt 1 view .LVU297
 1024              	.LVL90:
 347:TINYC256_192/falcon_cmd.c ****     vdcmd_std_header_t ptVdCmdHeader = {0};
 1025              		.loc 1 347 5 view .LVU298
 1026              		.loc 1 347 24 is_stmt 0 view .LVU299
 1027 0004 0023     		movs	r3, #0
 1028 0006 0093     		str	r3, [sp]
ARM GAS  C:\usertemp\ccDXhwvm.s 			page 26


 1029 0008 0193     		str	r3, [sp, #4]
 348:TINYC256_192/falcon_cmd.c **** 
 349:TINYC256_192/falcon_cmd.c ****     if (id_content == NULL)
 1030              		.loc 1 349 5 is_stmt 1 view .LVU300
 1031              		.loc 1 349 8 is_stmt 0 view .LVU301
 1032 000a 79B1     		cbz	r1, .L87
 1033 000c 0A46     		mov	r2, r1
 350:TINYC256_192/falcon_cmd.c ****     {
 351:TINYC256_192/falcon_cmd.c ****         // printf("parameter error\n");
 352:TINYC256_192/falcon_cmd.c ****         return IR_ERROR_PARAM;
 353:TINYC256_192/falcon_cmd.c ****     }
 354:TINYC256_192/falcon_cmd.c **** 
 355:TINYC256_192/falcon_cmd.c ****     ptVdCmdHeader.byCmdType = CMDTYPE_STANDARD_TYPE_SYS;
 1034              		.loc 1 355 5 is_stmt 1 view .LVU302
 1035              		.loc 1 355 29 is_stmt 0 view .LVU303
 1036 000e 0523     		movs	r3, #5
 1037 0010 8DF80030 		strb	r3, [sp]
 356:TINYC256_192/falcon_cmd.c ****     ptVdCmdHeader.bySubCmd = SUBCMD_SYS_DEV_INFO_GET;
 1038              		.loc 1 356 5 is_stmt 1 view .LVU304
 1039              		.loc 1 356 28 is_stmt 0 view .LVU305
 1040 0014 8423     		movs	r3, #132
 1041 0016 8DF80130 		strb	r3, [sp, #1]
 357:TINYC256_192/falcon_cmd.c ****     ptVdCmdHeader.byPara = id_type;
 1042              		.loc 1 357 5 is_stmt 1 view .LVU306
 1043              		.loc 1 357 26 is_stmt 0 view .LVU307
 1044 001a 8DF80200 		strb	r0, [sp, #2]
 358:TINYC256_192/falcon_cmd.c **** 
 359:TINYC256_192/falcon_cmd.c ****     return standard_cmd_read(&ptVdCmdHeader, wTmpLen, id_content);
 1045              		.loc 1 359 5 is_stmt 1 view .LVU308
 1046              		.loc 1 359 12 is_stmt 0 view .LVU309
 1047 001e 4021     		movs	r1, #64
 1048              	.LVL91:
 1049              		.loc 1 359 12 view .LVU310
 1050 0020 6846     		mov	r0, sp
 1051              	.LVL92:
 1052              		.loc 1 359 12 view .LVU311
 1053 0022 FFF7FEFF 		bl	standard_cmd_read
 1054              	.LVL93:
 1055              	.L86:
 360:TINYC256_192/falcon_cmd.c **** }
 1056              		.loc 1 360 1 view .LVU312
 1057 0026 03B0     		add	sp, sp, #12
 1058              	.LCFI31:
 1059              		.cfi_remember_state
 1060              		.cfi_def_cfa_offset 4
 1061              		@ sp needed
 1062 0028 5DF804FB 		ldr	pc, [sp], #4
 1063              	.LVL94:
 1064              	.L87:
 1065              	.LCFI32:
 1066              		.cfi_restore_state
 352:TINYC256_192/falcon_cmd.c ****     }
 1067              		.loc 1 352 16 view .LVU313
 1068 002c 4FF0FF30 		mov	r0, #-1
 1069              	.LVL95:
 352:TINYC256_192/falcon_cmd.c ****     }
 1070              		.loc 1 352 16 view .LVU314
ARM GAS  C:\usertemp\ccDXhwvm.s 			page 27


 1071 0030 F9E7     		b	.L86
 1072              		.cfi_endproc
 1073              	.LFE169:
 1075              		.section	.text.y16_preview_start,"ax",%progbits
 1076              		.align	1
 1077              		.global	y16_preview_start
 1078              		.syntax unified
 1079              		.thumb
 1080              		.thumb_func
 1082              	y16_preview_start:
 1083              	.LVL96:
 1084              	.LFB170:
 361:TINYC256_192/falcon_cmd.c **** 
 362:TINYC256_192/falcon_cmd.c **** // switch to y16 mode
 363:TINYC256_192/falcon_cmd.c **** ir_error_t y16_preview_start(enum preview_path path, enum y16_isp_stream_src_types src_type)
 364:TINYC256_192/falcon_cmd.c **** {
 1085              		.loc 1 364 1 is_stmt 1 view -0
 1086              		.cfi_startproc
 1087              		@ args = 0, pretend = 0, frame = 8
 1088              		@ frame_needed = 0, uses_anonymous_args = 0
 1089              		.loc 1 364 1 is_stmt 0 view .LVU316
 1090 0000 00B5     		push	{lr}
 1091              	.LCFI33:
 1092              		.cfi_def_cfa_offset 4
 1093              		.cfi_offset 14, -4
 1094 0002 83B0     		sub	sp, sp, #12
 1095              	.LCFI34:
 1096              		.cfi_def_cfa_offset 16
 365:TINYC256_192/falcon_cmd.c ****     uint16_t wTmpLen = 0;
 1097              		.loc 1 365 5 is_stmt 1 view .LVU317
 1098              	.LVL97:
 366:TINYC256_192/falcon_cmd.c ****     vdcmd_std_header_t ptVdCmdHeader = {0};
 1099              		.loc 1 366 5 view .LVU318
 1100              		.loc 1 366 24 is_stmt 0 view .LVU319
 1101 0004 0022     		movs	r2, #0
 1102 0006 0092     		str	r2, [sp]
 1103 0008 0192     		str	r2, [sp, #4]
 367:TINYC256_192/falcon_cmd.c ****     ptVdCmdHeader.byCmdType = CMDTYPE_STANDARD_TYPE_Y16_MODE;
 1104              		.loc 1 367 5 is_stmt 1 view .LVU320
 1105              		.loc 1 367 29 is_stmt 0 view .LVU321
 1106 000a 0A23     		movs	r3, #10
 1107 000c 8DF80030 		strb	r3, [sp]
 368:TINYC256_192/falcon_cmd.c ****     ptVdCmdHeader.bySubCmd = SUBCMD_Y16_MODE_PREVIEW_START;
 1108              		.loc 1 368 5 is_stmt 1 view .LVU322
 1109              		.loc 1 368 28 is_stmt 0 view .LVU323
 1110 0010 0123     		movs	r3, #1
 1111 0012 8DF80130 		strb	r3, [sp, #1]
 369:TINYC256_192/falcon_cmd.c ****     ptVdCmdHeader.byPara = path;
 1112              		.loc 1 369 5 is_stmt 1 view .LVU324
 1113              		.loc 1 369 26 is_stmt 0 view .LVU325
 1114 0016 8DF80200 		strb	r0, [sp, #2]
 370:TINYC256_192/falcon_cmd.c ****     ptVdCmdHeader.byAddr_ll = src_type;
 1115              		.loc 1 370 5 is_stmt 1 view .LVU326
 1116              		.loc 1 370 29 is_stmt 0 view .LVU327
 1117 001a 8DF80510 		strb	r1, [sp, #5]
 371:TINYC256_192/falcon_cmd.c **** 
 372:TINYC256_192/falcon_cmd.c ****     return standard_cmd_write(&ptVdCmdHeader, wTmpLen, NULL);
ARM GAS  C:\usertemp\ccDXhwvm.s 			page 28


 1118              		.loc 1 372 5 is_stmt 1 view .LVU328
 1119              		.loc 1 372 12 is_stmt 0 view .LVU329
 1120 001e 1146     		mov	r1, r2
 1121              	.LVL98:
 1122              		.loc 1 372 12 view .LVU330
 1123 0020 6846     		mov	r0, sp
 1124              	.LVL99:
 1125              		.loc 1 372 12 view .LVU331
 1126 0022 FFF7FEFF 		bl	standard_cmd_write
 1127              	.LVL100:
 373:TINYC256_192/falcon_cmd.c **** }
 1128              		.loc 1 373 1 view .LVU332
 1129 0026 03B0     		add	sp, sp, #12
 1130              	.LCFI35:
 1131              		.cfi_def_cfa_offset 4
 1132              		@ sp needed
 1133 0028 5DF804FB 		ldr	pc, [sp], #4
 1134              		.cfi_endproc
 1135              	.LFE170:
 1137              		.section	.text.y16_preview_stop,"ax",%progbits
 1138              		.align	1
 1139              		.global	y16_preview_stop
 1140              		.syntax unified
 1141              		.thumb
 1142              		.thumb_func
 1144              	y16_preview_stop:
 1145              	.LVL101:
 1146              	.LFB171:
 374:TINYC256_192/falcon_cmd.c **** 
 375:TINYC256_192/falcon_cmd.c **** // quit y16 mode
 376:TINYC256_192/falcon_cmd.c **** ir_error_t y16_preview_stop(enum preview_path path)
 377:TINYC256_192/falcon_cmd.c **** {
 1147              		.loc 1 377 1 is_stmt 1 view -0
 1148              		.cfi_startproc
 1149              		@ args = 0, pretend = 0, frame = 8
 1150              		@ frame_needed = 0, uses_anonymous_args = 0
 1151              		.loc 1 377 1 is_stmt 0 view .LVU334
 1152 0000 00B5     		push	{lr}
 1153              	.LCFI36:
 1154              		.cfi_def_cfa_offset 4
 1155              		.cfi_offset 14, -4
 1156 0002 83B0     		sub	sp, sp, #12
 1157              	.LCFI37:
 1158              		.cfi_def_cfa_offset 16
 378:TINYC256_192/falcon_cmd.c ****     uint16_t wTmpLen = 0;
 1159              		.loc 1 378 5 is_stmt 1 view .LVU335
 1160              	.LVL102:
 379:TINYC256_192/falcon_cmd.c ****     vdcmd_std_header_t ptVdCmdHeader = {0};
 1161              		.loc 1 379 5 view .LVU336
 1162              		.loc 1 379 24 is_stmt 0 view .LVU337
 1163 0004 0021     		movs	r1, #0
 1164 0006 0091     		str	r1, [sp]
 1165 0008 0191     		str	r1, [sp, #4]
 380:TINYC256_192/falcon_cmd.c ****     ptVdCmdHeader.byCmdType = CMDTYPE_STANDARD_TYPE_Y16_MODE;
 1166              		.loc 1 380 5 is_stmt 1 view .LVU338
 1167              		.loc 1 380 29 is_stmt 0 view .LVU339
 1168 000a 0A23     		movs	r3, #10
ARM GAS  C:\usertemp\ccDXhwvm.s 			page 29


 1169 000c 8DF80030 		strb	r3, [sp]
 381:TINYC256_192/falcon_cmd.c ****     ptVdCmdHeader.bySubCmd = SUBCMD_Y16_MODE_PREVIEW_STOP;
 1170              		.loc 1 381 5 is_stmt 1 view .LVU340
 1171              		.loc 1 381 28 is_stmt 0 view .LVU341
 1172 0010 0223     		movs	r3, #2
 1173 0012 8DF80130 		strb	r3, [sp, #1]
 382:TINYC256_192/falcon_cmd.c ****     ptVdCmdHeader.byPara = path;
 1174              		.loc 1 382 5 is_stmt 1 view .LVU342
 1175              		.loc 1 382 26 is_stmt 0 view .LVU343
 1176 0016 8DF80200 		strb	r0, [sp, #2]
 383:TINYC256_192/falcon_cmd.c **** 
 384:TINYC256_192/falcon_cmd.c ****     return standard_cmd_write(&ptVdCmdHeader, wTmpLen, NULL);
 1177              		.loc 1 384 5 is_stmt 1 view .LVU344
 1178              		.loc 1 384 12 is_stmt 0 view .LVU345
 1179 001a 0A46     		mov	r2, r1
 1180 001c 6846     		mov	r0, sp
 1181              	.LVL103:
 1182              		.loc 1 384 12 view .LVU346
 1183 001e FFF7FEFF 		bl	standard_cmd_write
 1184              	.LVL104:
 385:TINYC256_192/falcon_cmd.c **** }
 1185              		.loc 1 385 1 view .LVU347
 1186 0022 03B0     		add	sp, sp, #12
 1187              	.LCFI38:
 1188              		.cfi_def_cfa_offset 4
 1189              		@ sp needed
 1190 0024 5DF804FB 		ldr	pc, [sp], #4
 1191              		.cfi_endproc
 1192              	.LFE171:
 1194              		.section	.text.preview_start,"ax",%progbits
 1195              		.align	1
 1196              		.global	preview_start
 1197              		.syntax unified
 1198              		.thumb
 1199              		.thumb_func
 1201              	preview_start:
 1202              	.LVL105:
 1203              	.LFB172:
 386:TINYC256_192/falcon_cmd.c **** 
 387:TINYC256_192/falcon_cmd.c **** // start preview via command
 388:TINYC256_192/falcon_cmd.c **** ir_error_t preview_start(PreviewStartParam_t *preview_start_param)
 389:TINYC256_192/falcon_cmd.c **** {
 1204              		.loc 1 389 1 is_stmt 1 view -0
 1205              		.cfi_startproc
 1206              		@ args = 0, pretend = 0, frame = 16
 1207              		@ frame_needed = 0, uses_anonymous_args = 0
 1208              		.loc 1 389 1 is_stmt 0 view .LVU349
 1209 0000 00B5     		push	{lr}
 1210              	.LCFI39:
 1211              		.cfi_def_cfa_offset 4
 1212              		.cfi_offset 14, -4
 1213 0002 85B0     		sub	sp, sp, #20
 1214              	.LCFI40:
 1215              		.cfi_def_cfa_offset 24
 390:TINYC256_192/falcon_cmd.c ****     uint8_t data[8] = {0};
 1216              		.loc 1 390 5 is_stmt 1 view .LVU350
 1217              		.loc 1 390 13 is_stmt 0 view .LVU351
ARM GAS  C:\usertemp\ccDXhwvm.s 			page 30


 1218 0004 0023     		movs	r3, #0
 1219 0006 0293     		str	r3, [sp, #8]
 1220 0008 0393     		str	r3, [sp, #12]
 391:TINYC256_192/falcon_cmd.c ****     uint16_t wTmpLen = 8;
 1221              		.loc 1 391 5 is_stmt 1 view .LVU352
 1222              	.LVL106:
 392:TINYC256_192/falcon_cmd.c ****     vdcmd_std_header_t ptVdCmdHeader = {0};
 1223              		.loc 1 392 5 view .LVU353
 1224              		.loc 1 392 24 is_stmt 0 view .LVU354
 1225 000a 0093     		str	r3, [sp]
 1226 000c 0193     		str	r3, [sp, #4]
 393:TINYC256_192/falcon_cmd.c ****     ptVdCmdHeader.byCmdType = CMDTYPE_STANDARD_TYPE_PREVIEW;
 1227              		.loc 1 393 5 is_stmt 1 view .LVU355
 1228              		.loc 1 393 29 is_stmt 0 view .LVU356
 1229 000e 0F23     		movs	r3, #15
 1230 0010 8DF80030 		strb	r3, [sp]
 394:TINYC256_192/falcon_cmd.c ****     ptVdCmdHeader.bySubCmd = SUBCMD_PREVIEW_START;
 1231              		.loc 1 394 5 is_stmt 1 view .LVU357
 1232              		.loc 1 394 28 is_stmt 0 view .LVU358
 1233 0014 C123     		movs	r3, #193
 1234 0016 8DF80130 		strb	r3, [sp, #1]
 395:TINYC256_192/falcon_cmd.c ****     data[0] = preview_start_param->path;
 1235              		.loc 1 395 5 is_stmt 1 view .LVU359
 1236              		.loc 1 395 34 is_stmt 0 view .LVU360
 1237 001a 0378     		ldrb	r3, [r0]	@ zero_extendqisi2
 1238              		.loc 1 395 13 view .LVU361
 1239 001c 8DF80830 		strb	r3, [sp, #8]
 396:TINYC256_192/falcon_cmd.c ****     if (preview_start_param->source == 0)
 1240              		.loc 1 396 5 is_stmt 1 view .LVU362
 1241              		.loc 1 396 28 is_stmt 0 view .LVU363
 1242 0020 4378     		ldrb	r3, [r0, #1]	@ zero_extendqisi2
 1243              		.loc 1 396 8 view .LVU364
 1244 0022 0BB1     		cbz	r3, .L94
 397:TINYC256_192/falcon_cmd.c ****     {
 398:TINYC256_192/falcon_cmd.c ****         data[1] = 0;
 399:TINYC256_192/falcon_cmd.c ****     }
 400:TINYC256_192/falcon_cmd.c ****     else if (preview_start_param->source == 1)
 1245              		.loc 1 400 10 is_stmt 1 view .LVU365
 1246              		.loc 1 400 13 is_stmt 0 view .LVU366
 1247 0024 012B     		cmp	r3, #1
 1248 0026 19D0     		beq	.L96
 1249              	.L94:
 401:TINYC256_192/falcon_cmd.c ****     {
 402:TINYC256_192/falcon_cmd.c ****         data[1] = 0x80;
 403:TINYC256_192/falcon_cmd.c ****     }
 404:TINYC256_192/falcon_cmd.c ****     data[2] = preview_start_param->width >> 8;
 1250              		.loc 1 404 5 is_stmt 1 view .LVU367
 1251              		.loc 1 404 34 is_stmt 0 view .LVU368
 1252 0028 4388     		ldrh	r3, [r0, #2]	@ unaligned
 1253              		.loc 1 404 13 view .LVU369
 1254 002a 1A0A     		lsrs	r2, r3, #8
 1255 002c 8DF80A20 		strb	r2, [sp, #10]
 405:TINYC256_192/falcon_cmd.c ****     data[3] = preview_start_param->width & 0xFF;
 1256              		.loc 1 405 5 is_stmt 1 view .LVU370
 1257              		.loc 1 405 13 is_stmt 0 view .LVU371
 1258 0030 8DF80B30 		strb	r3, [sp, #11]
 406:TINYC256_192/falcon_cmd.c ****     data[4] = preview_start_param->height >> 8;
ARM GAS  C:\usertemp\ccDXhwvm.s 			page 31


 1259              		.loc 1 406 5 is_stmt 1 view .LVU372
 1260              		.loc 1 406 34 is_stmt 0 view .LVU373
 1261 0034 8388     		ldrh	r3, [r0, #4]	@ unaligned
 1262              		.loc 1 406 13 view .LVU374
 1263 0036 1A0A     		lsrs	r2, r3, #8
 1264 0038 8DF80C20 		strb	r2, [sp, #12]
 407:TINYC256_192/falcon_cmd.c ****     data[5] = preview_start_param->height & 0xFF;
 1265              		.loc 1 407 5 is_stmt 1 view .LVU375
 1266              		.loc 1 407 13 is_stmt 0 view .LVU376
 1267 003c 8DF80D30 		strb	r3, [sp, #13]
 408:TINYC256_192/falcon_cmd.c ****     data[6] = preview_start_param->fps;
 1268              		.loc 1 408 5 is_stmt 1 view .LVU377
 1269              		.loc 1 408 34 is_stmt 0 view .LVU378
 1270 0040 8379     		ldrb	r3, [r0, #6]	@ zero_extendqisi2
 1271              		.loc 1 408 13 view .LVU379
 1272 0042 8DF80E30 		strb	r3, [sp, #14]
 409:TINYC256_192/falcon_cmd.c ****     data[7] = preview_start_param->mode;
 1273              		.loc 1 409 5 is_stmt 1 view .LVU380
 1274              		.loc 1 409 34 is_stmt 0 view .LVU381
 1275 0046 C379     		ldrb	r3, [r0, #7]	@ zero_extendqisi2
 1276              		.loc 1 409 13 view .LVU382
 1277 0048 8DF80F30 		strb	r3, [sp, #15]
 410:TINYC256_192/falcon_cmd.c **** 
 411:TINYC256_192/falcon_cmd.c ****     return standard_cmd_write(&ptVdCmdHeader, wTmpLen, data);
 1278              		.loc 1 411 5 is_stmt 1 view .LVU383
 1279              		.loc 1 411 12 is_stmt 0 view .LVU384
 1280 004c 02AA     		add	r2, sp, #8
 1281 004e 0821     		movs	r1, #8
 1282 0050 6846     		mov	r0, sp
 1283              	.LVL107:
 1284              		.loc 1 411 12 view .LVU385
 1285 0052 FFF7FEFF 		bl	standard_cmd_write
 1286              	.LVL108:
 412:TINYC256_192/falcon_cmd.c **** }
 1287              		.loc 1 412 1 view .LVU386
 1288 0056 05B0     		add	sp, sp, #20
 1289              	.LCFI41:
 1290              		.cfi_remember_state
 1291              		.cfi_def_cfa_offset 4
 1292              		@ sp needed
 1293 0058 5DF804FB 		ldr	pc, [sp], #4
 1294              	.LVL109:
 1295              	.L96:
 1296              	.LCFI42:
 1297              		.cfi_restore_state
 402:TINYC256_192/falcon_cmd.c ****     }
 1298              		.loc 1 402 9 is_stmt 1 view .LVU387
 402:TINYC256_192/falcon_cmd.c ****     }
 1299              		.loc 1 402 17 is_stmt 0 view .LVU388
 1300 005c 8023     		movs	r3, #128
 1301 005e 8DF80930 		strb	r3, [sp, #9]
 1302 0062 E1E7     		b	.L94
 1303              		.cfi_endproc
 1304              	.LFE172:
 1306              		.section	.text.preview_stop,"ax",%progbits
 1307              		.align	1
 1308              		.global	preview_stop
ARM GAS  C:\usertemp\ccDXhwvm.s 			page 32


 1309              		.syntax unified
 1310              		.thumb
 1311              		.thumb_func
 1313              	preview_stop:
 1314              	.LVL110:
 1315              	.LFB173:
 413:TINYC256_192/falcon_cmd.c **** 
 414:TINYC256_192/falcon_cmd.c **** // stop preview via command
 415:TINYC256_192/falcon_cmd.c **** ir_error_t preview_stop(enum preview_path path)
 416:TINYC256_192/falcon_cmd.c **** {
 1316              		.loc 1 416 1 is_stmt 1 view -0
 1317              		.cfi_startproc
 1318              		@ args = 0, pretend = 0, frame = 8
 1319              		@ frame_needed = 0, uses_anonymous_args = 0
 1320              		.loc 1 416 1 is_stmt 0 view .LVU390
 1321 0000 00B5     		push	{lr}
 1322              	.LCFI43:
 1323              		.cfi_def_cfa_offset 4
 1324              		.cfi_offset 14, -4
 1325 0002 83B0     		sub	sp, sp, #12
 1326              	.LCFI44:
 1327              		.cfi_def_cfa_offset 16
 417:TINYC256_192/falcon_cmd.c ****     uint16_t wTmpLen = 0;
 1328              		.loc 1 417 5 is_stmt 1 view .LVU391
 1329              	.LVL111:
 418:TINYC256_192/falcon_cmd.c ****     vdcmd_std_header_t ptVdCmdHeader = {0};
 1330              		.loc 1 418 5 view .LVU392
 1331              		.loc 1 418 24 is_stmt 0 view .LVU393
 1332 0004 0021     		movs	r1, #0
 1333 0006 0091     		str	r1, [sp]
 1334 0008 0191     		str	r1, [sp, #4]
 419:TINYC256_192/falcon_cmd.c ****     ptVdCmdHeader.byCmdType = CMDTYPE_STANDARD_TYPE_PREVIEW;
 1335              		.loc 1 419 5 is_stmt 1 view .LVU394
 1336              		.loc 1 419 29 is_stmt 0 view .LVU395
 1337 000a 0F23     		movs	r3, #15
 1338 000c 8DF80030 		strb	r3, [sp]
 420:TINYC256_192/falcon_cmd.c ****     ptVdCmdHeader.bySubCmd = SUBCMD_PREVIEW_STOP;
 1339              		.loc 1 420 5 is_stmt 1 view .LVU396
 1340              		.loc 1 420 28 is_stmt 0 view .LVU397
 1341 0010 0223     		movs	r3, #2
 1342 0012 8DF80130 		strb	r3, [sp, #1]
 421:TINYC256_192/falcon_cmd.c ****     ptVdCmdHeader.byPara = path;
 1343              		.loc 1 421 5 is_stmt 1 view .LVU398
 1344              		.loc 1 421 26 is_stmt 0 view .LVU399
 1345 0016 8DF80200 		strb	r0, [sp, #2]
 422:TINYC256_192/falcon_cmd.c **** 
 423:TINYC256_192/falcon_cmd.c ****     return standard_cmd_write(&ptVdCmdHeader, wTmpLen, NULL);
 1346              		.loc 1 423 5 is_stmt 1 view .LVU400
 1347              		.loc 1 423 12 is_stmt 0 view .LVU401
 1348 001a 0A46     		mov	r2, r1
 1349 001c 6846     		mov	r0, sp
 1350              	.LVL112:
 1351              		.loc 1 423 12 view .LVU402
 1352 001e FFF7FEFF 		bl	standard_cmd_write
 1353              	.LVL113:
 424:TINYC256_192/falcon_cmd.c **** }
 1354              		.loc 1 424 1 view .LVU403
ARM GAS  C:\usertemp\ccDXhwvm.s 			page 33


 1355 0022 03B0     		add	sp, sp, #12
 1356              	.LCFI45:
 1357              		.cfi_def_cfa_offset 4
 1358              		@ sp needed
 1359 0024 5DF804FB 		ldr	pc, [sp], #4
 1360              		.cfi_endproc
 1361              	.LFE173:
 1363              		.section	.text.ooc_b_update,"ax",%progbits
 1364              		.align	1
 1365              		.global	ooc_b_update
 1366              		.syntax unified
 1367              		.thumb
 1368              		.thumb_func
 1370              	ooc_b_update:
 1371              	.LVL114:
 1372              	.LFB174:
 425:TINYC256_192/falcon_cmd.c **** 
 426:TINYC256_192/falcon_cmd.c **** // ooc or b update
 427:TINYC256_192/falcon_cmd.c **** ir_error_t ooc_b_update(enum ooc_b_update_types update_type)
 428:TINYC256_192/falcon_cmd.c **** {
 1373              		.loc 1 428 1 is_stmt 1 view -0
 1374              		.cfi_startproc
 1375              		@ args = 0, pretend = 0, frame = 8
 1376              		@ frame_needed = 0, uses_anonymous_args = 0
 1377              		.loc 1 428 1 is_stmt 0 view .LVU405
 1378 0000 00B5     		push	{lr}
 1379              	.LCFI46:
 1380              		.cfi_def_cfa_offset 4
 1381              		.cfi_offset 14, -4
 1382 0002 83B0     		sub	sp, sp, #12
 1383              	.LCFI47:
 1384              		.cfi_def_cfa_offset 16
 429:TINYC256_192/falcon_cmd.c ****     uint16_t wTmpLen = 0;
 1385              		.loc 1 429 5 is_stmt 1 view .LVU406
 1386              	.LVL115:
 430:TINYC256_192/falcon_cmd.c ****     vdcmd_std_header_t ptVdCmdHeader = {0};
 1387              		.loc 1 430 5 view .LVU407
 1388              		.loc 1 430 24 is_stmt 0 view .LVU408
 1389 0004 0021     		movs	r1, #0
 1390 0006 0091     		str	r1, [sp]
 1391 0008 0191     		str	r1, [sp, #4]
 431:TINYC256_192/falcon_cmd.c ****     ptVdCmdHeader.byCmdType = CMDTYPE_STANDARD_TYPE_FW_ISP;
 1392              		.loc 1 431 5 is_stmt 1 view .LVU409
 1393              		.loc 1 431 29 is_stmt 0 view .LVU410
 1394 000a 0D23     		movs	r3, #13
 1395 000c 8DF80030 		strb	r3, [sp]
 432:TINYC256_192/falcon_cmd.c ****     ptVdCmdHeader.bySubCmd = SUBCMD_FW_ISP_OOC_B_UPDATE;
 1396              		.loc 1 432 5 is_stmt 1 view .LVU411
 1397              		.loc 1 432 28 is_stmt 0 view .LVU412
 1398 0010 C123     		movs	r3, #193
 1399 0012 8DF80130 		strb	r3, [sp, #1]
 433:TINYC256_192/falcon_cmd.c ****     ptVdCmdHeader.byPara = update_type;
 1400              		.loc 1 433 5 is_stmt 1 view .LVU413
 1401              		.loc 1 433 26 is_stmt 0 view .LVU414
 1402 0016 8DF80200 		strb	r0, [sp, #2]
 434:TINYC256_192/falcon_cmd.c **** 
 435:TINYC256_192/falcon_cmd.c ****     return standard_cmd_write(&ptVdCmdHeader, wTmpLen, NULL);
ARM GAS  C:\usertemp\ccDXhwvm.s 			page 34


 1403              		.loc 1 435 5 is_stmt 1 view .LVU415
 1404              		.loc 1 435 12 is_stmt 0 view .LVU416
 1405 001a 0A46     		mov	r2, r1
 1406 001c 6846     		mov	r0, sp
 1407              	.LVL116:
 1408              		.loc 1 435 12 view .LVU417
 1409 001e FFF7FEFF 		bl	standard_cmd_write
 1410              	.LVL117:
 436:TINYC256_192/falcon_cmd.c **** }
 1411              		.loc 1 436 1 view .LVU418
 1412 0022 03B0     		add	sp, sp, #12
 1413              	.LCFI48:
 1414              		.cfi_def_cfa_offset 4
 1415              		@ sp needed
 1416 0024 5DF804FB 		ldr	pc, [sp], #4
 1417              		.cfi_endproc
 1418              	.LFE174:
 1420              		.section	.text.shutter_sta_get,"ax",%progbits
 1421              		.align	1
 1422              		.global	shutter_sta_get
 1423              		.syntax unified
 1424              		.thumb
 1425              		.thumb_func
 1427              	shutter_sta_get:
 1428              	.LVL118:
 1429              	.LFB175:
 437:TINYC256_192/falcon_cmd.c **** 
 438:TINYC256_192/falcon_cmd.c **** ir_error_t shutter_sta_get(uint8_t *shutter_en_sta, uint8_t *shutter_sta)
 439:TINYC256_192/falcon_cmd.c **** {
 1430              		.loc 1 439 1 is_stmt 1 view -0
 1431              		.cfi_startproc
 1432              		@ args = 0, pretend = 0, frame = 16
 1433              		@ frame_needed = 0, uses_anonymous_args = 0
 1434              		.loc 1 439 1 is_stmt 0 view .LVU420
 1435 0000 30B5     		push	{r4, r5, lr}
 1436              	.LCFI49:
 1437              		.cfi_def_cfa_offset 12
 1438              		.cfi_offset 4, -12
 1439              		.cfi_offset 5, -8
 1440              		.cfi_offset 14, -4
 1441 0002 85B0     		sub	sp, sp, #20
 1442              	.LCFI50:
 1443              		.cfi_def_cfa_offset 32
 1444 0004 0546     		mov	r5, r0
 1445 0006 0C46     		mov	r4, r1
 440:TINYC256_192/falcon_cmd.c ****     ir_error_t rst;
 1446              		.loc 1 440 5 is_stmt 1 view .LVU421
 441:TINYC256_192/falcon_cmd.c ****     uint8_t data[2] = {0};
 1447              		.loc 1 441 5 view .LVU422
 1448              		.loc 1 441 13 is_stmt 0 view .LVU423
 1449 0008 0023     		movs	r3, #0
 1450 000a ADF80C30 		strh	r3, [sp, #12]	@ movhi
 442:TINYC256_192/falcon_cmd.c ****     uint16_t wTmpLen = 2;
 1451              		.loc 1 442 5 is_stmt 1 view .LVU424
 1452              	.LVL119:
 443:TINYC256_192/falcon_cmd.c ****     vdcmd_std_header_t ptVdCmdHeader = {0};
 1453              		.loc 1 443 5 view .LVU425
ARM GAS  C:\usertemp\ccDXhwvm.s 			page 35


 1454              		.loc 1 443 24 is_stmt 0 view .LVU426
 1455 000e 0193     		str	r3, [sp, #4]
 1456 0010 0293     		str	r3, [sp, #8]
 444:TINYC256_192/falcon_cmd.c ****     ptVdCmdHeader.byCmdType = CMDTYPE_STANDARD_TYPE_SHUTTER;
 1457              		.loc 1 444 5 is_stmt 1 view .LVU427
 1458              		.loc 1 444 29 is_stmt 0 view .LVU428
 1459 0012 0C23     		movs	r3, #12
 1460 0014 8DF80430 		strb	r3, [sp, #4]
 445:TINYC256_192/falcon_cmd.c ****     ptVdCmdHeader.bySubCmd = SUBCMD_SHUTTER_STA_GET;
 1461              		.loc 1 445 5 is_stmt 1 view .LVU429
 1462              		.loc 1 445 28 is_stmt 0 view .LVU430
 1463 0018 8323     		movs	r3, #131
 1464 001a 8DF80530 		strb	r3, [sp, #5]
 446:TINYC256_192/falcon_cmd.c ****     rst = standard_cmd_read(&ptVdCmdHeader, wTmpLen, data);
 1465              		.loc 1 446 5 is_stmt 1 view .LVU431
 1466              		.loc 1 446 11 is_stmt 0 view .LVU432
 1467 001e 03AA     		add	r2, sp, #12
 1468 0020 0221     		movs	r1, #2
 1469              	.LVL120:
 1470              		.loc 1 446 11 view .LVU433
 1471 0022 01A8     		add	r0, sp, #4
 1472              	.LVL121:
 1473              		.loc 1 446 11 view .LVU434
 1474 0024 FFF7FEFF 		bl	standard_cmd_read
 1475              	.LVL122:
 447:TINYC256_192/falcon_cmd.c ****     *shutter_en_sta = data[0];
 1476              		.loc 1 447 5 is_stmt 1 view .LVU435
 1477              		.loc 1 447 27 is_stmt 0 view .LVU436
 1478 0028 9DF80C30 		ldrb	r3, [sp, #12]	@ zero_extendqisi2
 1479              		.loc 1 447 21 view .LVU437
 1480 002c 2B70     		strb	r3, [r5]
 448:TINYC256_192/falcon_cmd.c ****     *shutter_sta = data[1];
 1481              		.loc 1 448 5 is_stmt 1 view .LVU438
 1482              		.loc 1 448 24 is_stmt 0 view .LVU439
 1483 002e 9DF80D30 		ldrb	r3, [sp, #13]	@ zero_extendqisi2
 1484              		.loc 1 448 18 view .LVU440
 1485 0032 2370     		strb	r3, [r4]
 449:TINYC256_192/falcon_cmd.c ****     return rst;
 1486              		.loc 1 449 5 is_stmt 1 view .LVU441
 450:TINYC256_192/falcon_cmd.c **** }
 1487              		.loc 1 450 1 is_stmt 0 view .LVU442
 1488 0034 05B0     		add	sp, sp, #20
 1489              	.LCFI51:
 1490              		.cfi_def_cfa_offset 12
 1491              		@ sp needed
 1492 0036 30BD     		pop	{r4, r5, pc}
 1493              		.loc 1 450 1 view .LVU443
 1494              		.cfi_endproc
 1495              	.LFE175:
 1497              		.section	.text.shutter_sta_set,"ax",%progbits
 1498              		.align	1
 1499              		.global	shutter_sta_set
 1500              		.syntax unified
 1501              		.thumb
 1502              		.thumb_func
 1504              	shutter_sta_set:
 1505              	.LVL123:
ARM GAS  C:\usertemp\ccDXhwvm.s 			page 36


 1506              	.LFB176:
 451:TINYC256_192/falcon_cmd.c **** 
 452:TINYC256_192/falcon_cmd.c **** ir_error_t shutter_sta_set(enum shutter_sta_types sta_type)
 453:TINYC256_192/falcon_cmd.c **** {
 1507              		.loc 1 453 1 is_stmt 1 view -0
 1508              		.cfi_startproc
 1509              		@ args = 0, pretend = 0, frame = 8
 1510              		@ frame_needed = 0, uses_anonymous_args = 0
 1511              		.loc 1 453 1 is_stmt 0 view .LVU445
 1512 0000 00B5     		push	{lr}
 1513              	.LCFI52:
 1514              		.cfi_def_cfa_offset 4
 1515              		.cfi_offset 14, -4
 1516 0002 83B0     		sub	sp, sp, #12
 1517              	.LCFI53:
 1518              		.cfi_def_cfa_offset 16
 454:TINYC256_192/falcon_cmd.c ****     uint16_t wTmpLen = 0;
 1519              		.loc 1 454 5 is_stmt 1 view .LVU446
 1520              	.LVL124:
 455:TINYC256_192/falcon_cmd.c ****     vdcmd_std_header_t ptVdCmdHeader = {0};
 1521              		.loc 1 455 5 view .LVU447
 1522              		.loc 1 455 24 is_stmt 0 view .LVU448
 1523 0004 0021     		movs	r1, #0
 1524 0006 0091     		str	r1, [sp]
 1525 0008 0191     		str	r1, [sp, #4]
 456:TINYC256_192/falcon_cmd.c ****     ptVdCmdHeader.byCmdType = CMDTYPE_STANDARD_TYPE_SHUTTER;
 1526              		.loc 1 456 5 is_stmt 1 view .LVU449
 1527              		.loc 1 456 29 is_stmt 0 view .LVU450
 1528 000a 0C23     		movs	r3, #12
 1529 000c 8DF80030 		strb	r3, [sp]
 457:TINYC256_192/falcon_cmd.c ****     ptVdCmdHeader.bySubCmd = SUBCMD_SHUTTER_STA_SET;
 1530              		.loc 1 457 5 is_stmt 1 view .LVU451
 1531              		.loc 1 457 28 is_stmt 0 view .LVU452
 1532 0010 4123     		movs	r3, #65
 1533 0012 8DF80130 		strb	r3, [sp, #1]
 458:TINYC256_192/falcon_cmd.c ****     ptVdCmdHeader.byPara = sta_type;
 1534              		.loc 1 458 5 is_stmt 1 view .LVU453
 1535              		.loc 1 458 26 is_stmt 0 view .LVU454
 1536 0016 8DF80200 		strb	r0, [sp, #2]
 459:TINYC256_192/falcon_cmd.c **** 
 460:TINYC256_192/falcon_cmd.c ****     return standard_cmd_write(&ptVdCmdHeader, wTmpLen, NULL);
 1537              		.loc 1 460 5 is_stmt 1 view .LVU455
 1538              		.loc 1 460 12 is_stmt 0 view .LVU456
 1539 001a 0A46     		mov	r2, r1
 1540 001c 6846     		mov	r0, sp
 1541              	.LVL125:
 1542              		.loc 1 460 12 view .LVU457
 1543 001e FFF7FEFF 		bl	standard_cmd_write
 1544              	.LVL126:
 461:TINYC256_192/falcon_cmd.c **** }
 1545              		.loc 1 461 1 view .LVU458
 1546 0022 03B0     		add	sp, sp, #12
 1547              	.LCFI54:
 1548              		.cfi_def_cfa_offset 4
 1549              		@ sp needed
 1550 0024 5DF804FB 		ldr	pc, [sp], #4
 1551              		.cfi_endproc
ARM GAS  C:\usertemp\ccDXhwvm.s 			page 37


 1552              	.LFE176:
 1554              		.section	.text.shutter_manual_switch,"ax",%progbits
 1555              		.align	1
 1556              		.global	shutter_manual_switch
 1557              		.syntax unified
 1558              		.thumb
 1559              		.thumb_func
 1561              	shutter_manual_switch:
 1562              	.LVL127:
 1563              	.LFB177:
 462:TINYC256_192/falcon_cmd.c **** 
 463:TINYC256_192/falcon_cmd.c **** ir_error_t shutter_manual_switch(enum shutter_manual_types manual_type)
 464:TINYC256_192/falcon_cmd.c **** {
 1564              		.loc 1 464 1 is_stmt 1 view -0
 1565              		.cfi_startproc
 1566              		@ args = 0, pretend = 0, frame = 8
 1567              		@ frame_needed = 0, uses_anonymous_args = 0
 1568              		.loc 1 464 1 is_stmt 0 view .LVU460
 1569 0000 00B5     		push	{lr}
 1570              	.LCFI55:
 1571              		.cfi_def_cfa_offset 4
 1572              		.cfi_offset 14, -4
 1573 0002 83B0     		sub	sp, sp, #12
 1574              	.LCFI56:
 1575              		.cfi_def_cfa_offset 16
 465:TINYC256_192/falcon_cmd.c ****     uint16_t wTmpLen = 0;
 1576              		.loc 1 465 5 is_stmt 1 view .LVU461
 1577              	.LVL128:
 466:TINYC256_192/falcon_cmd.c ****     vdcmd_std_header_t ptVdCmdHeader = {0};
 1578              		.loc 1 466 5 view .LVU462
 1579              		.loc 1 466 24 is_stmt 0 view .LVU463
 1580 0004 0021     		movs	r1, #0
 1581 0006 0091     		str	r1, [sp]
 1582 0008 0191     		str	r1, [sp, #4]
 467:TINYC256_192/falcon_cmd.c ****     ptVdCmdHeader.byCmdType = CMDTYPE_STANDARD_TYPE_SHUTTER;
 1583              		.loc 1 467 5 is_stmt 1 view .LVU464
 1584              		.loc 1 467 29 is_stmt 0 view .LVU465
 1585 000a 0C23     		movs	r3, #12
 1586 000c 8DF80030 		strb	r3, [sp]
 468:TINYC256_192/falcon_cmd.c ****     ptVdCmdHeader.bySubCmd = SUBCMD_SHUTTER_SWITCH;
 1587              		.loc 1 468 5 is_stmt 1 view .LVU466
 1588              		.loc 1 468 28 is_stmt 0 view .LVU467
 1589 0010 4223     		movs	r3, #66
 1590 0012 8DF80130 		strb	r3, [sp, #1]
 469:TINYC256_192/falcon_cmd.c ****     ptVdCmdHeader.byPara = manual_type;
 1591              		.loc 1 469 5 is_stmt 1 view .LVU468
 1592              		.loc 1 469 26 is_stmt 0 view .LVU469
 1593 0016 8DF80200 		strb	r0, [sp, #2]
 470:TINYC256_192/falcon_cmd.c **** 
 471:TINYC256_192/falcon_cmd.c ****     return standard_cmd_write(&ptVdCmdHeader, wTmpLen, NULL);
 1594              		.loc 1 471 5 is_stmt 1 view .LVU470
 1595              		.loc 1 471 12 is_stmt 0 view .LVU471
 1596 001a 0A46     		mov	r2, r1
 1597 001c 6846     		mov	r0, sp
 1598              	.LVL129:
 1599              		.loc 1 471 12 view .LVU472
 1600 001e FFF7FEFF 		bl	standard_cmd_write
ARM GAS  C:\usertemp\ccDXhwvm.s 			page 38


 1601              	.LVL130:
 472:TINYC256_192/falcon_cmd.c **** }
 1602              		.loc 1 472 1 view .LVU473
 1603 0022 03B0     		add	sp, sp, #12
 1604              	.LCFI57:
 1605              		.cfi_def_cfa_offset 4
 1606              		@ sp needed
 1607 0024 5DF804FB 		ldr	pc, [sp], #4
 1608              		.cfi_endproc
 1609              	.LFE177:
 1611              		.section	.text.shutter_vtemp_get,"ax",%progbits
 1612              		.align	1
 1613              		.global	shutter_vtemp_get
 1614              		.syntax unified
 1615              		.thumb
 1616              		.thumb_func
 1618              	shutter_vtemp_get:
 1619              	.LVL131:
 1620              	.LFB178:
 473:TINYC256_192/falcon_cmd.c **** 
 474:TINYC256_192/falcon_cmd.c **** // get current shutter's vtemp
 475:TINYC256_192/falcon_cmd.c **** ir_error_t shutter_vtemp_get(uint16_t *cur_vtemp)
 476:TINYC256_192/falcon_cmd.c **** {
 1621              		.loc 1 476 1 is_stmt 1 view -0
 1622              		.cfi_startproc
 1623              		@ args = 0, pretend = 0, frame = 16
 1624              		@ frame_needed = 0, uses_anonymous_args = 0
 1625              		.loc 1 476 1 is_stmt 0 view .LVU475
 1626 0000 10B5     		push	{r4, lr}
 1627              	.LCFI58:
 1628              		.cfi_def_cfa_offset 8
 1629              		.cfi_offset 4, -8
 1630              		.cfi_offset 14, -4
 1631 0002 84B0     		sub	sp, sp, #16
 1632              	.LCFI59:
 1633              		.cfi_def_cfa_offset 24
 477:TINYC256_192/falcon_cmd.c ****     int rst = 0;
 1634              		.loc 1 477 5 is_stmt 1 view .LVU476
 1635              	.LVL132:
 478:TINYC256_192/falcon_cmd.c ****     uint8_t data[2] = {0};
 1636              		.loc 1 478 5 view .LVU477
 1637              		.loc 1 478 13 is_stmt 0 view .LVU478
 1638 0004 0023     		movs	r3, #0
 1639 0006 ADF80C30 		strh	r3, [sp, #12]	@ movhi
 479:TINYC256_192/falcon_cmd.c ****     uint16_t wTmpLen = 2;
 1640              		.loc 1 479 5 is_stmt 1 view .LVU479
 1641              	.LVL133:
 480:TINYC256_192/falcon_cmd.c ****     vdcmd_std_header_t ptVdCmdHeader = {0};
 1642              		.loc 1 480 5 view .LVU480
 1643              		.loc 1 480 24 is_stmt 0 view .LVU481
 1644 000a 0193     		str	r3, [sp, #4]
 1645 000c 0293     		str	r3, [sp, #8]
 481:TINYC256_192/falcon_cmd.c **** 
 482:TINYC256_192/falcon_cmd.c ****     if (cur_vtemp == NULL)
 1646              		.loc 1 482 5 is_stmt 1 view .LVU482
 1647              		.loc 1 482 8 is_stmt 0 view .LVU483
 1648 000e A0B1     		cbz	r0, .L109
ARM GAS  C:\usertemp\ccDXhwvm.s 			page 39


 1649 0010 0446     		mov	r4, r0
 483:TINYC256_192/falcon_cmd.c ****     {
 484:TINYC256_192/falcon_cmd.c ****         // printf("parameter error\n");
 485:TINYC256_192/falcon_cmd.c ****         return IR_ERROR_PARAM;
 486:TINYC256_192/falcon_cmd.c ****     }
 487:TINYC256_192/falcon_cmd.c **** 
 488:TINYC256_192/falcon_cmd.c ****     ptVdCmdHeader.byCmdType = CMDTYPE_STANDARD_TYPE_SHUTTER;
 1650              		.loc 1 488 5 is_stmt 1 view .LVU484
 1651              		.loc 1 488 29 is_stmt 0 view .LVU485
 1652 0012 0C23     		movs	r3, #12
 1653 0014 8DF80430 		strb	r3, [sp, #4]
 489:TINYC256_192/falcon_cmd.c ****     ptVdCmdHeader.bySubCmd = SUBCMD_SHUTTER_VTEMP_GET;
 1654              		.loc 1 489 5 is_stmt 1 view .LVU486
 1655              		.loc 1 489 28 is_stmt 0 view .LVU487
 1656 0018 8923     		movs	r3, #137
 1657 001a 8DF80530 		strb	r3, [sp, #5]
 490:TINYC256_192/falcon_cmd.c **** 
 491:TINYC256_192/falcon_cmd.c ****     rst = standard_cmd_read(&ptVdCmdHeader, wTmpLen, data);
 1658              		.loc 1 491 5 is_stmt 1 view .LVU488
 1659              		.loc 1 491 11 is_stmt 0 view .LVU489
 1660 001e 03AA     		add	r2, sp, #12
 1661 0020 0221     		movs	r1, #2
 1662 0022 01A8     		add	r0, sp, #4
 1663              	.LVL134:
 1664              		.loc 1 491 11 view .LVU490
 1665 0024 FFF7FEFF 		bl	standard_cmd_read
 1666              	.LVL135:
 492:TINYC256_192/falcon_cmd.c ****     *cur_vtemp = ((uint16_t)data[0] << 8) + data[1];
 1667              		.loc 1 492 5 is_stmt 1 view .LVU491
 1668              		.loc 1 492 33 is_stmt 0 view .LVU492
 1669 0028 9DF80C20 		ldrb	r2, [sp, #12]	@ zero_extendqisi2
 1670              		.loc 1 492 49 view .LVU493
 1671 002c 9DF80D30 		ldrb	r3, [sp, #13]	@ zero_extendqisi2
 1672              		.loc 1 492 43 view .LVU494
 1673 0030 03EB0223 		add	r3, r3, r2, lsl #8
 1674              		.loc 1 492 16 view .LVU495
 1675 0034 2380     		strh	r3, [r4]	@ movhi
 493:TINYC256_192/falcon_cmd.c ****     return rst;
 1676              		.loc 1 493 5 is_stmt 1 view .LVU496
 1677              	.LVL136:
 1678              	.L108:
 494:TINYC256_192/falcon_cmd.c **** }
 1679              		.loc 1 494 1 is_stmt 0 view .LVU497
 1680 0036 04B0     		add	sp, sp, #16
 1681              	.LCFI60:
 1682              		.cfi_remember_state
 1683              		.cfi_def_cfa_offset 8
 1684              		@ sp needed
 1685 0038 10BD     		pop	{r4, pc}
 1686              	.LVL137:
 1687              	.L109:
 1688              	.LCFI61:
 1689              		.cfi_restore_state
 485:TINYC256_192/falcon_cmd.c ****     }
 1690              		.loc 1 485 16 view .LVU498
 1691 003a 4FF0FF30 		mov	r0, #-1
 1692              	.LVL138:
ARM GAS  C:\usertemp\ccDXhwvm.s 			page 40


 485:TINYC256_192/falcon_cmd.c ****     }
 1693              		.loc 1 485 16 view .LVU499
 1694 003e FAE7     		b	.L108
 1695              		.cfi_endproc
 1696              	.LFE178:
 1698              		.section	.text.cur_vtemp_get,"ax",%progbits
 1699              		.align	1
 1700              		.global	cur_vtemp_get
 1701              		.syntax unified
 1702              		.thumb
 1703              		.thumb_func
 1705              	cur_vtemp_get:
 1706              	.LVL139:
 1707              	.LFB179:
 495:TINYC256_192/falcon_cmd.c **** 
 496:TINYC256_192/falcon_cmd.c **** // get current IR sensor's vtemp
 497:TINYC256_192/falcon_cmd.c **** ir_error_t cur_vtemp_get(uint16_t *cur_vtemp)
 498:TINYC256_192/falcon_cmd.c **** {
 1708              		.loc 1 498 1 is_stmt 1 view -0
 1709              		.cfi_startproc
 1710              		@ args = 0, pretend = 0, frame = 16
 1711              		@ frame_needed = 0, uses_anonymous_args = 0
 1712              		.loc 1 498 1 is_stmt 0 view .LVU501
 1713 0000 10B5     		push	{r4, lr}
 1714              	.LCFI62:
 1715              		.cfi_def_cfa_offset 8
 1716              		.cfi_offset 4, -8
 1717              		.cfi_offset 14, -4
 1718 0002 84B0     		sub	sp, sp, #16
 1719              	.LCFI63:
 1720              		.cfi_def_cfa_offset 24
 499:TINYC256_192/falcon_cmd.c ****     ir_error_t rst;
 1721              		.loc 1 499 5 is_stmt 1 view .LVU502
 500:TINYC256_192/falcon_cmd.c ****     uint8_t data[2] = {0};
 1722              		.loc 1 500 5 view .LVU503
 1723              		.loc 1 500 13 is_stmt 0 view .LVU504
 1724 0004 0023     		movs	r3, #0
 1725 0006 ADF80C30 		strh	r3, [sp, #12]	@ movhi
 501:TINYC256_192/falcon_cmd.c ****     uint16_t wTmpLen = 2;
 1726              		.loc 1 501 5 is_stmt 1 view .LVU505
 1727              	.LVL140:
 502:TINYC256_192/falcon_cmd.c ****     vdcmd_std_header_t ptVdCmdHeader = {0};
 1728              		.loc 1 502 5 view .LVU506
 1729              		.loc 1 502 24 is_stmt 0 view .LVU507
 1730 000a 0193     		str	r3, [sp, #4]
 1731 000c 0293     		str	r3, [sp, #8]
 503:TINYC256_192/falcon_cmd.c **** 
 504:TINYC256_192/falcon_cmd.c ****     if (cur_vtemp == NULL)
 1732              		.loc 1 504 5 is_stmt 1 view .LVU508
 1733              		.loc 1 504 8 is_stmt 0 view .LVU509
 1734 000e A0B1     		cbz	r0, .L113
 1735 0010 0446     		mov	r4, r0
 505:TINYC256_192/falcon_cmd.c ****     {
 506:TINYC256_192/falcon_cmd.c ****         // printf("parameter error\n");
 507:TINYC256_192/falcon_cmd.c ****         return IR_ERROR_PARAM;
 508:TINYC256_192/falcon_cmd.c ****     }
 509:TINYC256_192/falcon_cmd.c **** 
ARM GAS  C:\usertemp\ccDXhwvm.s 			page 41


 510:TINYC256_192/falcon_cmd.c ****     ptVdCmdHeader.byCmdType = CMDTYPE_STANDARD_TYPE_FW_ISP;
 1736              		.loc 1 510 5 is_stmt 1 view .LVU510
 1737              		.loc 1 510 29 is_stmt 0 view .LVU511
 1738 0012 0D23     		movs	r3, #13
 1739 0014 8DF80430 		strb	r3, [sp, #4]
 511:TINYC256_192/falcon_cmd.c ****     ptVdCmdHeader.bySubCmd = SUBCMD_FW_ISP_GET_CUR_VTEMP;
 1740              		.loc 1 511 5 is_stmt 1 view .LVU512
 1741              		.loc 1 511 28 is_stmt 0 view .LVU513
 1742 0018 8B23     		movs	r3, #139
 1743 001a 8DF80530 		strb	r3, [sp, #5]
 512:TINYC256_192/falcon_cmd.c **** 
 513:TINYC256_192/falcon_cmd.c ****     rst = standard_cmd_read(&ptVdCmdHeader, wTmpLen, data);
 1744              		.loc 1 513 5 is_stmt 1 view .LVU514
 1745              		.loc 1 513 11 is_stmt 0 view .LVU515
 1746 001e 03AA     		add	r2, sp, #12
 1747 0020 0221     		movs	r1, #2
 1748 0022 01A8     		add	r0, sp, #4
 1749              	.LVL141:
 1750              		.loc 1 513 11 view .LVU516
 1751 0024 FFF7FEFF 		bl	standard_cmd_read
 1752              	.LVL142:
 514:TINYC256_192/falcon_cmd.c ****     *cur_vtemp = ((uint16_t)data[0] << 8) + data[1];
 1753              		.loc 1 514 5 is_stmt 1 view .LVU517
 1754              		.loc 1 514 33 is_stmt 0 view .LVU518
 1755 0028 9DF80C20 		ldrb	r2, [sp, #12]	@ zero_extendqisi2
 1756              		.loc 1 514 49 view .LVU519
 1757 002c 9DF80D30 		ldrb	r3, [sp, #13]	@ zero_extendqisi2
 1758              		.loc 1 514 43 view .LVU520
 1759 0030 03EB0223 		add	r3, r3, r2, lsl #8
 1760              		.loc 1 514 16 view .LVU521
 1761 0034 2380     		strh	r3, [r4]	@ movhi
 515:TINYC256_192/falcon_cmd.c ****     return rst;
 1762              		.loc 1 515 5 is_stmt 1 view .LVU522
 1763              	.LVL143:
 1764              	.L112:
 516:TINYC256_192/falcon_cmd.c **** }
 1765              		.loc 1 516 1 is_stmt 0 view .LVU523
 1766 0036 04B0     		add	sp, sp, #16
 1767              	.LCFI64:
 1768              		.cfi_remember_state
 1769              		.cfi_def_cfa_offset 8
 1770              		@ sp needed
 1771 0038 10BD     		pop	{r4, pc}
 1772              	.LVL144:
 1773              	.L113:
 1774              	.LCFI65:
 1775              		.cfi_restore_state
 507:TINYC256_192/falcon_cmd.c ****     }
 1776              		.loc 1 507 16 view .LVU524
 1777 003a 4FF0FF30 		mov	r0, #-1
 1778              	.LVL145:
 507:TINYC256_192/falcon_cmd.c ****     }
 1779              		.loc 1 507 16 view .LVU525
 1780 003e FAE7     		b	.L112
 1781              		.cfi_endproc
 1782              	.LFE179:
 1784              		.section	.text.rmcover_sts_switch,"ax",%progbits
ARM GAS  C:\usertemp\ccDXhwvm.s 			page 42


 1785              		.align	1
 1786              		.global	rmcover_sts_switch
 1787              		.syntax unified
 1788              		.thumb
 1789              		.thumb_func
 1791              	rmcover_sts_switch:
 1792              	.LVL146:
 1793              	.LFB180:
 517:TINYC256_192/falcon_cmd.c **** 
 518:TINYC256_192/falcon_cmd.c **** // remove cover status switch
 519:TINYC256_192/falcon_cmd.c **** ir_error_t rmcover_sts_switch(enum rmcover_types en_sts)
 520:TINYC256_192/falcon_cmd.c **** {
 1794              		.loc 1 520 1 is_stmt 1 view -0
 1795              		.cfi_startproc
 1796              		@ args = 0, pretend = 0, frame = 8
 1797              		@ frame_needed = 0, uses_anonymous_args = 0
 1798              		.loc 1 520 1 is_stmt 0 view .LVU527
 1799 0000 00B5     		push	{lr}
 1800              	.LCFI66:
 1801              		.cfi_def_cfa_offset 4
 1802              		.cfi_offset 14, -4
 1803 0002 83B0     		sub	sp, sp, #12
 1804              	.LCFI67:
 1805              		.cfi_def_cfa_offset 16
 521:TINYC256_192/falcon_cmd.c ****     uint16_t wTmpLen = 0;
 1806              		.loc 1 521 5 is_stmt 1 view .LVU528
 1807              	.LVL147:
 522:TINYC256_192/falcon_cmd.c ****     vdcmd_std_header_t ptVdCmdHeader = {0};
 1808              		.loc 1 522 5 view .LVU529
 1809              		.loc 1 522 24 is_stmt 0 view .LVU530
 1810 0004 0023     		movs	r3, #0
 1811 0006 0093     		str	r3, [sp]
 1812 0008 0193     		str	r3, [sp, #4]
 523:TINYC256_192/falcon_cmd.c ****     ptVdCmdHeader.byCmdType = CMDTYPE_STANDARD_TYPE_FW_ISP;
 1813              		.loc 1 523 5 is_stmt 1 view .LVU531
 1814              		.loc 1 523 29 is_stmt 0 view .LVU532
 1815 000a 0D23     		movs	r3, #13
 1816 000c 8DF80030 		strb	r3, [sp]
 524:TINYC256_192/falcon_cmd.c ****     if (en_sts == RMCOVER_DIS)
 1817              		.loc 1 524 5 is_stmt 1 view .LVU533
 1818              		.loc 1 524 8 is_stmt 0 view .LVU534
 1819 0010 50B9     		cbnz	r0, .L116
 525:TINYC256_192/falcon_cmd.c ****     {
 526:TINYC256_192/falcon_cmd.c ****         ptVdCmdHeader.bySubCmd = SUBCMD_FW_ISP_RMCOVER_DISABLE;
 1820              		.loc 1 526 9 is_stmt 1 view .LVU535
 1821              		.loc 1 526 32 is_stmt 0 view .LVU536
 1822 0012 0523     		movs	r3, #5
 1823 0014 8DF80130 		strb	r3, [sp, #1]
 1824              	.L117:
 527:TINYC256_192/falcon_cmd.c ****     }
 528:TINYC256_192/falcon_cmd.c ****     else if (en_sts == RMCOVER_EN)
 529:TINYC256_192/falcon_cmd.c ****     {
 530:TINYC256_192/falcon_cmd.c ****         ptVdCmdHeader.bySubCmd = SUBCMD_FW_ISP_RMCOVER_ENABLE;
 531:TINYC256_192/falcon_cmd.c ****     }
 532:TINYC256_192/falcon_cmd.c ****     else
 533:TINYC256_192/falcon_cmd.c ****     {
 534:TINYC256_192/falcon_cmd.c ****         // printf("parameter:en_sts error\n");
ARM GAS  C:\usertemp\ccDXhwvm.s 			page 43


 535:TINYC256_192/falcon_cmd.c ****         return IR_ERROR_PARAM;
 536:TINYC256_192/falcon_cmd.c ****     }
 537:TINYC256_192/falcon_cmd.c **** 
 538:TINYC256_192/falcon_cmd.c ****     return standard_cmd_write(&ptVdCmdHeader, wTmpLen, NULL);
 1825              		.loc 1 538 5 is_stmt 1 view .LVU537
 1826              		.loc 1 538 12 is_stmt 0 view .LVU538
 1827 0018 0022     		movs	r2, #0
 1828 001a 1146     		mov	r1, r2
 1829 001c 6846     		mov	r0, sp
 1830              	.LVL148:
 1831              		.loc 1 538 12 view .LVU539
 1832 001e FFF7FEFF 		bl	standard_cmd_write
 1833              	.LVL149:
 1834              	.L118:
 539:TINYC256_192/falcon_cmd.c **** }
 1835              		.loc 1 539 1 view .LVU540
 1836 0022 03B0     		add	sp, sp, #12
 1837              	.LCFI68:
 1838              		.cfi_remember_state
 1839              		.cfi_def_cfa_offset 4
 1840              		@ sp needed
 1841 0024 5DF804FB 		ldr	pc, [sp], #4
 1842              	.LVL150:
 1843              	.L116:
 1844              	.LCFI69:
 1845              		.cfi_restore_state
 528:TINYC256_192/falcon_cmd.c ****     {
 1846              		.loc 1 528 10 is_stmt 1 view .LVU541
 528:TINYC256_192/falcon_cmd.c ****     {
 1847              		.loc 1 528 13 is_stmt 0 view .LVU542
 1848 0028 0128     		cmp	r0, #1
 1849 002a 03D1     		bne	.L119
 530:TINYC256_192/falcon_cmd.c ****     }
 1850              		.loc 1 530 9 is_stmt 1 view .LVU543
 530:TINYC256_192/falcon_cmd.c ****     }
 1851              		.loc 1 530 32 is_stmt 0 view .LVU544
 1852 002c 0D23     		movs	r3, #13
 1853 002e 8DF80130 		strb	r3, [sp, #1]
 1854 0032 F1E7     		b	.L117
 1855              	.L119:
 535:TINYC256_192/falcon_cmd.c ****     }
 1856              		.loc 1 535 16 view .LVU545
 1857 0034 4FF0FF30 		mov	r0, #-1
 1858              	.LVL151:
 535:TINYC256_192/falcon_cmd.c ****     }
 1859              		.loc 1 535 16 view .LVU546
 1860 0038 F3E7     		b	.L118
 1861              		.cfi_endproc
 1862              	.LFE180:
 1864              		.section	.text.rmcover_auto_calc,"ax",%progbits
 1865              		.align	1
 1866              		.global	rmcover_auto_calc
 1867              		.syntax unified
 1868              		.thumb
 1869              		.thumb_func
 1871              	rmcover_auto_calc:
 1872              	.LVL152:
ARM GAS  C:\usertemp\ccDXhwvm.s 			page 44


 1873              	.LFB181:
 540:TINYC256_192/falcon_cmd.c **** 
 541:TINYC256_192/falcon_cmd.c **** // auto calculate the remove cover by firmware
 542:TINYC256_192/falcon_cmd.c **** ir_error_t rmcover_auto_calc(uint8_t zoom_scale)
 543:TINYC256_192/falcon_cmd.c **** {
 1874              		.loc 1 543 1 is_stmt 1 view -0
 1875              		.cfi_startproc
 1876              		@ args = 0, pretend = 0, frame = 8
 1877              		@ frame_needed = 0, uses_anonymous_args = 0
 1878              		.loc 1 543 1 is_stmt 0 view .LVU548
 1879 0000 00B5     		push	{lr}
 1880              	.LCFI70:
 1881              		.cfi_def_cfa_offset 4
 1882              		.cfi_offset 14, -4
 1883 0002 83B0     		sub	sp, sp, #12
 1884              	.LCFI71:
 1885              		.cfi_def_cfa_offset 16
 544:TINYC256_192/falcon_cmd.c ****     uint16_t wTmpLen = 0;
 1886              		.loc 1 544 5 is_stmt 1 view .LVU549
 1887              	.LVL153:
 545:TINYC256_192/falcon_cmd.c ****     vdcmd_std_header_t ptVdCmdHeader = {0};
 1888              		.loc 1 545 5 view .LVU550
 1889              		.loc 1 545 24 is_stmt 0 view .LVU551
 1890 0004 0023     		movs	r3, #0
 1891 0006 0093     		str	r3, [sp]
 1892 0008 0193     		str	r3, [sp, #4]
 546:TINYC256_192/falcon_cmd.c **** 
 547:TINYC256_192/falcon_cmd.c ****     if ((zoom_scale != 1) && (zoom_scale != 2) && (zoom_scale != 4))
 1893              		.loc 1 547 5 is_stmt 1 view .LVU552
 1894              		.loc 1 547 27 is_stmt 0 view .LVU553
 1895 000a 431E     		subs	r3, r0, #1
 1896 000c DBB2     		uxtb	r3, r3
 1897              		.loc 1 547 8 view .LVU554
 1898 000e 012B     		cmp	r3, #1
 1899 0010 01D9     		bls	.L122
 1900              		.loc 1 547 48 discriminator 1 view .LVU555
 1901 0012 0428     		cmp	r0, #4
 1902 0014 0FD1     		bne	.L124
 1903              	.L122:
 548:TINYC256_192/falcon_cmd.c ****     {
 549:TINYC256_192/falcon_cmd.c ****         // printf("parameter:zoom_scale error\n");
 550:TINYC256_192/falcon_cmd.c ****         return IR_ERROR_PARAM;
 551:TINYC256_192/falcon_cmd.c ****     }
 552:TINYC256_192/falcon_cmd.c ****     ptVdCmdHeader.byCmdType = CMDTYPE_STANDARD_TYPE_FW_ISP;
 1904              		.loc 1 552 5 is_stmt 1 view .LVU556
 1905              		.loc 1 552 29 is_stmt 0 view .LVU557
 1906 0016 0D23     		movs	r3, #13
 1907 0018 8DF80030 		strb	r3, [sp]
 553:TINYC256_192/falcon_cmd.c ****     ptVdCmdHeader.bySubCmd = SUBCMD_FW_ISP_AUTO_CAL_RMCOVER;
 1908              		.loc 1 553 5 is_stmt 1 view .LVU558
 1909              		.loc 1 553 28 is_stmt 0 view .LVU559
 1910 001c 0E23     		movs	r3, #14
 1911 001e 8DF80130 		strb	r3, [sp, #1]
 554:TINYC256_192/falcon_cmd.c ****     ptVdCmdHeader.byPara = zoom_scale;
 1912              		.loc 1 554 5 is_stmt 1 view .LVU560
 1913              		.loc 1 554 26 is_stmt 0 view .LVU561
 1914 0022 8DF80200 		strb	r0, [sp, #2]
ARM GAS  C:\usertemp\ccDXhwvm.s 			page 45


 555:TINYC256_192/falcon_cmd.c **** 
 556:TINYC256_192/falcon_cmd.c ****     return standard_cmd_write(&ptVdCmdHeader, wTmpLen, NULL);
 1915              		.loc 1 556 5 is_stmt 1 view .LVU562
 1916              		.loc 1 556 12 is_stmt 0 view .LVU563
 1917 0026 0022     		movs	r2, #0
 1918 0028 1146     		mov	r1, r2
 1919 002a 6846     		mov	r0, sp
 1920              	.LVL154:
 1921              		.loc 1 556 12 view .LVU564
 1922 002c FFF7FEFF 		bl	standard_cmd_write
 1923              	.LVL155:
 1924              	.L123:
 557:TINYC256_192/falcon_cmd.c **** }
 1925              		.loc 1 557 1 view .LVU565
 1926 0030 03B0     		add	sp, sp, #12
 1927              	.LCFI72:
 1928              		.cfi_remember_state
 1929              		.cfi_def_cfa_offset 4
 1930              		@ sp needed
 1931 0032 5DF804FB 		ldr	pc, [sp], #4
 1932              	.LVL156:
 1933              	.L124:
 1934              	.LCFI73:
 1935              		.cfi_restore_state
 550:TINYC256_192/falcon_cmd.c ****     }
 1936              		.loc 1 550 16 view .LVU566
 1937 0036 4FF0FF30 		mov	r0, #-1
 1938              	.LVL157:
 550:TINYC256_192/falcon_cmd.c ****     }
 1939              		.loc 1 550 16 view .LVU567
 1940 003a F9E7     		b	.L123
 1941              		.cfi_endproc
 1942              	.LFE181:
 1944              		.section	.text.pseudo_color_get,"ax",%progbits
 1945              		.align	1
 1946              		.global	pseudo_color_get
 1947              		.syntax unified
 1948              		.thumb
 1949              		.thumb_func
 1951              	pseudo_color_get:
 1952              	.LVL158:
 1953              	.LFB182:
 558:TINYC256_192/falcon_cmd.c **** 
 559:TINYC256_192/falcon_cmd.c **** // get pseudo color's index
 560:TINYC256_192/falcon_cmd.c **** ir_error_t pseudo_color_get(enum preview_path path, uint8_t *color_type)
 561:TINYC256_192/falcon_cmd.c **** {
 1954              		.loc 1 561 1 is_stmt 1 view -0
 1955              		.cfi_startproc
 1956              		@ args = 0, pretend = 0, frame = 8
 1957              		@ frame_needed = 0, uses_anonymous_args = 0
 1958              		.loc 1 561 1 is_stmt 0 view .LVU569
 1959 0000 00B5     		push	{lr}
 1960              	.LCFI74:
 1961              		.cfi_def_cfa_offset 4
 1962              		.cfi_offset 14, -4
 1963 0002 83B0     		sub	sp, sp, #12
 1964              	.LCFI75:
ARM GAS  C:\usertemp\ccDXhwvm.s 			page 46


 1965              		.cfi_def_cfa_offset 16
 562:TINYC256_192/falcon_cmd.c ****     uint16_t wTmpLen = 1;
 1966              		.loc 1 562 5 is_stmt 1 view .LVU570
 1967              	.LVL159:
 563:TINYC256_192/falcon_cmd.c ****     vdcmd_std_header_t ptVdCmdHeader = {0};
 1968              		.loc 1 563 5 view .LVU571
 1969              		.loc 1 563 24 is_stmt 0 view .LVU572
 1970 0004 0023     		movs	r3, #0
 1971 0006 0093     		str	r3, [sp]
 1972 0008 0193     		str	r3, [sp, #4]
 564:TINYC256_192/falcon_cmd.c **** 
 565:TINYC256_192/falcon_cmd.c ****     if (color_type == NULL)
 1973              		.loc 1 565 5 is_stmt 1 view .LVU573
 1974              		.loc 1 565 8 is_stmt 0 view .LVU574
 1975 000a 79B1     		cbz	r1, .L128
 1976 000c 0A46     		mov	r2, r1
 566:TINYC256_192/falcon_cmd.c ****     {
 567:TINYC256_192/falcon_cmd.c ****         // printf("parameter error\n");
 568:TINYC256_192/falcon_cmd.c ****         return IR_ERROR_PARAM;
 569:TINYC256_192/falcon_cmd.c ****     }
 570:TINYC256_192/falcon_cmd.c **** 
 571:TINYC256_192/falcon_cmd.c ****     ptVdCmdHeader.byCmdType = CMDTYPE_STANDARD_TYPE_ISP_PARAM;
 1977              		.loc 1 571 5 is_stmt 1 view .LVU575
 1978              		.loc 1 571 29 is_stmt 0 view .LVU576
 1979 000e 0923     		movs	r3, #9
 1980 0010 8DF80030 		strb	r3, [sp]
 572:TINYC256_192/falcon_cmd.c ****     ptVdCmdHeader.bySubCmd = SUBCMD_PSEUD_COLOR_GET;
 1981              		.loc 1 572 5 is_stmt 1 view .LVU577
 1982              		.loc 1 572 28 is_stmt 0 view .LVU578
 1983 0014 8423     		movs	r3, #132
 1984 0016 8DF80130 		strb	r3, [sp, #1]
 573:TINYC256_192/falcon_cmd.c ****     ptVdCmdHeader.byPara = path;
 1985              		.loc 1 573 5 is_stmt 1 view .LVU579
 1986              		.loc 1 573 26 is_stmt 0 view .LVU580
 1987 001a 8DF80200 		strb	r0, [sp, #2]
 574:TINYC256_192/falcon_cmd.c **** 
 575:TINYC256_192/falcon_cmd.c ****     return standard_cmd_read(&ptVdCmdHeader, wTmpLen, color_type);
 1988              		.loc 1 575 5 is_stmt 1 view .LVU581
 1989              		.loc 1 575 12 is_stmt 0 view .LVU582
 1990 001e 0121     		movs	r1, #1
 1991              	.LVL160:
 1992              		.loc 1 575 12 view .LVU583
 1993 0020 6846     		mov	r0, sp
 1994              	.LVL161:
 1995              		.loc 1 575 12 view .LVU584
 1996 0022 FFF7FEFF 		bl	standard_cmd_read
 1997              	.LVL162:
 1998              	.L127:
 576:TINYC256_192/falcon_cmd.c **** }
 1999              		.loc 1 576 1 view .LVU585
 2000 0026 03B0     		add	sp, sp, #12
 2001              	.LCFI76:
 2002              		.cfi_remember_state
 2003              		.cfi_def_cfa_offset 4
 2004              		@ sp needed
 2005 0028 5DF804FB 		ldr	pc, [sp], #4
 2006              	.LVL163:
ARM GAS  C:\usertemp\ccDXhwvm.s 			page 47


 2007              	.L128:
 2008              	.LCFI77:
 2009              		.cfi_restore_state
 568:TINYC256_192/falcon_cmd.c ****     }
 2010              		.loc 1 568 16 view .LVU586
 2011 002c 4FF0FF30 		mov	r0, #-1
 2012              	.LVL164:
 568:TINYC256_192/falcon_cmd.c ****     }
 2013              		.loc 1 568 16 view .LVU587
 2014 0030 F9E7     		b	.L127
 2015              		.cfi_endproc
 2016              	.LFE182:
 2018              		.section	.text.pseudo_color_set,"ax",%progbits
 2019              		.align	1
 2020              		.global	pseudo_color_set
 2021              		.syntax unified
 2022              		.thumb
 2023              		.thumb_func
 2025              	pseudo_color_set:
 2026              	.LVL165:
 2027              	.LFB183:
 577:TINYC256_192/falcon_cmd.c **** 
 578:TINYC256_192/falcon_cmd.c **** // set pseudo color's index
 579:TINYC256_192/falcon_cmd.c **** ir_error_t pseudo_color_set(enum preview_path path, enum pseudo_color_types color_type)
 580:TINYC256_192/falcon_cmd.c **** {
 2028              		.loc 1 580 1 is_stmt 1 view -0
 2029              		.cfi_startproc
 2030              		@ args = 0, pretend = 0, frame = 16
 2031              		@ frame_needed = 0, uses_anonymous_args = 0
 2032              		.loc 1 580 1 is_stmt 0 view .LVU589
 2033 0000 00B5     		push	{lr}
 2034              	.LCFI78:
 2035              		.cfi_def_cfa_offset 4
 2036              		.cfi_offset 14, -4
 2037 0002 85B0     		sub	sp, sp, #20
 2038              	.LCFI79:
 2039              		.cfi_def_cfa_offset 24
 581:TINYC256_192/falcon_cmd.c ****     uint16_t wTmpLen = 1;
 2040              		.loc 1 581 5 is_stmt 1 view .LVU590
 2041              	.LVL166:
 582:TINYC256_192/falcon_cmd.c ****     uint8_t data = color_type;
 2042              		.loc 1 582 5 view .LVU591
 2043              		.loc 1 582 13 is_stmt 0 view .LVU592
 2044 0004 8DF80F10 		strb	r1, [sp, #15]
 583:TINYC256_192/falcon_cmd.c ****     vdcmd_std_header_t ptVdCmdHeader = {0};
 2045              		.loc 1 583 5 is_stmt 1 view .LVU593
 2046              		.loc 1 583 24 is_stmt 0 view .LVU594
 2047 0008 0023     		movs	r3, #0
 2048 000a 0193     		str	r3, [sp, #4]
 2049 000c 0293     		str	r3, [sp, #8]
 584:TINYC256_192/falcon_cmd.c ****     ptVdCmdHeader.byCmdType = CMDTYPE_STANDARD_TYPE_ISP_PARAM;
 2050              		.loc 1 584 5 is_stmt 1 view .LVU595
 2051              		.loc 1 584 29 is_stmt 0 view .LVU596
 2052 000e 0923     		movs	r3, #9
 2053 0010 8DF80430 		strb	r3, [sp, #4]
 585:TINYC256_192/falcon_cmd.c ****     ptVdCmdHeader.bySubCmd = SUBCMD_PSEUD_COLOR_SET;
 2054              		.loc 1 585 5 is_stmt 1 view .LVU597
ARM GAS  C:\usertemp\ccDXhwvm.s 			page 48


 2055              		.loc 1 585 28 is_stmt 0 view .LVU598
 2056 0014 C423     		movs	r3, #196
 2057 0016 8DF80530 		strb	r3, [sp, #5]
 586:TINYC256_192/falcon_cmd.c ****     ptVdCmdHeader.byPara = path;
 2058              		.loc 1 586 5 is_stmt 1 view .LVU599
 2059              		.loc 1 586 26 is_stmt 0 view .LVU600
 2060 001a 8DF80600 		strb	r0, [sp, #6]
 587:TINYC256_192/falcon_cmd.c ****     if ((color_type < PSEUDO_COLOR_MODE_1) || (color_type > PSEUDO_COLOR_MODE_11))
 2061              		.loc 1 587 5 is_stmt 1 view .LVU601
 2062              		.loc 1 587 44 is_stmt 0 view .LVU602
 2063 001e 0139     		subs	r1, r1, #1
 2064              	.LVL167:
 2065              		.loc 1 587 44 view .LVU603
 2066 0020 C9B2     		uxtb	r1, r1
 2067              		.loc 1 587 8 view .LVU604
 2068 0022 0A29     		cmp	r1, #10
 2069 0024 08D8     		bhi	.L132
 588:TINYC256_192/falcon_cmd.c ****     {
 589:TINYC256_192/falcon_cmd.c ****         // printf("parameter error\r\n");
 590:TINYC256_192/falcon_cmd.c ****         return IR_ERROR_PARAM;
 591:TINYC256_192/falcon_cmd.c ****     }
 592:TINYC256_192/falcon_cmd.c **** 
 593:TINYC256_192/falcon_cmd.c ****     return standard_cmd_write(&ptVdCmdHeader, wTmpLen, &data);
 2070              		.loc 1 593 5 is_stmt 1 view .LVU605
 2071              		.loc 1 593 12 is_stmt 0 view .LVU606
 2072 0026 0DF10F02 		add	r2, sp, #15
 2073              	.LVL168:
 2074              		.loc 1 593 12 view .LVU607
 2075 002a 0121     		movs	r1, #1
 2076 002c 01A8     		add	r0, sp, #4
 2077              	.LVL169:
 2078              		.loc 1 593 12 view .LVU608
 2079 002e FFF7FEFF 		bl	standard_cmd_write
 2080              	.LVL170:
 2081              	.L131:
 594:TINYC256_192/falcon_cmd.c **** }
 2082              		.loc 1 594 1 view .LVU609
 2083 0032 05B0     		add	sp, sp, #20
 2084              	.LCFI80:
 2085              		.cfi_remember_state
 2086              		.cfi_def_cfa_offset 4
 2087              		@ sp needed
 2088 0034 5DF804FB 		ldr	pc, [sp], #4
 2089              	.LVL171:
 2090              	.L132:
 2091              	.LCFI81:
 2092              		.cfi_restore_state
 590:TINYC256_192/falcon_cmd.c ****     }
 2093              		.loc 1 590 16 view .LVU610
 2094 0038 4FF0FF30 		mov	r0, #-1
 2095              	.LVL172:
 590:TINYC256_192/falcon_cmd.c ****     }
 2096              		.loc 1 590 16 view .LVU611
 2097 003c F9E7     		b	.L131
 2098              		.cfi_endproc
 2099              	.LFE183:
 2101              		.section	.text.tpd_ktbt_recal_1point,"ax",%progbits
ARM GAS  C:\usertemp\ccDXhwvm.s 			page 49


 2102              		.align	1
 2103              		.global	tpd_ktbt_recal_1point
 2104              		.syntax unified
 2105              		.thumb
 2106              		.thumb_func
 2108              	tpd_ktbt_recal_1point:
 2109              	.LVL173:
 2110              	.LFB184:
 595:TINYC256_192/falcon_cmd.c **** 
 596:TINYC256_192/falcon_cmd.c **** // recalculate the kt_bt by 1 point's temperature
 597:TINYC256_192/falcon_cmd.c **** ir_error_t tpd_ktbt_recal_1point(uint16_t temp)
 598:TINYC256_192/falcon_cmd.c **** {
 2111              		.loc 1 598 1 is_stmt 1 view -0
 2112              		.cfi_startproc
 2113              		@ args = 0, pretend = 0, frame = 16
 2114              		@ frame_needed = 0, uses_anonymous_args = 0
 2115              		.loc 1 598 1 is_stmt 0 view .LVU613
 2116 0000 00B5     		push	{lr}
 2117              	.LCFI82:
 2118              		.cfi_def_cfa_offset 4
 2119              		.cfi_offset 14, -4
 2120 0002 85B0     		sub	sp, sp, #20
 2121              	.LCFI83:
 2122              		.cfi_def_cfa_offset 24
 599:TINYC256_192/falcon_cmd.c ****     uint8_t data[2] = {0};
 2123              		.loc 1 599 5 is_stmt 1 view .LVU614
 2124              		.loc 1 599 13 is_stmt 0 view .LVU615
 2125 0004 0023     		movs	r3, #0
 2126 0006 ADF80C30 		strh	r3, [sp, #12]	@ movhi
 600:TINYC256_192/falcon_cmd.c ****     uint16_t wTmpLen = 2;
 2127              		.loc 1 600 5 is_stmt 1 view .LVU616
 2128              	.LVL174:
 601:TINYC256_192/falcon_cmd.c ****     vdcmd_std_header_t ptVdCmdHeader = {0};
 2129              		.loc 1 601 5 view .LVU617
 2130              		.loc 1 601 24 is_stmt 0 view .LVU618
 2131 000a 0193     		str	r3, [sp, #4]
 2132 000c 0293     		str	r3, [sp, #8]
 602:TINYC256_192/falcon_cmd.c ****     ptVdCmdHeader.byCmdType = CMDTYPE_STANDARD_TYPE_TPD;
 2133              		.loc 1 602 5 is_stmt 1 view .LVU619
 2134              		.loc 1 602 29 is_stmt 0 view .LVU620
 2135 000e 0E23     		movs	r3, #14
 2136 0010 8DF80430 		strb	r3, [sp, #4]
 603:TINYC256_192/falcon_cmd.c ****     ptVdCmdHeader.bySubCmd = SUBCMD_TPD_KTBT_RECAL_1_POINT;
 2137              		.loc 1 603 5 is_stmt 1 view .LVU621
 2138              		.loc 1 603 28 is_stmt 0 view .LVU622
 2139 0014 C423     		movs	r3, #196
 2140 0016 8DF80530 		strb	r3, [sp, #5]
 604:TINYC256_192/falcon_cmd.c **** 
 605:TINYC256_192/falcon_cmd.c ****     data[0] = temp >> 8;
 2141              		.loc 1 605 5 is_stmt 1 view .LVU623
 2142              		.loc 1 605 13 is_stmt 0 view .LVU624
 2143 001a 030A     		lsrs	r3, r0, #8
 2144 001c 8DF80C30 		strb	r3, [sp, #12]
 606:TINYC256_192/falcon_cmd.c ****     data[1] = temp & 0xFF;
 2145              		.loc 1 606 5 is_stmt 1 view .LVU625
 2146              		.loc 1 606 13 is_stmt 0 view .LVU626
 2147 0020 8DF80D00 		strb	r0, [sp, #13]
ARM GAS  C:\usertemp\ccDXhwvm.s 			page 50


 607:TINYC256_192/falcon_cmd.c ****     return standard_cmd_write(&ptVdCmdHeader, wTmpLen, data);
 2148              		.loc 1 607 5 is_stmt 1 view .LVU627
 2149              		.loc 1 607 12 is_stmt 0 view .LVU628
 2150 0024 03AA     		add	r2, sp, #12
 2151 0026 0221     		movs	r1, #2
 2152 0028 01A8     		add	r0, sp, #4
 2153              	.LVL175:
 2154              		.loc 1 607 12 view .LVU629
 2155 002a FFF7FEFF 		bl	standard_cmd_write
 2156              	.LVL176:
 608:TINYC256_192/falcon_cmd.c **** }
 2157              		.loc 1 608 1 view .LVU630
 2158 002e 05B0     		add	sp, sp, #20
 2159              	.LCFI84:
 2160              		.cfi_def_cfa_offset 4
 2161              		@ sp needed
 2162 0030 5DF804FB 		ldr	pc, [sp], #4
 2163              		.cfi_endproc
 2164              	.LFE184:
 2166              		.section	.text.tpd_ktbt_recal_2point,"ax",%progbits
 2167              		.align	1
 2168              		.global	tpd_ktbt_recal_2point
 2169              		.syntax unified
 2170              		.thumb
 2171              		.thumb_func
 2173              	tpd_ktbt_recal_2point:
 2174              	.LVL177:
 2175              	.LFB185:
 609:TINYC256_192/falcon_cmd.c **** 
 610:TINYC256_192/falcon_cmd.c **** // recalculate the kt_bt by 2 points' temperature
 611:TINYC256_192/falcon_cmd.c **** ir_error_t tpd_ktbt_recal_2point(enum tpd_ktbt_recal_point_idx point_idx, uint16_t temp)
 612:TINYC256_192/falcon_cmd.c **** {
 2176              		.loc 1 612 1 is_stmt 1 view -0
 2177              		.cfi_startproc
 2178              		@ args = 0, pretend = 0, frame = 16
 2179              		@ frame_needed = 0, uses_anonymous_args = 0
 2180              		.loc 1 612 1 is_stmt 0 view .LVU632
 2181 0000 00B5     		push	{lr}
 2182              	.LCFI85:
 2183              		.cfi_def_cfa_offset 4
 2184              		.cfi_offset 14, -4
 2185 0002 85B0     		sub	sp, sp, #20
 2186              	.LCFI86:
 2187              		.cfi_def_cfa_offset 24
 613:TINYC256_192/falcon_cmd.c ****     uint8_t data[2] = {0};
 2188              		.loc 1 613 5 is_stmt 1 view .LVU633
 2189              		.loc 1 613 13 is_stmt 0 view .LVU634
 2190 0004 0023     		movs	r3, #0
 2191 0006 ADF80C30 		strh	r3, [sp, #12]	@ movhi
 614:TINYC256_192/falcon_cmd.c ****     uint16_t wTmpLen = 2;
 2192              		.loc 1 614 5 is_stmt 1 view .LVU635
 2193              	.LVL178:
 615:TINYC256_192/falcon_cmd.c ****     vdcmd_std_header_t ptVdCmdHeader = {0};
 2194              		.loc 1 615 5 view .LVU636
 2195              		.loc 1 615 24 is_stmt 0 view .LVU637
 2196 000a 0193     		str	r3, [sp, #4]
 2197 000c 0293     		str	r3, [sp, #8]
ARM GAS  C:\usertemp\ccDXhwvm.s 			page 51


 616:TINYC256_192/falcon_cmd.c ****     ptVdCmdHeader.byCmdType = CMDTYPE_STANDARD_TYPE_TPD;
 2198              		.loc 1 616 5 is_stmt 1 view .LVU638
 2199              		.loc 1 616 29 is_stmt 0 view .LVU639
 2200 000e 0E23     		movs	r3, #14
 2201 0010 8DF80430 		strb	r3, [sp, #4]
 617:TINYC256_192/falcon_cmd.c ****     ptVdCmdHeader.bySubCmd = SUBCMD_TPD_KTBT_RECAL_2_POINT;
 2202              		.loc 1 617 5 is_stmt 1 view .LVU640
 2203              		.loc 1 617 28 is_stmt 0 view .LVU641
 2204 0014 C523     		movs	r3, #197
 2205 0016 8DF80530 		strb	r3, [sp, #5]
 618:TINYC256_192/falcon_cmd.c ****     if (point_idx == TPD_KTBT_RECAL_P1)
 2206              		.loc 1 618 5 is_stmt 1 view .LVU642
 2207              		.loc 1 618 8 is_stmt 0 view .LVU643
 2208 001a 18B1     		cbz	r0, .L137
 619:TINYC256_192/falcon_cmd.c ****     {
 620:TINYC256_192/falcon_cmd.c ****         ptVdCmdHeader.byPara = 0x00;
 621:TINYC256_192/falcon_cmd.c ****     }
 622:TINYC256_192/falcon_cmd.c ****     else if (point_idx == TPD_KTBT_RECAL_P2)
 2209              		.loc 1 622 10 is_stmt 1 view .LVU644
 2210              		.loc 1 622 13 is_stmt 0 view .LVU645
 2211 001c 0128     		cmp	r0, #1
 2212 001e 0ED1     		bne	.L139
 623:TINYC256_192/falcon_cmd.c ****     {
 624:TINYC256_192/falcon_cmd.c ****         ptVdCmdHeader.byPara = 0x01;
 2213              		.loc 1 624 9 is_stmt 1 view .LVU646
 2214              		.loc 1 624 30 is_stmt 0 view .LVU647
 2215 0020 8DF80600 		strb	r0, [sp, #6]
 2216              	.L137:
 625:TINYC256_192/falcon_cmd.c ****     }
 626:TINYC256_192/falcon_cmd.c ****     else
 627:TINYC256_192/falcon_cmd.c ****     {
 628:TINYC256_192/falcon_cmd.c ****         // printf("error parameter\n");
 629:TINYC256_192/falcon_cmd.c ****         return IR_ERROR_PARAM;
 630:TINYC256_192/falcon_cmd.c ****     }
 631:TINYC256_192/falcon_cmd.c **** 
 632:TINYC256_192/falcon_cmd.c ****     data[0] = temp >> 8;
 2217              		.loc 1 632 5 is_stmt 1 view .LVU648
 2218              		.loc 1 632 13 is_stmt 0 view .LVU649
 2219 0024 0B0A     		lsrs	r3, r1, #8
 2220 0026 8DF80C30 		strb	r3, [sp, #12]
 633:TINYC256_192/falcon_cmd.c ****     data[1] = temp & 0xFF;
 2221              		.loc 1 633 5 is_stmt 1 view .LVU650
 2222              		.loc 1 633 13 is_stmt 0 view .LVU651
 2223 002a 8DF80D10 		strb	r1, [sp, #13]
 634:TINYC256_192/falcon_cmd.c ****     return standard_cmd_write(&ptVdCmdHeader, wTmpLen, data);
 2224              		.loc 1 634 5 is_stmt 1 view .LVU652
 2225              		.loc 1 634 12 is_stmt 0 view .LVU653
 2226 002e 03AA     		add	r2, sp, #12
 2227 0030 0221     		movs	r1, #2
 2228              	.LVL179:
 2229              		.loc 1 634 12 view .LVU654
 2230 0032 01A8     		add	r0, sp, #4
 2231              	.LVL180:
 2232              		.loc 1 634 12 view .LVU655
 2233 0034 FFF7FEFF 		bl	standard_cmd_write
 2234              	.LVL181:
 2235              	.L138:
ARM GAS  C:\usertemp\ccDXhwvm.s 			page 52


 635:TINYC256_192/falcon_cmd.c **** }
 2236              		.loc 1 635 1 view .LVU656
 2237 0038 05B0     		add	sp, sp, #20
 2238              	.LCFI87:
 2239              		.cfi_remember_state
 2240              		.cfi_def_cfa_offset 4
 2241              		@ sp needed
 2242 003a 5DF804FB 		ldr	pc, [sp], #4
 2243              	.LVL182:
 2244              	.L139:
 2245              	.LCFI88:
 2246              		.cfi_restore_state
 629:TINYC256_192/falcon_cmd.c ****     }
 2247              		.loc 1 629 16 view .LVU657
 2248 003e 4FF0FF30 		mov	r0, #-1
 2249              	.LVL183:
 629:TINYC256_192/falcon_cmd.c ****     }
 2250              		.loc 1 629 16 view .LVU658
 2251 0042 F9E7     		b	.L138
 2252              		.cfi_endproc
 2253              	.LFE185:
 2255              		.section	.text.tpd_get_max_temp,"ax",%progbits
 2256              		.align	1
 2257              		.global	tpd_get_max_temp
 2258              		.syntax unified
 2259              		.thumb
 2260              		.thumb_func
 2262              	tpd_get_max_temp:
 2263              	.LVL184:
 2264              	.LFB186:
 636:TINYC256_192/falcon_cmd.c **** 
 637:TINYC256_192/falcon_cmd.c **** // long command
 638:TINYC256_192/falcon_cmd.c **** ir_error_t tpd_get_max_temp(uint16_t *max_temp)
 639:TINYC256_192/falcon_cmd.c **** {
 2265              		.loc 1 639 1 is_stmt 1 view -0
 2266              		.cfi_startproc
 2267              		@ args = 0, pretend = 0, frame = 24
 2268              		@ frame_needed = 0, uses_anonymous_args = 0
 2269              		.loc 1 639 1 is_stmt 0 view .LVU660
 2270 0000 10B5     		push	{r4, lr}
 2271              	.LCFI89:
 2272              		.cfi_def_cfa_offset 8
 2273              		.cfi_offset 4, -8
 2274              		.cfi_offset 14, -4
 2275 0002 88B0     		sub	sp, sp, #32
 2276              	.LCFI90:
 2277              		.cfi_def_cfa_offset 40
 2278 0004 0446     		mov	r4, r0
 640:TINYC256_192/falcon_cmd.c ****     ir_error_t rst;
 2279              		.loc 1 640 5 is_stmt 1 view .LVU661
 641:TINYC256_192/falcon_cmd.c ****     uint8_t data[2] = {0};
 2280              		.loc 1 641 5 view .LVU662
 2281              		.loc 1 641 13 is_stmt 0 view .LVU663
 2282 0006 0021     		movs	r1, #0
 2283 0008 ADF81C10 		strh	r1, [sp, #28]	@ movhi
 642:TINYC256_192/falcon_cmd.c ****     uint16_t wParam = 0;
 2284              		.loc 1 642 5 is_stmt 1 view .LVU664
ARM GAS  C:\usertemp\ccDXhwvm.s 			page 53


 2285              	.LVL185:
 643:TINYC256_192/falcon_cmd.c ****     uint32_t dwAddr1 = 0;
 2286              		.loc 1 643 5 view .LVU665
 644:TINYC256_192/falcon_cmd.c ****     uint32_t dwAddr2 = 0;
 2287              		.loc 1 644 5 view .LVU666
 645:TINYC256_192/falcon_cmd.c ****     vdcmd_long_header_t ptVdCmdHeader = {0};
 2288              		.loc 1 645 5 view .LVU667
 2289              		.loc 1 645 25 is_stmt 0 view .LVU668
 2290 000c 0391     		str	r1, [sp, #12]
 2291 000e 0491     		str	r1, [sp, #16]
 2292 0010 0591     		str	r1, [sp, #20]
 2293 0012 0691     		str	r1, [sp, #24]
 646:TINYC256_192/falcon_cmd.c ****     ptVdCmdHeader.byCmdType = CMDTYPE_LONG_TYPE_TPD;
 2294              		.loc 1 646 5 is_stmt 1 view .LVU669
 2295              		.loc 1 646 29 is_stmt 0 view .LVU670
 2296 0014 1123     		movs	r3, #17
 2297 0016 8DF80C30 		strb	r3, [sp, #12]
 647:TINYC256_192/falcon_cmd.c ****     ptVdCmdHeader.bySubCmd = SUBCMD_TPD_GET_MAX_TEMP;
 2298              		.loc 1 647 5 is_stmt 1 view .LVU671
 2299              		.loc 1 647 28 is_stmt 0 view .LVU672
 2300 001a 8123     		movs	r3, #129
 2301 001c 8DF80D30 		strb	r3, [sp, #13]
 648:TINYC256_192/falcon_cmd.c **** 
 649:TINYC256_192/falcon_cmd.c ****     rst = long_cmd_read(&ptVdCmdHeader, wParam, dwAddr1, dwAddr2, 2, data);
 2302              		.loc 1 649 5 is_stmt 1 view .LVU673
 2303              		.loc 1 649 11 is_stmt 0 view .LVU674
 2304 0020 07AB     		add	r3, sp, #28
 2305 0022 0193     		str	r3, [sp, #4]
 2306 0024 0223     		movs	r3, #2
 2307 0026 0093     		str	r3, [sp]
 2308 0028 0B46     		mov	r3, r1
 2309 002a 0A46     		mov	r2, r1
 2310 002c 03A8     		add	r0, sp, #12
 2311              	.LVL186:
 2312              		.loc 1 649 11 view .LVU675
 2313 002e FFF7FEFF 		bl	long_cmd_read
 2314              	.LVL187:
 650:TINYC256_192/falcon_cmd.c ****     *max_temp = ((uint16_t)data[0] << 8) + data[1];
 2315              		.loc 1 650 5 is_stmt 1 view .LVU676
 2316              		.loc 1 650 32 is_stmt 0 view .LVU677
 2317 0032 9DF81C20 		ldrb	r2, [sp, #28]	@ zero_extendqisi2
 2318              		.loc 1 650 48 view .LVU678
 2319 0036 9DF81D30 		ldrb	r3, [sp, #29]	@ zero_extendqisi2
 2320              		.loc 1 650 42 view .LVU679
 2321 003a 03EB0223 		add	r3, r3, r2, lsl #8
 2322              		.loc 1 650 15 view .LVU680
 2323 003e 2380     		strh	r3, [r4]	@ movhi
 651:TINYC256_192/falcon_cmd.c ****     return rst;
 2324              		.loc 1 651 5 is_stmt 1 view .LVU681
 652:TINYC256_192/falcon_cmd.c **** }
 2325              		.loc 1 652 1 is_stmt 0 view .LVU682
 2326 0040 08B0     		add	sp, sp, #32
 2327              	.LCFI91:
 2328              		.cfi_def_cfa_offset 8
 2329              		@ sp needed
 2330 0042 10BD     		pop	{r4, pc}
 2331              		.loc 1 652 1 view .LVU683
ARM GAS  C:\usertemp\ccDXhwvm.s 			page 54


 2332              		.cfi_endproc
 2333              	.LFE186:
 2335              		.section	.text.tpd_get_min_temp,"ax",%progbits
 2336              		.align	1
 2337              		.global	tpd_get_min_temp
 2338              		.syntax unified
 2339              		.thumb
 2340              		.thumb_func
 2342              	tpd_get_min_temp:
 2343              	.LVL188:
 2344              	.LFB187:
 653:TINYC256_192/falcon_cmd.c **** 
 654:TINYC256_192/falcon_cmd.c **** ir_error_t tpd_get_min_temp(uint16_t *min_temp)
 655:TINYC256_192/falcon_cmd.c **** {
 2345              		.loc 1 655 1 is_stmt 1 view -0
 2346              		.cfi_startproc
 2347              		@ args = 0, pretend = 0, frame = 24
 2348              		@ frame_needed = 0, uses_anonymous_args = 0
 2349              		.loc 1 655 1 is_stmt 0 view .LVU685
 2350 0000 10B5     		push	{r4, lr}
 2351              	.LCFI92:
 2352              		.cfi_def_cfa_offset 8
 2353              		.cfi_offset 4, -8
 2354              		.cfi_offset 14, -4
 2355 0002 88B0     		sub	sp, sp, #32
 2356              	.LCFI93:
 2357              		.cfi_def_cfa_offset 40
 2358 0004 0446     		mov	r4, r0
 656:TINYC256_192/falcon_cmd.c ****     ir_error_t rst;
 2359              		.loc 1 656 5 is_stmt 1 view .LVU686
 657:TINYC256_192/falcon_cmd.c ****     uint8_t data[2] = {0};
 2360              		.loc 1 657 5 view .LVU687
 2361              		.loc 1 657 13 is_stmt 0 view .LVU688
 2362 0006 0021     		movs	r1, #0
 2363 0008 ADF81C10 		strh	r1, [sp, #28]	@ movhi
 658:TINYC256_192/falcon_cmd.c ****     uint16_t wParam = 0;
 2364              		.loc 1 658 5 is_stmt 1 view .LVU689
 2365              	.LVL189:
 659:TINYC256_192/falcon_cmd.c ****     uint32_t dwAddr1 = 0;
 2366              		.loc 1 659 5 view .LVU690
 660:TINYC256_192/falcon_cmd.c ****     uint32_t dwAddr2 = 0;
 2367              		.loc 1 660 5 view .LVU691
 661:TINYC256_192/falcon_cmd.c ****     vdcmd_long_header_t ptVdCmdHeader = {0};
 2368              		.loc 1 661 5 view .LVU692
 2369              		.loc 1 661 25 is_stmt 0 view .LVU693
 2370 000c 0391     		str	r1, [sp, #12]
 2371 000e 0491     		str	r1, [sp, #16]
 2372 0010 0591     		str	r1, [sp, #20]
 2373 0012 0691     		str	r1, [sp, #24]
 662:TINYC256_192/falcon_cmd.c ****     ptVdCmdHeader.byCmdType = CMDTYPE_LONG_TYPE_TPD;
 2374              		.loc 1 662 5 is_stmt 1 view .LVU694
 2375              		.loc 1 662 29 is_stmt 0 view .LVU695
 2376 0014 1123     		movs	r3, #17
 2377 0016 8DF80C30 		strb	r3, [sp, #12]
 663:TINYC256_192/falcon_cmd.c ****     ptVdCmdHeader.bySubCmd = SUBCMD_TPD_GET_MIN_TEMP;
 2378              		.loc 1 663 5 is_stmt 1 view .LVU696
 2379              		.loc 1 663 28 is_stmt 0 view .LVU697
ARM GAS  C:\usertemp\ccDXhwvm.s 			page 55


 2380 001a 8223     		movs	r3, #130
 2381 001c 8DF80D30 		strb	r3, [sp, #13]
 664:TINYC256_192/falcon_cmd.c **** 
 665:TINYC256_192/falcon_cmd.c ****     rst = long_cmd_read(&ptVdCmdHeader, wParam, dwAddr1, dwAddr2, 2, data);
 2382              		.loc 1 665 5 is_stmt 1 view .LVU698
 2383              		.loc 1 665 11 is_stmt 0 view .LVU699
 2384 0020 07AB     		add	r3, sp, #28
 2385 0022 0193     		str	r3, [sp, #4]
 2386 0024 0223     		movs	r3, #2
 2387 0026 0093     		str	r3, [sp]
 2388 0028 0B46     		mov	r3, r1
 2389 002a 0A46     		mov	r2, r1
 2390 002c 03A8     		add	r0, sp, #12
 2391              	.LVL190:
 2392              		.loc 1 665 11 view .LVU700
 2393 002e FFF7FEFF 		bl	long_cmd_read
 2394              	.LVL191:
 666:TINYC256_192/falcon_cmd.c ****     *min_temp = ((uint16_t)data[0] << 8) + data[1];
 2395              		.loc 1 666 5 is_stmt 1 view .LVU701
 2396              		.loc 1 666 32 is_stmt 0 view .LVU702
 2397 0032 9DF81C20 		ldrb	r2, [sp, #28]	@ zero_extendqisi2
 2398              		.loc 1 666 48 view .LVU703
 2399 0036 9DF81D30 		ldrb	r3, [sp, #29]	@ zero_extendqisi2
 2400              		.loc 1 666 42 view .LVU704
 2401 003a 03EB0223 		add	r3, r3, r2, lsl #8
 2402              		.loc 1 666 15 view .LVU705
 2403 003e 2380     		strh	r3, [r4]	@ movhi
 667:TINYC256_192/falcon_cmd.c ****     return rst;
 2404              		.loc 1 667 5 is_stmt 1 view .LVU706
 668:TINYC256_192/falcon_cmd.c **** }
 2405              		.loc 1 668 1 is_stmt 0 view .LVU707
 2406 0040 08B0     		add	sp, sp, #32
 2407              	.LCFI94:
 2408              		.cfi_def_cfa_offset 8
 2409              		@ sp needed
 2410 0042 10BD     		pop	{r4, pc}
 2411              		.loc 1 668 1 view .LVU708
 2412              		.cfi_endproc
 2413              	.LFE187:
 2415              		.section	.text.tpd_get_max_min_temp_info,"ax",%progbits
 2416              		.align	1
 2417              		.global	tpd_get_max_min_temp_info
 2418              		.syntax unified
 2419              		.thumb
 2420              		.thumb_func
 2422              	tpd_get_max_min_temp_info:
 2423              	.LVL192:
 2424              	.LFB188:
 669:TINYC256_192/falcon_cmd.c **** 
 670:TINYC256_192/falcon_cmd.c **** // get the max and min temp info of the whole frame
 671:TINYC256_192/falcon_cmd.c **** ir_error_t tpd_get_max_min_temp_info(MaxMinTempInfo_t *max_min_temp_info)
 672:TINYC256_192/falcon_cmd.c **** {
 2425              		.loc 1 672 1 is_stmt 1 view -0
 2426              		.cfi_startproc
 2427              		@ args = 0, pretend = 0, frame = 32
 2428              		@ frame_needed = 0, uses_anonymous_args = 0
 2429              		.loc 1 672 1 is_stmt 0 view .LVU710
ARM GAS  C:\usertemp\ccDXhwvm.s 			page 56


 2430 0000 10B5     		push	{r4, lr}
 2431              	.LCFI95:
 2432              		.cfi_def_cfa_offset 8
 2433              		.cfi_offset 4, -8
 2434              		.cfi_offset 14, -4
 2435 0002 8AB0     		sub	sp, sp, #40
 2436              	.LCFI96:
 2437              		.cfi_def_cfa_offset 48
 2438 0004 0446     		mov	r4, r0
 673:TINYC256_192/falcon_cmd.c ****     ir_error_t rst;
 2439              		.loc 1 673 5 is_stmt 1 view .LVU711
 674:TINYC256_192/falcon_cmd.c ****     uint8_t data[12] = {0};
 2440              		.loc 1 674 5 view .LVU712
 2441              		.loc 1 674 13 is_stmt 0 view .LVU713
 2442 0006 07AB     		add	r3, sp, #28
 2443 0008 0021     		movs	r1, #0
 2444 000a 0791     		str	r1, [sp, #28]
 2445 000c 0891     		str	r1, [sp, #32]
 2446 000e 0991     		str	r1, [sp, #36]
 675:TINYC256_192/falcon_cmd.c ****     uint16_t wParam = 0;
 2447              		.loc 1 675 5 is_stmt 1 view .LVU714
 2448              	.LVL193:
 676:TINYC256_192/falcon_cmd.c ****     uint32_t dwAddr1 = 0;
 2449              		.loc 1 676 5 view .LVU715
 677:TINYC256_192/falcon_cmd.c ****     uint32_t dwAddr2 = 0;
 2450              		.loc 1 677 5 view .LVU716
 678:TINYC256_192/falcon_cmd.c ****     vdcmd_long_header_t ptVdCmdHeader = {0};
 2451              		.loc 1 678 5 view .LVU717
 2452              		.loc 1 678 25 is_stmt 0 view .LVU718
 2453 0010 0391     		str	r1, [sp, #12]
 2454 0012 0491     		str	r1, [sp, #16]
 2455 0014 0591     		str	r1, [sp, #20]
 2456 0016 0691     		str	r1, [sp, #24]
 679:TINYC256_192/falcon_cmd.c ****     ptVdCmdHeader.byCmdType = CMDTYPE_LONG_TYPE_TPD;
 2457              		.loc 1 679 5 is_stmt 1 view .LVU719
 2458              		.loc 1 679 29 is_stmt 0 view .LVU720
 2459 0018 1122     		movs	r2, #17
 2460 001a 8DF80C20 		strb	r2, [sp, #12]
 680:TINYC256_192/falcon_cmd.c ****     ptVdCmdHeader.bySubCmd = SUBCMD_TPD_GET_MAX_MIN_TEMP_INFO;
 2461              		.loc 1 680 5 is_stmt 1 view .LVU721
 2462              		.loc 1 680 28 is_stmt 0 view .LVU722
 2463 001e 8322     		movs	r2, #131
 2464 0020 8DF80D20 		strb	r2, [sp, #13]
 681:TINYC256_192/falcon_cmd.c **** 
 682:TINYC256_192/falcon_cmd.c ****     rst = long_cmd_read(&ptVdCmdHeader, wParam, dwAddr1, dwAddr2, 12, data);
 2465              		.loc 1 682 5 is_stmt 1 view .LVU723
 2466              		.loc 1 682 11 is_stmt 0 view .LVU724
 2467 0024 0193     		str	r3, [sp, #4]
 2468 0026 0C23     		movs	r3, #12
 2469 0028 0093     		str	r3, [sp]
 2470 002a 0B46     		mov	r3, r1
 2471 002c 0A46     		mov	r2, r1
 2472 002e 03A8     		add	r0, sp, #12
 2473              	.LVL194:
 2474              		.loc 1 682 11 view .LVU725
 2475 0030 FFF7FEFF 		bl	long_cmd_read
 2476              	.LVL195:
ARM GAS  C:\usertemp\ccDXhwvm.s 			page 57


 683:TINYC256_192/falcon_cmd.c ****     max_min_temp_info->max_temp = ((uint16_t)data[0] << 8) + data[1];
 2477              		.loc 1 683 5 is_stmt 1 view .LVU726
 2478              		.loc 1 683 50 is_stmt 0 view .LVU727
 2479 0034 9DF81C20 		ldrb	r2, [sp, #28]	@ zero_extendqisi2
 2480              		.loc 1 683 66 view .LVU728
 2481 0038 9DF81D30 		ldrb	r3, [sp, #29]	@ zero_extendqisi2
 2482              		.loc 1 683 60 view .LVU729
 2483 003c 03EB0223 		add	r3, r3, r2, lsl #8
 2484              		.loc 1 683 33 view .LVU730
 2485 0040 2380     		strh	r3, [r4]	@ unaligned
 684:TINYC256_192/falcon_cmd.c ****     max_min_temp_info->min_temp = ((uint16_t)data[2] << 8) + data[3];
 2486              		.loc 1 684 5 is_stmt 1 view .LVU731
 2487              		.loc 1 684 50 is_stmt 0 view .LVU732
 2488 0042 9DF81E20 		ldrb	r2, [sp, #30]	@ zero_extendqisi2
 2489              		.loc 1 684 66 view .LVU733
 2490 0046 9DF81F30 		ldrb	r3, [sp, #31]	@ zero_extendqisi2
 2491              		.loc 1 684 60 view .LVU734
 2492 004a 03EB0223 		add	r3, r3, r2, lsl #8
 2493              		.loc 1 684 33 view .LVU735
 2494 004e 6380     		strh	r3, [r4, #2]	@ unaligned
 685:TINYC256_192/falcon_cmd.c ****     max_min_temp_info->max_temp_point.x = ((uint16_t)data[4] << 8) + data[5];
 2495              		.loc 1 685 5 is_stmt 1 view .LVU736
 2496              		.loc 1 685 58 is_stmt 0 view .LVU737
 2497 0050 9DF82020 		ldrb	r2, [sp, #32]	@ zero_extendqisi2
 2498              		.loc 1 685 74 view .LVU738
 2499 0054 9DF82130 		ldrb	r3, [sp, #33]	@ zero_extendqisi2
 2500              		.loc 1 685 68 view .LVU739
 2501 0058 03EB0223 		add	r3, r3, r2, lsl #8
 2502              		.loc 1 685 41 view .LVU740
 2503 005c A380     		strh	r3, [r4, #4]	@ unaligned
 686:TINYC256_192/falcon_cmd.c ****     max_min_temp_info->max_temp_point.y = ((uint16_t)data[6] << 8) + data[7];
 2504              		.loc 1 686 5 is_stmt 1 view .LVU741
 2505              		.loc 1 686 58 is_stmt 0 view .LVU742
 2506 005e 9DF82220 		ldrb	r2, [sp, #34]	@ zero_extendqisi2
 2507              		.loc 1 686 74 view .LVU743
 2508 0062 9DF82330 		ldrb	r3, [sp, #35]	@ zero_extendqisi2
 2509              		.loc 1 686 68 view .LVU744
 2510 0066 03EB0223 		add	r3, r3, r2, lsl #8
 2511              		.loc 1 686 41 view .LVU745
 2512 006a E380     		strh	r3, [r4, #6]	@ unaligned
 687:TINYC256_192/falcon_cmd.c ****     max_min_temp_info->min_temp_point.x = ((uint16_t)data[8] << 8) + data[9];
 2513              		.loc 1 687 5 is_stmt 1 view .LVU746
 2514              		.loc 1 687 58 is_stmt 0 view .LVU747
 2515 006c 9DF82420 		ldrb	r2, [sp, #36]	@ zero_extendqisi2
 2516              		.loc 1 687 74 view .LVU748
 2517 0070 9DF82530 		ldrb	r3, [sp, #37]	@ zero_extendqisi2
 2518              		.loc 1 687 68 view .LVU749
 2519 0074 03EB0223 		add	r3, r3, r2, lsl #8
 2520              		.loc 1 687 41 view .LVU750
 2521 0078 2381     		strh	r3, [r4, #8]	@ unaligned
 688:TINYC256_192/falcon_cmd.c ****     max_min_temp_info->min_temp_point.y = ((uint16_t)data[10] << 8) + data[11];
 2522              		.loc 1 688 5 is_stmt 1 view .LVU751
 2523              		.loc 1 688 58 is_stmt 0 view .LVU752
 2524 007a 9DF82620 		ldrb	r2, [sp, #38]	@ zero_extendqisi2
 2525              		.loc 1 688 75 view .LVU753
 2526 007e 9DF82730 		ldrb	r3, [sp, #39]	@ zero_extendqisi2
 2527              		.loc 1 688 69 view .LVU754
ARM GAS  C:\usertemp\ccDXhwvm.s 			page 58


 2528 0082 03EB0223 		add	r3, r3, r2, lsl #8
 2529              		.loc 1 688 41 view .LVU755
 2530 0086 6381     		strh	r3, [r4, #10]	@ unaligned
 689:TINYC256_192/falcon_cmd.c ****     return rst;
 2531              		.loc 1 689 5 is_stmt 1 view .LVU756
 690:TINYC256_192/falcon_cmd.c **** }
 2532              		.loc 1 690 1 is_stmt 0 view .LVU757
 2533 0088 0AB0     		add	sp, sp, #40
 2534              	.LCFI97:
 2535              		.cfi_def_cfa_offset 8
 2536              		@ sp needed
 2537 008a 10BD     		pop	{r4, pc}
 2538              		.loc 1 690 1 view .LVU758
 2539              		.cfi_endproc
 2540              	.LFE188:
 2542              		.section	.text.tpd_get_point_temp_info,"ax",%progbits
 2543              		.align	1
 2544              		.global	tpd_get_point_temp_info
 2545              		.syntax unified
 2546              		.thumb
 2547              		.thumb_func
 2549              	tpd_get_point_temp_info:
 2550              	.LVL196:
 2551              	.LFB189:
 691:TINYC256_192/falcon_cmd.c **** 
 692:TINYC256_192/falcon_cmd.c **** ir_error_t tpd_get_point_temp_info(IrPoint_t point_pos, uint16_t *point_temp_value)
 693:TINYC256_192/falcon_cmd.c **** {
 2552              		.loc 1 693 1 is_stmt 1 view -0
 2553              		.cfi_startproc
 2554              		@ args = 0, pretend = 0, frame = 32
 2555              		@ frame_needed = 0, uses_anonymous_args = 0
 2556              		.loc 1 693 1 is_stmt 0 view .LVU760
 2557 0000 10B5     		push	{r4, lr}
 2558              	.LCFI98:
 2559              		.cfi_def_cfa_offset 8
 2560              		.cfi_offset 4, -8
 2561              		.cfi_offset 14, -4
 2562 0002 8AB0     		sub	sp, sp, #40
 2563              	.LCFI99:
 2564              		.cfi_def_cfa_offset 48
 2565 0004 0390     		str	r0, [sp, #12]
 2566 0006 0C46     		mov	r4, r1
 694:TINYC256_192/falcon_cmd.c ****     ir_error_t rst;
 2567              		.loc 1 694 5 is_stmt 1 view .LVU761
 695:TINYC256_192/falcon_cmd.c ****     uint8_t data[2] = {0};
 2568              		.loc 1 695 5 view .LVU762
 2569              		.loc 1 695 13 is_stmt 0 view .LVU763
 2570 0008 0021     		movs	r1, #0
 2571              	.LVL197:
 2572              		.loc 1 695 13 view .LVU764
 2573 000a ADF82410 		strh	r1, [sp, #36]	@ movhi
 696:TINYC256_192/falcon_cmd.c ****     uint16_t wParam = 0;
 2574              		.loc 1 696 5 is_stmt 1 view .LVU765
 2575              	.LVL198:
 697:TINYC256_192/falcon_cmd.c ****     uint32_t dwAddr1 = 0;
 2576              		.loc 1 697 5 view .LVU766
 698:TINYC256_192/falcon_cmd.c ****     uint32_t dwAddr2 = 0;
ARM GAS  C:\usertemp\ccDXhwvm.s 			page 59


 2577              		.loc 1 698 5 view .LVU767
 699:TINYC256_192/falcon_cmd.c ****     vdcmd_long_header_t ptVdCmdHeader = {0};
 2578              		.loc 1 699 5 view .LVU768
 2579              		.loc 1 699 25 is_stmt 0 view .LVU769
 2580 000e 0591     		str	r1, [sp, #20]
 2581 0010 0691     		str	r1, [sp, #24]
 2582 0012 0791     		str	r1, [sp, #28]
 2583 0014 0891     		str	r1, [sp, #32]
 700:TINYC256_192/falcon_cmd.c ****     ptVdCmdHeader.byCmdType = CMDTYPE_LONG_TYPE_TPD;
 2584              		.loc 1 700 5 is_stmt 1 view .LVU770
 2585              		.loc 1 700 29 is_stmt 0 view .LVU771
 2586 0016 1123     		movs	r3, #17
 2587 0018 8DF81430 		strb	r3, [sp, #20]
 701:TINYC256_192/falcon_cmd.c ****     ptVdCmdHeader.bySubCmd = SUBCMD_TPD_GET_POINT_TEMP;
 2588              		.loc 1 701 5 is_stmt 1 view .LVU772
 2589              		.loc 1 701 28 is_stmt 0 view .LVU773
 2590 001c 8623     		movs	r3, #134
 2591 001e 8DF81530 		strb	r3, [sp, #21]
 702:TINYC256_192/falcon_cmd.c ****     dwAddr1 = (((uint32_t)point_pos.x) << 16) | point_pos.y;
 2592              		.loc 1 702 5 is_stmt 1 view .LVU774
 2593              		.loc 1 702 36 is_stmt 0 view .LVU775
 2594 0022 BDF80C00 		ldrh	r0, [sp, #12]
 2595              		.loc 1 702 58 view .LVU776
 2596 0026 BDF80E20 		ldrh	r2, [sp, #14]
 2597              	.LVL199:
 703:TINYC256_192/falcon_cmd.c ****     rst = long_cmd_read(&ptVdCmdHeader, wParam, dwAddr1, dwAddr2, 12, data);
 2598              		.loc 1 703 5 is_stmt 1 view .LVU777
 2599              		.loc 1 703 11 is_stmt 0 view .LVU778
 2600 002a 09AB     		add	r3, sp, #36
 2601 002c 0193     		str	r3, [sp, #4]
 2602 002e 0C23     		movs	r3, #12
 2603 0030 0093     		str	r3, [sp]
 2604 0032 0B46     		mov	r3, r1
 2605 0034 42EA0042 		orr	r2, r2, r0, lsl #16
 2606              	.LVL200:
 2607              		.loc 1 703 11 view .LVU779
 2608 0038 05A8     		add	r0, sp, #20
 2609 003a FFF7FEFF 		bl	long_cmd_read
 2610              	.LVL201:
 704:TINYC256_192/falcon_cmd.c ****     *point_temp_value = ((uint16_t)data[0] << 8) + data[1];
 2611              		.loc 1 704 5 is_stmt 1 view .LVU780
 2612              		.loc 1 704 40 is_stmt 0 view .LVU781
 2613 003e 9DF82420 		ldrb	r2, [sp, #36]	@ zero_extendqisi2
 2614              		.loc 1 704 56 view .LVU782
 2615 0042 9DF82530 		ldrb	r3, [sp, #37]	@ zero_extendqisi2
 2616              		.loc 1 704 50 view .LVU783
 2617 0046 03EB0223 		add	r3, r3, r2, lsl #8
 2618              		.loc 1 704 23 view .LVU784
 2619 004a 2380     		strh	r3, [r4]	@ movhi
 705:TINYC256_192/falcon_cmd.c ****     return rst;
 2620              		.loc 1 705 5 is_stmt 1 view .LVU785
 706:TINYC256_192/falcon_cmd.c **** }
 2621              		.loc 1 706 1 is_stmt 0 view .LVU786
 2622 004c 0AB0     		add	sp, sp, #40
 2623              	.LCFI100:
 2624              		.cfi_def_cfa_offset 8
 2625              		@ sp needed
ARM GAS  C:\usertemp\ccDXhwvm.s 			page 60


 2626 004e 10BD     		pop	{r4, pc}
 2627              		.loc 1 706 1 view .LVU787
 2628              		.cfi_endproc
 2629              	.LFE189:
 2631              		.section	.text.tpd_get_line_temp_info,"ax",%progbits
 2632              		.align	1
 2633              		.global	tpd_get_line_temp_info
 2634              		.syntax unified
 2635              		.thumb
 2636              		.thumb_func
 2638              	tpd_get_line_temp_info:
 2639              	.LVL202:
 2640              	.LFB190:
 707:TINYC256_192/falcon_cmd.c **** 
 708:TINYC256_192/falcon_cmd.c **** // get temp info of the line
 709:TINYC256_192/falcon_cmd.c **** ir_error_t tpd_get_line_temp_info(IrLine_t line_pos, TpdLineRectTempInfo_t *line_temp_info)
 710:TINYC256_192/falcon_cmd.c **** {
 2641              		.loc 1 710 1 is_stmt 1 view -0
 2642              		.cfi_startproc
 2643              		@ args = 0, pretend = 0, frame = 40
 2644              		@ frame_needed = 0, uses_anonymous_args = 0
 2645              		.loc 1 710 1 is_stmt 0 view .LVU789
 2646 0000 10B5     		push	{r4, lr}
 2647              	.LCFI101:
 2648              		.cfi_def_cfa_offset 8
 2649              		.cfi_offset 4, -8
 2650              		.cfi_offset 14, -4
 2651 0002 8CB0     		sub	sp, sp, #48
 2652              	.LCFI102:
 2653              		.cfi_def_cfa_offset 56
 2654 0004 02AB     		add	r3, sp, #8
 2655 0006 83E80300 		stm	r3, {r0, r1}
 2656 000a 1446     		mov	r4, r2
 711:TINYC256_192/falcon_cmd.c ****     ir_error_t rst;
 2657              		.loc 1 711 5 is_stmt 1 view .LVU790
 712:TINYC256_192/falcon_cmd.c ****     uint8_t data[14] = {0};
 2658              		.loc 1 712 5 view .LVU791
 2659              		.loc 1 712 13 is_stmt 0 view .LVU792
 2660 000c 08A8     		add	r0, sp, #32
 2661 000e 0021     		movs	r1, #0
 2662 0010 0891     		str	r1, [sp, #32]
 2663 0012 0991     		str	r1, [sp, #36]
 2664 0014 0A91     		str	r1, [sp, #40]
 2665 0016 ADF82C10 		strh	r1, [sp, #44]	@ movhi
 713:TINYC256_192/falcon_cmd.c ****     uint16_t wParam = 0;
 2666              		.loc 1 713 5 is_stmt 1 view .LVU793
 2667              	.LVL203:
 714:TINYC256_192/falcon_cmd.c ****     uint32_t dwAddr1 = 0;
 2668              		.loc 1 714 5 view .LVU794
 715:TINYC256_192/falcon_cmd.c ****     uint32_t dwAddr2 = 0;
 2669              		.loc 1 715 5 view .LVU795
 716:TINYC256_192/falcon_cmd.c ****     vdcmd_long_header_t ptVdCmdHeader = {0};
 2670              		.loc 1 716 5 view .LVU796
 2671              		.loc 1 716 25 is_stmt 0 view .LVU797
 2672 001a 0491     		str	r1, [sp, #16]
 2673 001c 0591     		str	r1, [sp, #20]
 2674 001e 0691     		str	r1, [sp, #24]
ARM GAS  C:\usertemp\ccDXhwvm.s 			page 61


 2675 0020 0791     		str	r1, [sp, #28]
 717:TINYC256_192/falcon_cmd.c ****     ptVdCmdHeader.byCmdType = CMDTYPE_LONG_TYPE_TPD;
 2676              		.loc 1 717 5 is_stmt 1 view .LVU798
 2677              		.loc 1 717 29 is_stmt 0 view .LVU799
 2678 0022 1123     		movs	r3, #17
 2679 0024 8DF81030 		strb	r3, [sp, #16]
 718:TINYC256_192/falcon_cmd.c ****     ptVdCmdHeader.bySubCmd = SUBCMD_TPD_GET_LINE_TEMP;
 2680              		.loc 1 718 5 is_stmt 1 view .LVU800
 2681              		.loc 1 718 28 is_stmt 0 view .LVU801
 2682 0028 8923     		movs	r3, #137
 2683 002a 8DF81130 		strb	r3, [sp, #17]
 719:TINYC256_192/falcon_cmd.c ****     dwAddr1 = (((uint32_t)line_pos.start_point.x) << 16) | line_pos.start_point.y;
 2684              		.loc 1 719 5 is_stmt 1 view .LVU802
 2685              		.loc 1 719 47 is_stmt 0 view .LVU803
 2686 002e BDF808C0 		ldrh	ip, [sp, #8]
 2687              		.loc 1 719 80 view .LVU804
 2688 0032 BDF80A20 		ldrh	r2, [sp, #10]
 2689              	.LVL204:
 720:TINYC256_192/falcon_cmd.c ****     dwAddr2 = (((uint32_t)line_pos.end_point.x) << 16) | line_pos.end_point.y;
 2690              		.loc 1 720 5 is_stmt 1 view .LVU805
 2691              		.loc 1 720 45 is_stmt 0 view .LVU806
 2692 0036 BDF80CE0 		ldrh	lr, [sp, #12]
 2693              		.loc 1 720 76 view .LVU807
 2694 003a BDF80E30 		ldrh	r3, [sp, #14]
 2695              	.LVL205:
 721:TINYC256_192/falcon_cmd.c **** 
 722:TINYC256_192/falcon_cmd.c ****     rst = long_cmd_read(&ptVdCmdHeader, wParam, dwAddr1, dwAddr2, 14, data);
 2696              		.loc 1 722 5 is_stmt 1 view .LVU808
 2697              		.loc 1 722 11 is_stmt 0 view .LVU809
 2698 003e 0190     		str	r0, [sp, #4]
 2699 0040 0E20     		movs	r0, #14
 2700 0042 0090     		str	r0, [sp]
 2701 0044 43EA0E43 		orr	r3, r3, lr, lsl #16
 2702              	.LVL206:
 2703              		.loc 1 722 11 view .LVU810
 2704 0048 42EA0C42 		orr	r2, r2, ip, lsl #16
 2705              	.LVL207:
 2706              		.loc 1 722 11 view .LVU811
 2707 004c 04A8     		add	r0, sp, #16
 2708 004e FFF7FEFF 		bl	long_cmd_read
 2709              	.LVL208:
 723:TINYC256_192/falcon_cmd.c ****     line_temp_info->temp_info_value.ave_temp = ((uint16_t)data[0] << 8) + data[1];
 2710              		.loc 1 723 5 is_stmt 1 view .LVU812
 2711              		.loc 1 723 63 is_stmt 0 view .LVU813
 2712 0052 9DF82020 		ldrb	r2, [sp, #32]	@ zero_extendqisi2
 2713              		.loc 1 723 79 view .LVU814
 2714 0056 9DF82130 		ldrb	r3, [sp, #33]	@ zero_extendqisi2
 2715              		.loc 1 723 73 view .LVU815
 2716 005a 03EB0223 		add	r3, r3, r2, lsl #8
 2717              		.loc 1 723 46 view .LVU816
 2718 005e 2380     		strh	r3, [r4]	@ unaligned
 724:TINYC256_192/falcon_cmd.c ****     line_temp_info->temp_info_value.max_temp = ((uint16_t)data[2] << 8) + data[3];
 2719              		.loc 1 724 5 is_stmt 1 view .LVU817
 2720              		.loc 1 724 63 is_stmt 0 view .LVU818
 2721 0060 9DF82220 		ldrb	r2, [sp, #34]	@ zero_extendqisi2
 2722              		.loc 1 724 79 view .LVU819
 2723 0064 9DF82330 		ldrb	r3, [sp, #35]	@ zero_extendqisi2
ARM GAS  C:\usertemp\ccDXhwvm.s 			page 62


 2724              		.loc 1 724 73 view .LVU820
 2725 0068 03EB0223 		add	r3, r3, r2, lsl #8
 2726              		.loc 1 724 46 view .LVU821
 2727 006c 6380     		strh	r3, [r4, #2]	@ unaligned
 725:TINYC256_192/falcon_cmd.c ****     line_temp_info->temp_info_value.min_temp = ((uint16_t)data[4] << 8) + data[5];
 2728              		.loc 1 725 5 is_stmt 1 view .LVU822
 2729              		.loc 1 725 63 is_stmt 0 view .LVU823
 2730 006e 9DF82420 		ldrb	r2, [sp, #36]	@ zero_extendqisi2
 2731              		.loc 1 725 79 view .LVU824
 2732 0072 9DF82530 		ldrb	r3, [sp, #37]	@ zero_extendqisi2
 2733              		.loc 1 725 73 view .LVU825
 2734 0076 03EB0223 		add	r3, r3, r2, lsl #8
 2735              		.loc 1 725 46 view .LVU826
 2736 007a A380     		strh	r3, [r4, #4]	@ unaligned
 726:TINYC256_192/falcon_cmd.c ****     line_temp_info->max_temp_point.x = ((uint16_t)data[6] << 8) + data[7];
 2737              		.loc 1 726 5 is_stmt 1 view .LVU827
 2738              		.loc 1 726 55 is_stmt 0 view .LVU828
 2739 007c 9DF82620 		ldrb	r2, [sp, #38]	@ zero_extendqisi2
 2740              		.loc 1 726 71 view .LVU829
 2741 0080 9DF82730 		ldrb	r3, [sp, #39]	@ zero_extendqisi2
 2742              		.loc 1 726 65 view .LVU830
 2743 0084 03EB0223 		add	r3, r3, r2, lsl #8
 2744              		.loc 1 726 38 view .LVU831
 2745 0088 E380     		strh	r3, [r4, #6]	@ unaligned
 727:TINYC256_192/falcon_cmd.c ****     line_temp_info->max_temp_point.y = ((uint16_t)data[8] << 8) + data[9];
 2746              		.loc 1 727 5 is_stmt 1 view .LVU832
 2747              		.loc 1 727 55 is_stmt 0 view .LVU833
 2748 008a 9DF82820 		ldrb	r2, [sp, #40]	@ zero_extendqisi2
 2749              		.loc 1 727 71 view .LVU834
 2750 008e 9DF82930 		ldrb	r3, [sp, #41]	@ zero_extendqisi2
 2751              		.loc 1 727 65 view .LVU835
 2752 0092 03EB0223 		add	r3, r3, r2, lsl #8
 2753              		.loc 1 727 38 view .LVU836
 2754 0096 2381     		strh	r3, [r4, #8]	@ unaligned
 728:TINYC256_192/falcon_cmd.c ****     line_temp_info->min_temp_point.x = ((uint16_t)data[10] << 8) + data[11];
 2755              		.loc 1 728 5 is_stmt 1 view .LVU837
 2756              		.loc 1 728 55 is_stmt 0 view .LVU838
 2757 0098 9DF82A20 		ldrb	r2, [sp, #42]	@ zero_extendqisi2
 2758              		.loc 1 728 72 view .LVU839
 2759 009c 9DF82B30 		ldrb	r3, [sp, #43]	@ zero_extendqisi2
 2760              		.loc 1 728 66 view .LVU840
 2761 00a0 03EB0223 		add	r3, r3, r2, lsl #8
 2762              		.loc 1 728 38 view .LVU841
 2763 00a4 6381     		strh	r3, [r4, #10]	@ unaligned
 729:TINYC256_192/falcon_cmd.c ****     line_temp_info->min_temp_point.y = ((uint16_t)data[12] << 8) + data[13];
 2764              		.loc 1 729 5 is_stmt 1 view .LVU842
 2765              		.loc 1 729 55 is_stmt 0 view .LVU843
 2766 00a6 9DF82C20 		ldrb	r2, [sp, #44]	@ zero_extendqisi2
 2767              		.loc 1 729 72 view .LVU844
 2768 00aa 9DF82D30 		ldrb	r3, [sp, #45]	@ zero_extendqisi2
 2769              		.loc 1 729 66 view .LVU845
 2770 00ae 03EB0223 		add	r3, r3, r2, lsl #8
 2771              		.loc 1 729 38 view .LVU846
 2772 00b2 A381     		strh	r3, [r4, #12]	@ unaligned
 730:TINYC256_192/falcon_cmd.c ****     return rst;
 2773              		.loc 1 730 5 is_stmt 1 view .LVU847
 731:TINYC256_192/falcon_cmd.c **** }
ARM GAS  C:\usertemp\ccDXhwvm.s 			page 63


 2774              		.loc 1 731 1 is_stmt 0 view .LVU848
 2775 00b4 0CB0     		add	sp, sp, #48
 2776              	.LCFI103:
 2777              		.cfi_def_cfa_offset 8
 2778              		@ sp needed
 2779 00b6 10BD     		pop	{r4, pc}
 2780              		.loc 1 731 1 view .LVU849
 2781              		.cfi_endproc
 2782              	.LFE190:
 2784              		.section	.text.tpd_get_rect_temp_info,"ax",%progbits
 2785              		.align	1
 2786              		.global	tpd_get_rect_temp_info
 2787              		.syntax unified
 2788              		.thumb
 2789              		.thumb_func
 2791              	tpd_get_rect_temp_info:
 2792              	.LVL209:
 2793              	.LFB191:
 732:TINYC256_192/falcon_cmd.c **** 
 733:TINYC256_192/falcon_cmd.c **** // get temp info of the rect
 734:TINYC256_192/falcon_cmd.c **** ir_error_t tpd_get_rect_temp_info(IrRect_t rect_pos, TpdLineRectTempInfo_t *rect_temp_info)
 735:TINYC256_192/falcon_cmd.c **** {
 2794              		.loc 1 735 1 is_stmt 1 view -0
 2795              		.cfi_startproc
 2796              		@ args = 0, pretend = 0, frame = 40
 2797              		@ frame_needed = 0, uses_anonymous_args = 0
 2798              		.loc 1 735 1 is_stmt 0 view .LVU851
 2799 0000 10B5     		push	{r4, lr}
 2800              	.LCFI104:
 2801              		.cfi_def_cfa_offset 8
 2802              		.cfi_offset 4, -8
 2803              		.cfi_offset 14, -4
 2804 0002 8CB0     		sub	sp, sp, #48
 2805              	.LCFI105:
 2806              		.cfi_def_cfa_offset 56
 2807 0004 02AB     		add	r3, sp, #8
 2808 0006 83E80300 		stm	r3, {r0, r1}
 2809 000a 1446     		mov	r4, r2
 736:TINYC256_192/falcon_cmd.c ****     ir_error_t rst;
 2810              		.loc 1 736 5 is_stmt 1 view .LVU852
 737:TINYC256_192/falcon_cmd.c ****     uint8_t data[14] = {0};
 2811              		.loc 1 737 5 view .LVU853
 2812              		.loc 1 737 13 is_stmt 0 view .LVU854
 2813 000c 08A8     		add	r0, sp, #32
 2814 000e 0021     		movs	r1, #0
 2815 0010 0891     		str	r1, [sp, #32]
 2816 0012 0991     		str	r1, [sp, #36]
 2817 0014 0A91     		str	r1, [sp, #40]
 2818 0016 ADF82C10 		strh	r1, [sp, #44]	@ movhi
 738:TINYC256_192/falcon_cmd.c ****     uint16_t wParam = 0;
 2819              		.loc 1 738 5 is_stmt 1 view .LVU855
 2820              	.LVL210:
 739:TINYC256_192/falcon_cmd.c ****     uint32_t dwAddr1 = 0;
 2821              		.loc 1 739 5 view .LVU856
 740:TINYC256_192/falcon_cmd.c ****     uint32_t dwAddr2 = 0;
 2822              		.loc 1 740 5 view .LVU857
 741:TINYC256_192/falcon_cmd.c ****     vdcmd_long_header_t ptVdCmdHeader = {0};
ARM GAS  C:\usertemp\ccDXhwvm.s 			page 64


 2823              		.loc 1 741 5 view .LVU858
 2824              		.loc 1 741 25 is_stmt 0 view .LVU859
 2825 001a 0491     		str	r1, [sp, #16]
 2826 001c 0591     		str	r1, [sp, #20]
 2827 001e 0691     		str	r1, [sp, #24]
 2828 0020 0791     		str	r1, [sp, #28]
 742:TINYC256_192/falcon_cmd.c ****     ptVdCmdHeader.byCmdType = CMDTYPE_LONG_TYPE_TPD;
 2829              		.loc 1 742 5 is_stmt 1 view .LVU860
 2830              		.loc 1 742 29 is_stmt 0 view .LVU861
 2831 0022 1123     		movs	r3, #17
 2832 0024 8DF81030 		strb	r3, [sp, #16]
 743:TINYC256_192/falcon_cmd.c ****     ptVdCmdHeader.bySubCmd = SUBCMD_TPD_GET_RECT_TEMP;
 2833              		.loc 1 743 5 is_stmt 1 view .LVU862
 2834              		.loc 1 743 28 is_stmt 0 view .LVU863
 2835 0028 8C23     		movs	r3, #140
 2836 002a 8DF81130 		strb	r3, [sp, #17]
 744:TINYC256_192/falcon_cmd.c ****     dwAddr1 = (((uint32_t)rect_pos.start_point.x) << 16) | rect_pos.start_point.y;
 2837              		.loc 1 744 5 is_stmt 1 view .LVU864
 2838              		.loc 1 744 47 is_stmt 0 view .LVU865
 2839 002e BDF808C0 		ldrh	ip, [sp, #8]
 2840              		.loc 1 744 80 view .LVU866
 2841 0032 BDF80A20 		ldrh	r2, [sp, #10]
 2842              	.LVL211:
 745:TINYC256_192/falcon_cmd.c ****     dwAddr2 = (((uint32_t)rect_pos.end_point.x) << 16) | rect_pos.end_point.y;
 2843              		.loc 1 745 5 is_stmt 1 view .LVU867
 2844              		.loc 1 745 45 is_stmt 0 view .LVU868
 2845 0036 BDF80CE0 		ldrh	lr, [sp, #12]
 2846              		.loc 1 745 76 view .LVU869
 2847 003a BDF80E30 		ldrh	r3, [sp, #14]
 2848              	.LVL212:
 746:TINYC256_192/falcon_cmd.c **** 
 747:TINYC256_192/falcon_cmd.c ****     rst = long_cmd_read(&ptVdCmdHeader, wParam, dwAddr1, dwAddr2, 14, data);
 2849              		.loc 1 747 5 is_stmt 1 view .LVU870
 2850              		.loc 1 747 11 is_stmt 0 view .LVU871
 2851 003e 0190     		str	r0, [sp, #4]
 2852 0040 0E20     		movs	r0, #14
 2853 0042 0090     		str	r0, [sp]
 2854 0044 43EA0E43 		orr	r3, r3, lr, lsl #16
 2855              	.LVL213:
 2856              		.loc 1 747 11 view .LVU872
 2857 0048 42EA0C42 		orr	r2, r2, ip, lsl #16
 2858              	.LVL214:
 2859              		.loc 1 747 11 view .LVU873
 2860 004c 04A8     		add	r0, sp, #16
 2861 004e FFF7FEFF 		bl	long_cmd_read
 2862              	.LVL215:
 748:TINYC256_192/falcon_cmd.c ****     rect_temp_info->temp_info_value.ave_temp = ((uint16_t)data[0] << 8) + data[1];
 2863              		.loc 1 748 5 is_stmt 1 view .LVU874
 2864              		.loc 1 748 63 is_stmt 0 view .LVU875
 2865 0052 9DF82020 		ldrb	r2, [sp, #32]	@ zero_extendqisi2
 2866              		.loc 1 748 79 view .LVU876
 2867 0056 9DF82130 		ldrb	r3, [sp, #33]	@ zero_extendqisi2
 2868              		.loc 1 748 73 view .LVU877
 2869 005a 03EB0223 		add	r3, r3, r2, lsl #8
 2870              		.loc 1 748 46 view .LVU878
 2871 005e 2380     		strh	r3, [r4]	@ unaligned
 749:TINYC256_192/falcon_cmd.c ****     rect_temp_info->temp_info_value.max_temp = ((uint16_t)data[2] << 8) + data[3];
ARM GAS  C:\usertemp\ccDXhwvm.s 			page 65


 2872              		.loc 1 749 5 is_stmt 1 view .LVU879
 2873              		.loc 1 749 63 is_stmt 0 view .LVU880
 2874 0060 9DF82220 		ldrb	r2, [sp, #34]	@ zero_extendqisi2
 2875              		.loc 1 749 79 view .LVU881
 2876 0064 9DF82330 		ldrb	r3, [sp, #35]	@ zero_extendqisi2
 2877              		.loc 1 749 73 view .LVU882
 2878 0068 03EB0223 		add	r3, r3, r2, lsl #8
 2879              		.loc 1 749 46 view .LVU883
 2880 006c 6380     		strh	r3, [r4, #2]	@ unaligned
 750:TINYC256_192/falcon_cmd.c ****     rect_temp_info->temp_info_value.min_temp = ((uint16_t)data[4] << 8) + data[5];
 2881              		.loc 1 750 5 is_stmt 1 view .LVU884
 2882              		.loc 1 750 63 is_stmt 0 view .LVU885
 2883 006e 9DF82420 		ldrb	r2, [sp, #36]	@ zero_extendqisi2
 2884              		.loc 1 750 79 view .LVU886
 2885 0072 9DF82530 		ldrb	r3, [sp, #37]	@ zero_extendqisi2
 2886              		.loc 1 750 73 view .LVU887
 2887 0076 03EB0223 		add	r3, r3, r2, lsl #8
 2888              		.loc 1 750 46 view .LVU888
 2889 007a A380     		strh	r3, [r4, #4]	@ unaligned
 751:TINYC256_192/falcon_cmd.c ****     rect_temp_info->max_temp_point.x = ((uint16_t)data[6] << 8) + data[7];
 2890              		.loc 1 751 5 is_stmt 1 view .LVU889
 2891              		.loc 1 751 55 is_stmt 0 view .LVU890
 2892 007c 9DF82620 		ldrb	r2, [sp, #38]	@ zero_extendqisi2
 2893              		.loc 1 751 71 view .LVU891
 2894 0080 9DF82730 		ldrb	r3, [sp, #39]	@ zero_extendqisi2
 2895              		.loc 1 751 65 view .LVU892
 2896 0084 03EB0223 		add	r3, r3, r2, lsl #8
 2897              		.loc 1 751 38 view .LVU893
 2898 0088 E380     		strh	r3, [r4, #6]	@ unaligned
 752:TINYC256_192/falcon_cmd.c ****     rect_temp_info->max_temp_point.y = ((uint16_t)data[8] << 8) + data[9];
 2899              		.loc 1 752 5 is_stmt 1 view .LVU894
 2900              		.loc 1 752 55 is_stmt 0 view .LVU895
 2901 008a 9DF82820 		ldrb	r2, [sp, #40]	@ zero_extendqisi2
 2902              		.loc 1 752 71 view .LVU896
 2903 008e 9DF82930 		ldrb	r3, [sp, #41]	@ zero_extendqisi2
 2904              		.loc 1 752 65 view .LVU897
 2905 0092 03EB0223 		add	r3, r3, r2, lsl #8
 2906              		.loc 1 752 38 view .LVU898
 2907 0096 2381     		strh	r3, [r4, #8]	@ unaligned
 753:TINYC256_192/falcon_cmd.c ****     rect_temp_info->min_temp_point.x = ((uint16_t)data[10] << 8) + data[11];
 2908              		.loc 1 753 5 is_stmt 1 view .LVU899
 2909              		.loc 1 753 55 is_stmt 0 view .LVU900
 2910 0098 9DF82A20 		ldrb	r2, [sp, #42]	@ zero_extendqisi2
 2911              		.loc 1 753 72 view .LVU901
 2912 009c 9DF82B30 		ldrb	r3, [sp, #43]	@ zero_extendqisi2
 2913              		.loc 1 753 66 view .LVU902
 2914 00a0 03EB0223 		add	r3, r3, r2, lsl #8
 2915              		.loc 1 753 38 view .LVU903
 2916 00a4 6381     		strh	r3, [r4, #10]	@ unaligned
 754:TINYC256_192/falcon_cmd.c ****     rect_temp_info->min_temp_point.y = ((uint16_t)data[12] << 8) + data[13];
 2917              		.loc 1 754 5 is_stmt 1 view .LVU904
 2918              		.loc 1 754 55 is_stmt 0 view .LVU905
 2919 00a6 9DF82C20 		ldrb	r2, [sp, #44]	@ zero_extendqisi2
 2920              		.loc 1 754 72 view .LVU906
 2921 00aa 9DF82D30 		ldrb	r3, [sp, #45]	@ zero_extendqisi2
 2922              		.loc 1 754 66 view .LVU907
 2923 00ae 03EB0223 		add	r3, r3, r2, lsl #8
ARM GAS  C:\usertemp\ccDXhwvm.s 			page 66


 2924              		.loc 1 754 38 view .LVU908
 2925 00b2 A381     		strh	r3, [r4, #12]	@ unaligned
 755:TINYC256_192/falcon_cmd.c ****     return rst;
 2926              		.loc 1 755 5 is_stmt 1 view .LVU909
 756:TINYC256_192/falcon_cmd.c **** }
 2927              		.loc 1 756 1 is_stmt 0 view .LVU910
 2928 00b4 0CB0     		add	sp, sp, #48
 2929              	.LCFI106:
 2930              		.cfi_def_cfa_offset 8
 2931              		@ sp needed
 2932 00b6 10BD     		pop	{r4, pc}
 2933              		.loc 1 756 1 view .LVU911
 2934              		.cfi_endproc
 2935              	.LFE191:
 2937              		.section	.text.zoom_center_up,"ax",%progbits
 2938              		.align	1
 2939              		.global	zoom_center_up
 2940              		.syntax unified
 2941              		.thumb
 2942              		.thumb_func
 2944              	zoom_center_up:
 2945              	.LVL216:
 2946              	.LFB192:
 757:TINYC256_192/falcon_cmd.c **** 
 758:TINYC256_192/falcon_cmd.c **** ir_error_t zoom_center_up(enum preview_path path, enum zoom_scale_step scale_step)
 759:TINYC256_192/falcon_cmd.c **** {
 2947              		.loc 1 759 1 is_stmt 1 view -0
 2948              		.cfi_startproc
 2949              		@ args = 0, pretend = 0, frame = 16
 2950              		@ frame_needed = 0, uses_anonymous_args = 0
 2951              		.loc 1 759 1 is_stmt 0 view .LVU913
 2952 0000 00B5     		push	{lr}
 2953              	.LCFI107:
 2954              		.cfi_def_cfa_offset 4
 2955              		.cfi_offset 14, -4
 2956 0002 87B0     		sub	sp, sp, #28
 2957              	.LCFI108:
 2958              		.cfi_def_cfa_offset 32
 760:TINYC256_192/falcon_cmd.c ****     uint16_t wParam = 0;
 2959              		.loc 1 760 5 is_stmt 1 view .LVU914
 2960              	.LVL217:
 761:TINYC256_192/falcon_cmd.c ****     vdcmd_long_header_t ptVdCmdHeader = {0};
 2961              		.loc 1 761 5 view .LVU915
 2962              		.loc 1 761 25 is_stmt 0 view .LVU916
 2963 0004 0022     		movs	r2, #0
 2964 0006 0292     		str	r2, [sp, #8]
 2965 0008 0392     		str	r2, [sp, #12]
 2966 000a 0492     		str	r2, [sp, #16]
 2967 000c 0592     		str	r2, [sp, #20]
 762:TINYC256_192/falcon_cmd.c ****     ptVdCmdHeader.byCmdType = CMDTYPE_LONG_TYPE_ZOOM;
 2968              		.loc 1 762 5 is_stmt 1 view .LVU917
 2969              		.loc 1 762 29 is_stmt 0 view .LVU918
 2970 000e 1223     		movs	r3, #18
 2971 0010 8DF80830 		strb	r3, [sp, #8]
 763:TINYC256_192/falcon_cmd.c ****     ptVdCmdHeader.bySubCmd = SUBCMD_ZOOM_CENTER_UP;
 2972              		.loc 1 763 5 is_stmt 1 view .LVU919
 2973              		.loc 1 763 28 is_stmt 0 view .LVU920
ARM GAS  C:\usertemp\ccDXhwvm.s 			page 67


 2974 0014 0123     		movs	r3, #1
 2975 0016 8DF80930 		strb	r3, [sp, #9]
 764:TINYC256_192/falcon_cmd.c ****     wParam = (path << 8) | (scale_step);
 2976              		.loc 1 764 5 is_stmt 1 view .LVU921
 2977              	.LVL218:
 765:TINYC256_192/falcon_cmd.c **** 
 766:TINYC256_192/falcon_cmd.c ****     return long_cmd_write(&ptVdCmdHeader, wParam, 0, 0, 0);
 2978              		.loc 1 766 5 view .LVU922
 2979              		.loc 1 766 12 is_stmt 0 view .LVU923
 2980 001a 0092     		str	r2, [sp]
 2981 001c 1346     		mov	r3, r2
 2982 001e 41EA0021 		orr	r1, r1, r0, lsl #8
 2983              	.LVL219:
 2984              		.loc 1 766 12 view .LVU924
 2985 0022 02A8     		add	r0, sp, #8
 2986              	.LVL220:
 2987              		.loc 1 766 12 view .LVU925
 2988 0024 FFF7FEFF 		bl	long_cmd_write
 2989              	.LVL221:
 767:TINYC256_192/falcon_cmd.c **** }
 2990              		.loc 1 767 1 view .LVU926
 2991 0028 07B0     		add	sp, sp, #28
 2992              	.LCFI109:
 2993              		.cfi_def_cfa_offset 4
 2994              		@ sp needed
 2995 002a 5DF804FB 		ldr	pc, [sp], #4
 2996              		.cfi_endproc
 2997              	.LFE192:
 2999              		.section	.text.zoom_center_down,"ax",%progbits
 3000              		.align	1
 3001              		.global	zoom_center_down
 3002              		.syntax unified
 3003              		.thumb
 3004              		.thumb_func
 3006              	zoom_center_down:
 3007              	.LVL222:
 3008              	.LFB193:
 768:TINYC256_192/falcon_cmd.c **** 
 769:TINYC256_192/falcon_cmd.c **** ir_error_t zoom_center_down(enum preview_path path, enum zoom_scale_step scale_step)
 770:TINYC256_192/falcon_cmd.c **** {
 3009              		.loc 1 770 1 is_stmt 1 view -0
 3010              		.cfi_startproc
 3011              		@ args = 0, pretend = 0, frame = 16
 3012              		@ frame_needed = 0, uses_anonymous_args = 0
 3013              		.loc 1 770 1 is_stmt 0 view .LVU928
 3014 0000 00B5     		push	{lr}
 3015              	.LCFI110:
 3016              		.cfi_def_cfa_offset 4
 3017              		.cfi_offset 14, -4
 3018 0002 87B0     		sub	sp, sp, #28
 3019              	.LCFI111:
 3020              		.cfi_def_cfa_offset 32
 771:TINYC256_192/falcon_cmd.c ****     uint16_t wParam = 0;
 3021              		.loc 1 771 5 is_stmt 1 view .LVU929
 3022              	.LVL223:
 772:TINYC256_192/falcon_cmd.c ****     vdcmd_long_header_t ptVdCmdHeader = {0};
 3023              		.loc 1 772 5 view .LVU930
ARM GAS  C:\usertemp\ccDXhwvm.s 			page 68


 3024              		.loc 1 772 25 is_stmt 0 view .LVU931
 3025 0004 0022     		movs	r2, #0
 3026 0006 0292     		str	r2, [sp, #8]
 3027 0008 0392     		str	r2, [sp, #12]
 3028 000a 0492     		str	r2, [sp, #16]
 3029 000c 0592     		str	r2, [sp, #20]
 773:TINYC256_192/falcon_cmd.c ****     ptVdCmdHeader.byCmdType = CMDTYPE_LONG_TYPE_ZOOM;
 3030              		.loc 1 773 5 is_stmt 1 view .LVU932
 3031              		.loc 1 773 29 is_stmt 0 view .LVU933
 3032 000e 1223     		movs	r3, #18
 3033 0010 8DF80830 		strb	r3, [sp, #8]
 774:TINYC256_192/falcon_cmd.c ****     ptVdCmdHeader.bySubCmd = SUBCMD_ZOOM_CENTER_DOWN;
 3034              		.loc 1 774 5 is_stmt 1 view .LVU934
 3035              		.loc 1 774 28 is_stmt 0 view .LVU935
 3036 0014 0223     		movs	r3, #2
 3037 0016 8DF80930 		strb	r3, [sp, #9]
 775:TINYC256_192/falcon_cmd.c ****     wParam = (path << 8) | (scale_step);
 3038              		.loc 1 775 5 is_stmt 1 view .LVU936
 3039              	.LVL224:
 776:TINYC256_192/falcon_cmd.c **** 
 777:TINYC256_192/falcon_cmd.c ****     return long_cmd_write(&ptVdCmdHeader, wParam, 0, 0, 0);
 3040              		.loc 1 777 5 view .LVU937
 3041              		.loc 1 777 12 is_stmt 0 view .LVU938
 3042 001a 0092     		str	r2, [sp]
 3043 001c 1346     		mov	r3, r2
 3044 001e 41EA0021 		orr	r1, r1, r0, lsl #8
 3045              	.LVL225:
 3046              		.loc 1 777 12 view .LVU939
 3047 0022 02A8     		add	r0, sp, #8
 3048              	.LVL226:
 3049              		.loc 1 777 12 view .LVU940
 3050 0024 FFF7FEFF 		bl	long_cmd_write
 3051              	.LVL227:
 778:TINYC256_192/falcon_cmd.c **** }
 3052              		.loc 1 778 1 view .LVU941
 3053 0028 07B0     		add	sp, sp, #28
 3054              	.LCFI112:
 3055              		.cfi_def_cfa_offset 4
 3056              		@ sp needed
 3057 002a 5DF804FB 		ldr	pc, [sp], #4
 3058              		.cfi_endproc
 3059              	.LFE193:
 3061              		.section	.text.zoom_position_up,"ax",%progbits
 3062              		.align	1
 3063              		.global	zoom_position_up
 3064              		.syntax unified
 3065              		.thumb
 3066              		.thumb_func
 3068              	zoom_position_up:
 3069              	.LVL228:
 3070              	.LFB194:
 779:TINYC256_192/falcon_cmd.c **** 
 780:TINYC256_192/falcon_cmd.c **** ir_error_t zoom_position_up(enum preview_path path, enum zoom_scale_step scale_step, IrPoint_t posi
 781:TINYC256_192/falcon_cmd.c **** {
 3071              		.loc 1 781 1 is_stmt 1 view -0
 3072              		.cfi_startproc
 3073              		@ args = 0, pretend = 0, frame = 24
ARM GAS  C:\usertemp\ccDXhwvm.s 			page 69


 3074              		@ frame_needed = 0, uses_anonymous_args = 0
 3075              		.loc 1 781 1 is_stmt 0 view .LVU943
 3076 0000 00B5     		push	{lr}
 3077              	.LCFI113:
 3078              		.cfi_def_cfa_offset 4
 3079              		.cfi_offset 14, -4
 3080 0002 89B0     		sub	sp, sp, #36
 3081              	.LCFI114:
 3082              		.cfi_def_cfa_offset 40
 3083 0004 0392     		str	r2, [sp, #12]
 782:TINYC256_192/falcon_cmd.c ****     uint16_t wParam = 0;
 3084              		.loc 1 782 5 is_stmt 1 view .LVU944
 3085              	.LVL229:
 783:TINYC256_192/falcon_cmd.c ****     uint32_t dwAddr1 = 0;
 3086              		.loc 1 783 5 view .LVU945
 784:TINYC256_192/falcon_cmd.c ****     vdcmd_long_header_t ptVdCmdHeader = {0};
 3087              		.loc 1 784 5 view .LVU946
 3088              		.loc 1 784 25 is_stmt 0 view .LVU947
 3089 0006 0023     		movs	r3, #0
 3090 0008 0493     		str	r3, [sp, #16]
 3091 000a 0593     		str	r3, [sp, #20]
 3092 000c 0693     		str	r3, [sp, #24]
 3093 000e 0793     		str	r3, [sp, #28]
 785:TINYC256_192/falcon_cmd.c ****     ptVdCmdHeader.byCmdType = CMDTYPE_LONG_TYPE_ZOOM;
 3094              		.loc 1 785 5 is_stmt 1 view .LVU948
 3095              		.loc 1 785 29 is_stmt 0 view .LVU949
 3096 0010 1222     		movs	r2, #18
 3097 0012 8DF81020 		strb	r2, [sp, #16]
 786:TINYC256_192/falcon_cmd.c ****     ptVdCmdHeader.bySubCmd = SUBCMD_ZOOM_POSITION_UP;
 3098              		.loc 1 786 5 is_stmt 1 view .LVU950
 3099              		.loc 1 786 28 is_stmt 0 view .LVU951
 3100 0016 0322     		movs	r2, #3
 3101 0018 8DF81120 		strb	r2, [sp, #17]
 787:TINYC256_192/falcon_cmd.c ****     wParam = (path << 8) | (scale_step);
 3102              		.loc 1 787 5 is_stmt 1 view .LVU952
 3103              	.LVL230:
 788:TINYC256_192/falcon_cmd.c ****     dwAddr1 = (((uint32_t)position.x) << 16) | (position.y);
 3104              		.loc 1 788 5 view .LVU953
 3105              		.loc 1 788 35 is_stmt 0 view .LVU954
 3106 001c BDF80CC0 		ldrh	ip, [sp, #12]
 3107              		.loc 1 788 57 view .LVU955
 3108 0020 BDF80E20 		ldrh	r2, [sp, #14]
 3109              	.LVL231:
 789:TINYC256_192/falcon_cmd.c **** 
 790:TINYC256_192/falcon_cmd.c ****     return long_cmd_write(&ptVdCmdHeader, wParam, dwAddr1, 0, 0);
 3110              		.loc 1 790 5 is_stmt 1 view .LVU956
 3111              		.loc 1 790 12 is_stmt 0 view .LVU957
 3112 0024 0093     		str	r3, [sp]
 3113 0026 42EA0C42 		orr	r2, r2, ip, lsl #16
 3114              	.LVL232:
 3115              		.loc 1 790 12 view .LVU958
 3116 002a 41EA0021 		orr	r1, r1, r0, lsl #8
 3117              	.LVL233:
 3118              		.loc 1 790 12 view .LVU959
 3119 002e 04A8     		add	r0, sp, #16
 3120              	.LVL234:
 3121              		.loc 1 790 12 view .LVU960
ARM GAS  C:\usertemp\ccDXhwvm.s 			page 70


 3122 0030 FFF7FEFF 		bl	long_cmd_write
 3123              	.LVL235:
 791:TINYC256_192/falcon_cmd.c **** }
 3124              		.loc 1 791 1 view .LVU961
 3125 0034 09B0     		add	sp, sp, #36
 3126              	.LCFI115:
 3127              		.cfi_def_cfa_offset 4
 3128              		@ sp needed
 3129 0036 5DF804FB 		ldr	pc, [sp], #4
 3130              		.loc 1 791 1 view .LVU962
 3131              		.cfi_endproc
 3132              	.LFE194:
 3134              		.section	.text.zoom_position_down,"ax",%progbits
 3135              		.align	1
 3136              		.global	zoom_position_down
 3137              		.syntax unified
 3138              		.thumb
 3139              		.thumb_func
 3141              	zoom_position_down:
 3142              	.LVL236:
 3143              	.LFB195:
 792:TINYC256_192/falcon_cmd.c **** 
 793:TINYC256_192/falcon_cmd.c **** ir_error_t zoom_position_down(enum preview_path path, enum zoom_scale_step scale_step, IrPoint_t po
 794:TINYC256_192/falcon_cmd.c **** {
 3144              		.loc 1 794 1 is_stmt 1 view -0
 3145              		.cfi_startproc
 3146              		@ args = 0, pretend = 0, frame = 24
 3147              		@ frame_needed = 0, uses_anonymous_args = 0
 3148              		.loc 1 794 1 is_stmt 0 view .LVU964
 3149 0000 00B5     		push	{lr}
 3150              	.LCFI116:
 3151              		.cfi_def_cfa_offset 4
 3152              		.cfi_offset 14, -4
 3153 0002 89B0     		sub	sp, sp, #36
 3154              	.LCFI117:
 3155              		.cfi_def_cfa_offset 40
 3156 0004 0392     		str	r2, [sp, #12]
 795:TINYC256_192/falcon_cmd.c ****     uint16_t wParam = 0;
 3157              		.loc 1 795 5 is_stmt 1 view .LVU965
 3158              	.LVL237:
 796:TINYC256_192/falcon_cmd.c ****     uint32_t dwAddr1 = 0;
 3159              		.loc 1 796 5 view .LVU966
 797:TINYC256_192/falcon_cmd.c ****     vdcmd_long_header_t ptVdCmdHeader = {0};
 3160              		.loc 1 797 5 view .LVU967
 3161              		.loc 1 797 25 is_stmt 0 view .LVU968
 3162 0006 0023     		movs	r3, #0
 3163 0008 0493     		str	r3, [sp, #16]
 3164 000a 0593     		str	r3, [sp, #20]
 3165 000c 0693     		str	r3, [sp, #24]
 3166 000e 0793     		str	r3, [sp, #28]
 798:TINYC256_192/falcon_cmd.c ****     ptVdCmdHeader.byCmdType = CMDTYPE_LONG_TYPE_ZOOM;
 3167              		.loc 1 798 5 is_stmt 1 view .LVU969
 3168              		.loc 1 798 29 is_stmt 0 view .LVU970
 3169 0010 1222     		movs	r2, #18
 3170 0012 8DF81020 		strb	r2, [sp, #16]
 799:TINYC256_192/falcon_cmd.c ****     ptVdCmdHeader.bySubCmd = SUBCMD_ZOOM_POSITION_DOWN;
 3171              		.loc 1 799 5 is_stmt 1 view .LVU971
ARM GAS  C:\usertemp\ccDXhwvm.s 			page 71


 3172              		.loc 1 799 28 is_stmt 0 view .LVU972
 3173 0016 0422     		movs	r2, #4
 3174 0018 8DF81120 		strb	r2, [sp, #17]
 800:TINYC256_192/falcon_cmd.c ****     wParam = (path << 8) | (scale_step);
 3175              		.loc 1 800 5 is_stmt 1 view .LVU973
 3176              	.LVL238:
 801:TINYC256_192/falcon_cmd.c ****     dwAddr1 = (((uint32_t)position.x) << 16) | (position.y);
 3177              		.loc 1 801 5 view .LVU974
 3178              		.loc 1 801 35 is_stmt 0 view .LVU975
 3179 001c BDF80CC0 		ldrh	ip, [sp, #12]
 3180              		.loc 1 801 57 view .LVU976
 3181 0020 BDF80E20 		ldrh	r2, [sp, #14]
 3182              	.LVL239:
 802:TINYC256_192/falcon_cmd.c **** 
 803:TINYC256_192/falcon_cmd.c ****     return long_cmd_write(&ptVdCmdHeader, wParam, dwAddr1, 0, 0);
 3183              		.loc 1 803 5 is_stmt 1 view .LVU977
 3184              		.loc 1 803 12 is_stmt 0 view .LVU978
 3185 0024 0093     		str	r3, [sp]
 3186 0026 42EA0C42 		orr	r2, r2, ip, lsl #16
 3187              	.LVL240:
 3188              		.loc 1 803 12 view .LVU979
 3189 002a 41EA0021 		orr	r1, r1, r0, lsl #8
 3190              	.LVL241:
 3191              		.loc 1 803 12 view .LVU980
 3192 002e 04A8     		add	r0, sp, #16
 3193              	.LVL242:
 3194              		.loc 1 803 12 view .LVU981
 3195 0030 FFF7FEFF 		bl	long_cmd_write
 3196              	.LVL243:
 804:TINYC256_192/falcon_cmd.c **** }
 3197              		.loc 1 804 1 view .LVU982
 3198 0034 09B0     		add	sp, sp, #36
 3199              	.LCFI118:
 3200              		.cfi_def_cfa_offset 4
 3201              		@ sp needed
 3202 0036 5DF804FB 		ldr	pc, [sp], #4
 3203              		.loc 1 804 1 view .LVU983
 3204              		.cfi_endproc
 3205              	.LFE195:
 3207              		.section	.text.dpc_add_point,"ax",%progbits
 3208              		.align	1
 3209              		.global	dpc_add_point
 3210              		.syntax unified
 3211              		.thumb
 3212              		.thumb_func
 3214              	dpc_add_point:
 3215              	.LFB196:
 805:TINYC256_192/falcon_cmd.c **** 
 806:TINYC256_192/falcon_cmd.c **** // add dead pixel point
 807:TINYC256_192/falcon_cmd.c **** ir_error_t dpc_add_point(IrPoint_t position)
 808:TINYC256_192/falcon_cmd.c **** {
 3216              		.loc 1 808 1 is_stmt 1 view -0
 3217              		.cfi_startproc
 3218              		@ args = 0, pretend = 0, frame = 24
 3219              		@ frame_needed = 0, uses_anonymous_args = 0
 3220 0000 00B5     		push	{lr}
 3221              	.LCFI119:
ARM GAS  C:\usertemp\ccDXhwvm.s 			page 72


 3222              		.cfi_def_cfa_offset 4
 3223              		.cfi_offset 14, -4
 3224 0002 89B0     		sub	sp, sp, #36
 3225              	.LCFI120:
 3226              		.cfi_def_cfa_offset 40
 3227 0004 0390     		str	r0, [sp, #12]
 809:TINYC256_192/falcon_cmd.c ****     uint16_t wParam = 0;
 3228              		.loc 1 809 5 view .LVU985
 3229              	.LVL244:
 810:TINYC256_192/falcon_cmd.c ****     vdcmd_long_header_t ptVdCmdHeader = {0};
 3230              		.loc 1 810 5 view .LVU986
 3231              		.loc 1 810 25 is_stmt 0 view .LVU987
 3232 0006 0021     		movs	r1, #0
 3233 0008 0491     		str	r1, [sp, #16]
 3234 000a 0591     		str	r1, [sp, #20]
 3235 000c 0691     		str	r1, [sp, #24]
 3236 000e 0791     		str	r1, [sp, #28]
 811:TINYC256_192/falcon_cmd.c ****     ptVdCmdHeader.byCmdType = CMDTYPE_LONG_TYPE_DPC;
 3237              		.loc 1 811 5 is_stmt 1 view .LVU988
 3238              		.loc 1 811 29 is_stmt 0 view .LVU989
 3239 0010 1323     		movs	r3, #19
 3240 0012 8DF81030 		strb	r3, [sp, #16]
 812:TINYC256_192/falcon_cmd.c ****     ptVdCmdHeader.bySubCmd = SUBCMD_DPC_ADD_DP;
 3241              		.loc 1 812 5 is_stmt 1 view .LVU990
 3242              		.loc 1 812 28 is_stmt 0 view .LVU991
 3243 0016 0123     		movs	r3, #1
 3244 0018 8DF81130 		strb	r3, [sp, #17]
 813:TINYC256_192/falcon_cmd.c **** 
 814:TINYC256_192/falcon_cmd.c ****     return long_cmd_write(&ptVdCmdHeader, wParam, position.x, position.y, 0);
 3245              		.loc 1 814 5 is_stmt 1 view .LVU992
 3246              		.loc 1 814 12 is_stmt 0 view .LVU993
 3247 001c 0091     		str	r1, [sp]
 3248 001e BDF80E30 		ldrh	r3, [sp, #14]
 3249 0022 BDF80C20 		ldrh	r2, [sp, #12]
 3250 0026 04A8     		add	r0, sp, #16
 3251 0028 FFF7FEFF 		bl	long_cmd_write
 3252              	.LVL245:
 815:TINYC256_192/falcon_cmd.c **** }
 3253              		.loc 1 815 1 view .LVU994
 3254 002c 09B0     		add	sp, sp, #36
 3255              	.LCFI121:
 3256              		.cfi_def_cfa_offset 4
 3257              		@ sp needed
 3258 002e 5DF804FB 		ldr	pc, [sp], #4
 3259              		.cfi_endproc
 3260              	.LFE196:
 3262              		.section	.text.dpc_remove_point,"ax",%progbits
 3263              		.align	1
 3264              		.global	dpc_remove_point
 3265              		.syntax unified
 3266              		.thumb
 3267              		.thumb_func
 3269              	dpc_remove_point:
 3270              	.LFB197:
 816:TINYC256_192/falcon_cmd.c **** 
 817:TINYC256_192/falcon_cmd.c **** // remove dead pixel point
 818:TINYC256_192/falcon_cmd.c **** ir_error_t dpc_remove_point(IrPoint_t position)
ARM GAS  C:\usertemp\ccDXhwvm.s 			page 73


 819:TINYC256_192/falcon_cmd.c **** {
 3271              		.loc 1 819 1 is_stmt 1 view -0
 3272              		.cfi_startproc
 3273              		@ args = 0, pretend = 0, frame = 24
 3274              		@ frame_needed = 0, uses_anonymous_args = 0
 3275 0000 00B5     		push	{lr}
 3276              	.LCFI122:
 3277              		.cfi_def_cfa_offset 4
 3278              		.cfi_offset 14, -4
 3279 0002 89B0     		sub	sp, sp, #36
 3280              	.LCFI123:
 3281              		.cfi_def_cfa_offset 40
 3282 0004 0390     		str	r0, [sp, #12]
 820:TINYC256_192/falcon_cmd.c ****     uint16_t wParam = 0;
 3283              		.loc 1 820 5 view .LVU996
 3284              	.LVL246:
 821:TINYC256_192/falcon_cmd.c ****     vdcmd_long_header_t ptVdCmdHeader = {0};
 3285              		.loc 1 821 5 view .LVU997
 3286              		.loc 1 821 25 is_stmt 0 view .LVU998
 3287 0006 0021     		movs	r1, #0
 3288 0008 0491     		str	r1, [sp, #16]
 3289 000a 0591     		str	r1, [sp, #20]
 3290 000c 0691     		str	r1, [sp, #24]
 3291 000e 0791     		str	r1, [sp, #28]
 822:TINYC256_192/falcon_cmd.c ****     ptVdCmdHeader.byCmdType = CMDTYPE_LONG_TYPE_DPC;
 3292              		.loc 1 822 5 is_stmt 1 view .LVU999
 3293              		.loc 1 822 29 is_stmt 0 view .LVU1000
 3294 0010 1323     		movs	r3, #19
 3295 0012 8DF81030 		strb	r3, [sp, #16]
 823:TINYC256_192/falcon_cmd.c ****     ptVdCmdHeader.bySubCmd = SUBCMD_DPC_REMOVE_DP;
 3296              		.loc 1 823 5 is_stmt 1 view .LVU1001
 3297              		.loc 1 823 28 is_stmt 0 view .LVU1002
 3298 0016 0223     		movs	r3, #2
 3299 0018 8DF81130 		strb	r3, [sp, #17]
 824:TINYC256_192/falcon_cmd.c **** 
 825:TINYC256_192/falcon_cmd.c ****     return long_cmd_write(&ptVdCmdHeader, wParam, position.x, position.y, 0);
 3300              		.loc 1 825 5 is_stmt 1 view .LVU1003
 3301              		.loc 1 825 12 is_stmt 0 view .LVU1004
 3302 001c 0091     		str	r1, [sp]
 3303 001e BDF80E30 		ldrh	r3, [sp, #14]
 3304 0022 BDF80C20 		ldrh	r2, [sp, #12]
 3305 0026 04A8     		add	r0, sp, #16
 3306 0028 FFF7FEFF 		bl	long_cmd_write
 3307              	.LVL247:
 826:TINYC256_192/falcon_cmd.c **** }
 3308              		.loc 1 826 1 view .LVU1005
 3309 002c 09B0     		add	sp, sp, #36
 3310              	.LCFI124:
 3311              		.cfi_def_cfa_offset 4
 3312              		@ sp needed
 3313 002e 5DF804FB 		ldr	pc, [sp], #4
 3314              		.cfi_endproc
 3315              	.LFE197:
 3317              		.section	.text.dpc_auto_calibration,"ax",%progbits
 3318              		.align	1
 3319              		.global	dpc_auto_calibration
 3320              		.syntax unified
ARM GAS  C:\usertemp\ccDXhwvm.s 			page 74


 3321              		.thumb
 3322              		.thumb_func
 3324              	dpc_auto_calibration:
 3325              	.LVL248:
 3326              	.LFB198:
 827:TINYC256_192/falcon_cmd.c **** 
 828:TINYC256_192/falcon_cmd.c **** ir_error_t dpc_auto_calibration(uint16_t wait_time)
 829:TINYC256_192/falcon_cmd.c **** {
 3327              		.loc 1 829 1 is_stmt 1 view -0
 3328              		.cfi_startproc
 3329              		@ args = 0, pretend = 0, frame = 32
 3330              		@ frame_needed = 0, uses_anonymous_args = 0
 3331              		.loc 1 829 1 is_stmt 0 view .LVU1007
 3332 0000 10B5     		push	{r4, lr}
 3333              	.LCFI125:
 3334              		.cfi_def_cfa_offset 8
 3335              		.cfi_offset 4, -8
 3336              		.cfi_offset 14, -4
 3337 0002 88B0     		sub	sp, sp, #32
 3338              	.LCFI126:
 3339              		.cfi_def_cfa_offset 40
 3340 0004 0446     		mov	r4, r0
 830:TINYC256_192/falcon_cmd.c ****     vdcmd_std_header_t ptVdCmdHeader = {0};
 3341              		.loc 1 830 5 is_stmt 1 view .LVU1008
 3342              		.loc 1 830 24 is_stmt 0 view .LVU1009
 3343 0006 0023     		movs	r3, #0
 3344 0008 0693     		str	r3, [sp, #24]
 3345 000a 0793     		str	r3, [sp, #28]
 831:TINYC256_192/falcon_cmd.c ****     SdpcParma_t sdpc_param = {0};
 3346              		.loc 1 831 5 is_stmt 1 view .LVU1010
 3347              		.loc 1 831 17 is_stmt 0 view .LVU1011
 3348 000c 0493     		str	r3, [sp, #16]
 3349 000e 8DF81430 		strb	r3, [sp, #20]
 832:TINYC256_192/falcon_cmd.c ****     DdpcParma_t ddpc_apram = {0};
 3350              		.loc 1 832 5 is_stmt 1 view .LVU1012
 3351              		.loc 1 832 17 is_stmt 0 view .LVU1013
 3352 0012 0093     		str	r3, [sp]
 3353 0014 0193     		str	r3, [sp, #4]
 3354 0016 0293     		str	r3, [sp, #8]
 3355 0018 ADF80C30 		strh	r3, [sp, #12]	@ movhi
 833:TINYC256_192/falcon_cmd.c ****     ir_error_t ret;
 3356              		.loc 1 833 5 is_stmt 1 view .LVU1014
 834:TINYC256_192/falcon_cmd.c ****     enum isp_param_module isp_module = SDPC;
 3357              		.loc 1 834 5 view .LVU1015
 3358              	.LVL249:
 835:TINYC256_192/falcon_cmd.c ****     ptVdCmdHeader.byCmdType = CMDTYPE_STANDARD_TYPE_ISP_PARAM;
 3359              		.loc 1 835 5 view .LVU1016
 3360              		.loc 1 835 29 is_stmt 0 view .LVU1017
 3361 001c 0923     		movs	r3, #9
 3362 001e 8DF81830 		strb	r3, [sp, #24]
 836:TINYC256_192/falcon_cmd.c ****     ptVdCmdHeader.bySubCmd = SUBCMD_ISP_PARAM_GET;
 3363              		.loc 1 836 5 is_stmt 1 view .LVU1018
 3364              		.loc 1 836 28 is_stmt 0 view .LVU1019
 3365 0022 8123     		movs	r3, #129
 3366 0024 8DF81930 		strb	r3, [sp, #25]
 837:TINYC256_192/falcon_cmd.c ****     ptVdCmdHeader.byPara = isp_module;
 3367              		.loc 1 837 5 is_stmt 1 view .LVU1020
ARM GAS  C:\usertemp\ccDXhwvm.s 			page 75


 3368              		.loc 1 837 26 is_stmt 0 view .LVU1021
 3369 0028 0223     		movs	r3, #2
 3370 002a 8DF81A30 		strb	r3, [sp, #26]
 838:TINYC256_192/falcon_cmd.c ****     ret = standard_cmd_read(&ptVdCmdHeader, sizeof(sdpc_param), (uint8_t *)&sdpc_param);
 3371              		.loc 1 838 5 is_stmt 1 view .LVU1022
 3372              		.loc 1 838 11 is_stmt 0 view .LVU1023
 3373 002e 04AA     		add	r2, sp, #16
 3374 0030 0521     		movs	r1, #5
 3375 0032 06A8     		add	r0, sp, #24
 3376              	.LVL250:
 3377              		.loc 1 838 11 view .LVU1024
 3378 0034 FFF7FEFF 		bl	standard_cmd_read
 3379              	.LVL251:
 839:TINYC256_192/falcon_cmd.c ****     if (ret != IR_SUCCESS)
 3380              		.loc 1 839 5 is_stmt 1 view .LVU1025
 3381              		.loc 1 839 8 is_stmt 0 view .LVU1026
 3382 0038 0246     		mov	r2, r0
 3383 003a 10B1     		cbz	r0, .L168
 3384              	.LVL252:
 3385              	.L166:
 840:TINYC256_192/falcon_cmd.c ****     {
 841:TINYC256_192/falcon_cmd.c ****         // printf("read sdpc param failed:%d\n", ret);
 842:TINYC256_192/falcon_cmd.c ****         return ret;
 843:TINYC256_192/falcon_cmd.c ****     }
 844:TINYC256_192/falcon_cmd.c **** 
 845:TINYC256_192/falcon_cmd.c ****     ptVdCmdHeader.bySubCmd = SUBCMD_ISP_PARAM_SET;
 846:TINYC256_192/falcon_cmd.c ****     sdpc_param.bySdpRpEn = 1;
 847:TINYC256_192/falcon_cmd.c ****     ret = standard_cmd_write(&ptVdCmdHeader, sizeof(sdpc_param), (uint8_t *)&sdpc_param);
 848:TINYC256_192/falcon_cmd.c ****     if (ret != IR_SUCCESS)
 849:TINYC256_192/falcon_cmd.c ****     {
 850:TINYC256_192/falcon_cmd.c ****         // printf("write sdpc param failed:%d\n", ret);
 851:TINYC256_192/falcon_cmd.c ****         return ret;
 852:TINYC256_192/falcon_cmd.c ****     }
 853:TINYC256_192/falcon_cmd.c **** 
 854:TINYC256_192/falcon_cmd.c ****     isp_module = DDPC;
 855:TINYC256_192/falcon_cmd.c ****     ptVdCmdHeader.bySubCmd = SUBCMD_ISP_PARAM_GET;
 856:TINYC256_192/falcon_cmd.c ****     ptVdCmdHeader.byPara = isp_module;
 857:TINYC256_192/falcon_cmd.c ****     ret = standard_cmd_read(&ptVdCmdHeader, sizeof(ddpc_apram), (uint8_t *)&ddpc_apram);
 858:TINYC256_192/falcon_cmd.c ****     if (ret != IR_SUCCESS)
 859:TINYC256_192/falcon_cmd.c ****     {
 860:TINYC256_192/falcon_cmd.c ****         // printf("read ddpc param failed:%d\n", ret);
 861:TINYC256_192/falcon_cmd.c ****         return ret;
 862:TINYC256_192/falcon_cmd.c ****     }
 863:TINYC256_192/falcon_cmd.c **** 
 864:TINYC256_192/falcon_cmd.c ****     ptVdCmdHeader.bySubCmd = SUBCMD_ISP_PARAM_SET;
 865:TINYC256_192/falcon_cmd.c ****     ddpc_apram.byBpEn = 1;
 866:TINYC256_192/falcon_cmd.c ****     ret = standard_cmd_write(&ptVdCmdHeader, sizeof(ddpc_apram), (uint8_t *)&ddpc_apram);
 867:TINYC256_192/falcon_cmd.c ****     if (ret != IR_SUCCESS)
 868:TINYC256_192/falcon_cmd.c ****     {
 869:TINYC256_192/falcon_cmd.c ****         // printf("write ddpc param failed:%d\n", ret);
 870:TINYC256_192/falcon_cmd.c ****         return ret;
 871:TINYC256_192/falcon_cmd.c ****     }
 872:TINYC256_192/falcon_cmd.c ****     HAL_Delay(1000 * wait_time);
 873:TINYC256_192/falcon_cmd.c **** 
 874:TINYC256_192/falcon_cmd.c ****     isp_module = SDPC;
 875:TINYC256_192/falcon_cmd.c ****     ptVdCmdHeader.bySubCmd = SUBCMD_ISP_PARAM_SET;
 876:TINYC256_192/falcon_cmd.c ****     ptVdCmdHeader.byPara = isp_module;
ARM GAS  C:\usertemp\ccDXhwvm.s 			page 76


 877:TINYC256_192/falcon_cmd.c ****     sdpc_param.bySdpRpEn = 0;
 878:TINYC256_192/falcon_cmd.c ****     ret = standard_cmd_write(&ptVdCmdHeader, sizeof(sdpc_param), (uint8_t *)&sdpc_param);
 879:TINYC256_192/falcon_cmd.c ****     if (ret != IR_SUCCESS)
 880:TINYC256_192/falcon_cmd.c ****     {
 881:TINYC256_192/falcon_cmd.c ****         // printf("write sdpc param failed:%d\n", ret);
 882:TINYC256_192/falcon_cmd.c ****         return ret;
 883:TINYC256_192/falcon_cmd.c ****     }
 884:TINYC256_192/falcon_cmd.c **** 
 885:TINYC256_192/falcon_cmd.c ****     isp_module = DDPC;
 886:TINYC256_192/falcon_cmd.c ****     ptVdCmdHeader.bySubCmd = SUBCMD_ISP_PARAM_SET;
 887:TINYC256_192/falcon_cmd.c ****     ptVdCmdHeader.byPara = isp_module;
 888:TINYC256_192/falcon_cmd.c ****     ddpc_apram.byBpEn = 0;
 889:TINYC256_192/falcon_cmd.c ****     ret = standard_cmd_write(&ptVdCmdHeader, sizeof(ddpc_apram), (uint8_t *)&ddpc_apram);
 890:TINYC256_192/falcon_cmd.c ****     if (ret != IR_SUCCESS)
 891:TINYC256_192/falcon_cmd.c ****     {
 892:TINYC256_192/falcon_cmd.c ****         // printf("write ddpc param failed:%d", ret);
 893:TINYC256_192/falcon_cmd.c ****         return ret;
 894:TINYC256_192/falcon_cmd.c ****     }
 895:TINYC256_192/falcon_cmd.c ****     return IR_SUCCESS;
 896:TINYC256_192/falcon_cmd.c **** }
 3386              		.loc 1 896 1 view .LVU1027
 3387 003c 1046     		mov	r0, r2
 3388 003e 08B0     		add	sp, sp, #32
 3389              	.LCFI127:
 3390              		.cfi_remember_state
 3391              		.cfi_def_cfa_offset 8
 3392              		@ sp needed
 3393 0040 10BD     		pop	{r4, pc}
 3394              	.LVL253:
 3395              	.L168:
 3396              	.LCFI128:
 3397              		.cfi_restore_state
 845:TINYC256_192/falcon_cmd.c ****     sdpc_param.bySdpRpEn = 1;
 3398              		.loc 1 845 5 is_stmt 1 view .LVU1028
 845:TINYC256_192/falcon_cmd.c ****     sdpc_param.bySdpRpEn = 1;
 3399              		.loc 1 845 28 is_stmt 0 view .LVU1029
 3400 0042 C123     		movs	r3, #193
 3401 0044 8DF81930 		strb	r3, [sp, #25]
 846:TINYC256_192/falcon_cmd.c ****     ret = standard_cmd_write(&ptVdCmdHeader, sizeof(sdpc_param), (uint8_t *)&sdpc_param);
 3402              		.loc 1 846 5 is_stmt 1 view .LVU1030
 846:TINYC256_192/falcon_cmd.c ****     ret = standard_cmd_write(&ptVdCmdHeader, sizeof(sdpc_param), (uint8_t *)&sdpc_param);
 3403              		.loc 1 846 26 is_stmt 0 view .LVU1031
 3404 0048 0123     		movs	r3, #1
 3405 004a 8DF81130 		strb	r3, [sp, #17]
 847:TINYC256_192/falcon_cmd.c ****     if (ret != IR_SUCCESS)
 3406              		.loc 1 847 5 is_stmt 1 view .LVU1032
 847:TINYC256_192/falcon_cmd.c ****     if (ret != IR_SUCCESS)
 3407              		.loc 1 847 11 is_stmt 0 view .LVU1033
 3408 004e 04AA     		add	r2, sp, #16
 3409 0050 0521     		movs	r1, #5
 3410 0052 06A8     		add	r0, sp, #24
 3411              	.LVL254:
 847:TINYC256_192/falcon_cmd.c ****     if (ret != IR_SUCCESS)
 3412              		.loc 1 847 11 view .LVU1034
 3413 0054 FFF7FEFF 		bl	standard_cmd_write
 3414              	.LVL255:
 848:TINYC256_192/falcon_cmd.c ****     {
ARM GAS  C:\usertemp\ccDXhwvm.s 			page 77


 3415              		.loc 1 848 5 is_stmt 1 view .LVU1035
 848:TINYC256_192/falcon_cmd.c ****     {
 3416              		.loc 1 848 8 is_stmt 0 view .LVU1036
 3417 0058 0246     		mov	r2, r0
 3418 005a 0028     		cmp	r0, #0
 3419 005c EED1     		bne	.L166
 854:TINYC256_192/falcon_cmd.c ****     ptVdCmdHeader.bySubCmd = SUBCMD_ISP_PARAM_GET;
 3420              		.loc 1 854 5 is_stmt 1 view .LVU1037
 3421              	.LVL256:
 855:TINYC256_192/falcon_cmd.c ****     ptVdCmdHeader.byPara = isp_module;
 3422              		.loc 1 855 5 view .LVU1038
 855:TINYC256_192/falcon_cmd.c ****     ptVdCmdHeader.byPara = isp_module;
 3423              		.loc 1 855 28 is_stmt 0 view .LVU1039
 3424 005e 8123     		movs	r3, #129
 3425 0060 8DF81930 		strb	r3, [sp, #25]
 856:TINYC256_192/falcon_cmd.c ****     ret = standard_cmd_read(&ptVdCmdHeader, sizeof(ddpc_apram), (uint8_t *)&ddpc_apram);
 3426              		.loc 1 856 5 is_stmt 1 view .LVU1040
 856:TINYC256_192/falcon_cmd.c ****     ret = standard_cmd_read(&ptVdCmdHeader, sizeof(ddpc_apram), (uint8_t *)&ddpc_apram);
 3427              		.loc 1 856 26 is_stmt 0 view .LVU1041
 3428 0064 0A23     		movs	r3, #10
 3429 0066 8DF81A30 		strb	r3, [sp, #26]
 857:TINYC256_192/falcon_cmd.c ****     if (ret != IR_SUCCESS)
 3430              		.loc 1 857 5 is_stmt 1 view .LVU1042
 857:TINYC256_192/falcon_cmd.c ****     if (ret != IR_SUCCESS)
 3431              		.loc 1 857 11 is_stmt 0 view .LVU1043
 3432 006a 6A46     		mov	r2, sp
 3433 006c 0E21     		movs	r1, #14
 3434 006e 06A8     		add	r0, sp, #24
 3435              	.LVL257:
 857:TINYC256_192/falcon_cmd.c ****     if (ret != IR_SUCCESS)
 3436              		.loc 1 857 11 view .LVU1044
 3437 0070 FFF7FEFF 		bl	standard_cmd_read
 3438              	.LVL258:
 858:TINYC256_192/falcon_cmd.c ****     {
 3439              		.loc 1 858 5 is_stmt 1 view .LVU1045
 858:TINYC256_192/falcon_cmd.c ****     {
 3440              		.loc 1 858 8 is_stmt 0 view .LVU1046
 3441 0074 0246     		mov	r2, r0
 3442 0076 0028     		cmp	r0, #0
 3443 0078 E0D1     		bne	.L166
 864:TINYC256_192/falcon_cmd.c ****     ddpc_apram.byBpEn = 1;
 3444              		.loc 1 864 5 is_stmt 1 view .LVU1047
 864:TINYC256_192/falcon_cmd.c ****     ddpc_apram.byBpEn = 1;
 3445              		.loc 1 864 28 is_stmt 0 view .LVU1048
 3446 007a C123     		movs	r3, #193
 3447 007c 8DF81930 		strb	r3, [sp, #25]
 865:TINYC256_192/falcon_cmd.c ****     ret = standard_cmd_write(&ptVdCmdHeader, sizeof(ddpc_apram), (uint8_t *)&ddpc_apram);
 3448              		.loc 1 865 5 is_stmt 1 view .LVU1049
 865:TINYC256_192/falcon_cmd.c ****     ret = standard_cmd_write(&ptVdCmdHeader, sizeof(ddpc_apram), (uint8_t *)&ddpc_apram);
 3449              		.loc 1 865 23 is_stmt 0 view .LVU1050
 3450 0080 0123     		movs	r3, #1
 3451 0082 8DF80030 		strb	r3, [sp]
 866:TINYC256_192/falcon_cmd.c ****     if (ret != IR_SUCCESS)
 3452              		.loc 1 866 5 is_stmt 1 view .LVU1051
 866:TINYC256_192/falcon_cmd.c ****     if (ret != IR_SUCCESS)
 3453              		.loc 1 866 11 is_stmt 0 view .LVU1052
 3454 0086 6A46     		mov	r2, sp
ARM GAS  C:\usertemp\ccDXhwvm.s 			page 78


 3455 0088 0E21     		movs	r1, #14
 3456 008a 06A8     		add	r0, sp, #24
 3457              	.LVL259:
 866:TINYC256_192/falcon_cmd.c ****     if (ret != IR_SUCCESS)
 3458              		.loc 1 866 11 view .LVU1053
 3459 008c FFF7FEFF 		bl	standard_cmd_write
 3460              	.LVL260:
 867:TINYC256_192/falcon_cmd.c ****     {
 3461              		.loc 1 867 5 is_stmt 1 view .LVU1054
 867:TINYC256_192/falcon_cmd.c ****     {
 3462              		.loc 1 867 8 is_stmt 0 view .LVU1055
 3463 0090 0246     		mov	r2, r0
 3464 0092 0028     		cmp	r0, #0
 3465 0094 D2D1     		bne	.L166
 872:TINYC256_192/falcon_cmd.c **** 
 3466              		.loc 1 872 5 is_stmt 1 view .LVU1056
 3467 0096 4FF47A70 		mov	r0, #1000
 3468              	.LVL261:
 872:TINYC256_192/falcon_cmd.c **** 
 3469              		.loc 1 872 5 is_stmt 0 view .LVU1057
 3470 009a 04FB00F0 		mul	r0, r4, r0
 3471 009e FFF7FEFF 		bl	HAL_Delay
 3472              	.LVL262:
 874:TINYC256_192/falcon_cmd.c ****     ptVdCmdHeader.bySubCmd = SUBCMD_ISP_PARAM_SET;
 3473              		.loc 1 874 5 is_stmt 1 view .LVU1058
 875:TINYC256_192/falcon_cmd.c ****     ptVdCmdHeader.byPara = isp_module;
 3474              		.loc 1 875 5 view .LVU1059
 875:TINYC256_192/falcon_cmd.c ****     ptVdCmdHeader.byPara = isp_module;
 3475              		.loc 1 875 28 is_stmt 0 view .LVU1060
 3476 00a2 C123     		movs	r3, #193
 3477 00a4 8DF81930 		strb	r3, [sp, #25]
 876:TINYC256_192/falcon_cmd.c ****     sdpc_param.bySdpRpEn = 0;
 3478              		.loc 1 876 5 is_stmt 1 view .LVU1061
 876:TINYC256_192/falcon_cmd.c ****     sdpc_param.bySdpRpEn = 0;
 3479              		.loc 1 876 26 is_stmt 0 view .LVU1062
 3480 00a8 0223     		movs	r3, #2
 3481 00aa 8DF81A30 		strb	r3, [sp, #26]
 877:TINYC256_192/falcon_cmd.c ****     ret = standard_cmd_write(&ptVdCmdHeader, sizeof(sdpc_param), (uint8_t *)&sdpc_param);
 3482              		.loc 1 877 5 is_stmt 1 view .LVU1063
 877:TINYC256_192/falcon_cmd.c ****     ret = standard_cmd_write(&ptVdCmdHeader, sizeof(sdpc_param), (uint8_t *)&sdpc_param);
 3483              		.loc 1 877 26 is_stmt 0 view .LVU1064
 3484 00ae 0023     		movs	r3, #0
 3485 00b0 8DF81130 		strb	r3, [sp, #17]
 878:TINYC256_192/falcon_cmd.c ****     if (ret != IR_SUCCESS)
 3486              		.loc 1 878 5 is_stmt 1 view .LVU1065
 878:TINYC256_192/falcon_cmd.c ****     if (ret != IR_SUCCESS)
 3487              		.loc 1 878 11 is_stmt 0 view .LVU1066
 3488 00b4 04AA     		add	r2, sp, #16
 3489 00b6 0521     		movs	r1, #5
 3490 00b8 06A8     		add	r0, sp, #24
 3491 00ba FFF7FEFF 		bl	standard_cmd_write
 3492              	.LVL263:
 879:TINYC256_192/falcon_cmd.c ****     {
 3493              		.loc 1 879 5 is_stmt 1 view .LVU1067
 879:TINYC256_192/falcon_cmd.c ****     {
 3494              		.loc 1 879 8 is_stmt 0 view .LVU1068
 3495 00be 0246     		mov	r2, r0
ARM GAS  C:\usertemp\ccDXhwvm.s 			page 79


 3496 00c0 0028     		cmp	r0, #0
 3497 00c2 BBD1     		bne	.L166
 885:TINYC256_192/falcon_cmd.c ****     ptVdCmdHeader.bySubCmd = SUBCMD_ISP_PARAM_SET;
 3498              		.loc 1 885 5 is_stmt 1 view .LVU1069
 3499              	.LVL264:
 886:TINYC256_192/falcon_cmd.c ****     ptVdCmdHeader.byPara = isp_module;
 3500              		.loc 1 886 5 view .LVU1070
 886:TINYC256_192/falcon_cmd.c ****     ptVdCmdHeader.byPara = isp_module;
 3501              		.loc 1 886 28 is_stmt 0 view .LVU1071
 3502 00c4 C123     		movs	r3, #193
 3503 00c6 8DF81930 		strb	r3, [sp, #25]
 887:TINYC256_192/falcon_cmd.c ****     ddpc_apram.byBpEn = 0;
 3504              		.loc 1 887 5 is_stmt 1 view .LVU1072
 887:TINYC256_192/falcon_cmd.c ****     ddpc_apram.byBpEn = 0;
 3505              		.loc 1 887 26 is_stmt 0 view .LVU1073
 3506 00ca 0A23     		movs	r3, #10
 3507 00cc 8DF81A30 		strb	r3, [sp, #26]
 888:TINYC256_192/falcon_cmd.c ****     ret = standard_cmd_write(&ptVdCmdHeader, sizeof(ddpc_apram), (uint8_t *)&ddpc_apram);
 3508              		.loc 1 888 5 is_stmt 1 view .LVU1074
 888:TINYC256_192/falcon_cmd.c ****     ret = standard_cmd_write(&ptVdCmdHeader, sizeof(ddpc_apram), (uint8_t *)&ddpc_apram);
 3509              		.loc 1 888 23 is_stmt 0 view .LVU1075
 3510 00d0 0023     		movs	r3, #0
 3511 00d2 8DF80030 		strb	r3, [sp]
 889:TINYC256_192/falcon_cmd.c ****     if (ret != IR_SUCCESS)
 3512              		.loc 1 889 5 is_stmt 1 view .LVU1076
 889:TINYC256_192/falcon_cmd.c ****     if (ret != IR_SUCCESS)
 3513              		.loc 1 889 11 is_stmt 0 view .LVU1077
 3514 00d6 6A46     		mov	r2, sp
 3515 00d8 0E21     		movs	r1, #14
 3516 00da 06A8     		add	r0, sp, #24
 3517              	.LVL265:
 889:TINYC256_192/falcon_cmd.c ****     if (ret != IR_SUCCESS)
 3518              		.loc 1 889 11 view .LVU1078
 3519 00dc FFF7FEFF 		bl	standard_cmd_write
 3520              	.LVL266:
 3521 00e0 0246     		mov	r2, r0
 3522              	.LVL267:
 890:TINYC256_192/falcon_cmd.c ****     {
 3523              		.loc 1 890 5 is_stmt 1 view .LVU1079
 3524 00e2 ABE7     		b	.L166
 3525              		.cfi_endproc
 3526              	.LFE198:
 3528              		.section	.text.xdata_read,"ax",%progbits
 3529              		.align	1
 3530              		.global	xdata_read
 3531              		.syntax unified
 3532              		.thumb
 3533              		.thumb_func
 3535              	xdata_read:
 3536              	.LVL268:
 3537              	.LFB199:
 897:TINYC256_192/falcon_cmd.c **** 
 898:TINYC256_192/falcon_cmd.c **** ir_error_t xdata_read(uint16_t addr, uint8_t bylen, uint8_t *pbyData)
 899:TINYC256_192/falcon_cmd.c **** {
 3538              		.loc 1 899 1 view -0
 3539              		.cfi_startproc
 3540              		@ args = 0, pretend = 0, frame = 8
ARM GAS  C:\usertemp\ccDXhwvm.s 			page 80


 3541              		@ frame_needed = 0, uses_anonymous_args = 0
 3542              		.loc 1 899 1 is_stmt 0 view .LVU1081
 3543 0000 00B5     		push	{lr}
 3544              	.LCFI129:
 3545              		.cfi_def_cfa_offset 4
 3546              		.cfi_offset 14, -4
 3547 0002 83B0     		sub	sp, sp, #12
 3548              	.LCFI130:
 3549              		.cfi_def_cfa_offset 16
 900:TINYC256_192/falcon_cmd.c ****     vdcmd_short_header_t ptVdCmdShortHeader = {0};
 3550              		.loc 1 900 5 is_stmt 1 view .LVU1082
 3551              		.loc 1 900 26 is_stmt 0 view .LVU1083
 3552 0004 0023     		movs	r3, #0
 3553 0006 0193     		str	r3, [sp, #4]
 901:TINYC256_192/falcon_cmd.c ****     ptVdCmdShortHeader.byCmd = CMDTYPE_SHORT_TYPE_XMEM_READ;
 3554              		.loc 1 901 5 is_stmt 1 view .LVU1084
 3555              		.loc 1 901 30 is_stmt 0 view .LVU1085
 3556 0008 8023     		movs	r3, #128
 3557 000a 8DF80430 		strb	r3, [sp, #4]
 902:TINYC256_192/falcon_cmd.c ****     ptVdCmdShortHeader.byLen = bylen;
 3558              		.loc 1 902 5 is_stmt 1 view .LVU1086
 3559              		.loc 1 902 30 is_stmt 0 view .LVU1087
 3560 000e 8DF80510 		strb	r1, [sp, #5]
 903:TINYC256_192/falcon_cmd.c ****     ptVdCmdShortHeader.byAddr_h = (uint8_t)(addr >> 8);
 3561              		.loc 1 903 5 is_stmt 1 view .LVU1088
 3562              		.loc 1 903 35 is_stmt 0 view .LVU1089
 3563 0012 030A     		lsrs	r3, r0, #8
 3564              		.loc 1 903 33 view .LVU1090
 3565 0014 8DF80630 		strb	r3, [sp, #6]
 904:TINYC256_192/falcon_cmd.c ****     ptVdCmdShortHeader.byAddr_l = (uint8_t)addr;
 3566              		.loc 1 904 5 is_stmt 1 view .LVU1091
 3567              		.loc 1 904 33 is_stmt 0 view .LVU1092
 3568 0018 8DF80700 		strb	r0, [sp, #7]
 905:TINYC256_192/falcon_cmd.c ****     return short_cmd_read(&ptVdCmdShortHeader, bylen, pbyData);
 3569              		.loc 1 905 5 is_stmt 1 view .LVU1093
 3570              		.loc 1 905 12 is_stmt 0 view .LVU1094
 3571 001c 01A8     		add	r0, sp, #4
 3572              	.LVL269:
 3573              		.loc 1 905 12 view .LVU1095
 3574 001e FFF7FEFF 		bl	short_cmd_read
 3575              	.LVL270:
 906:TINYC256_192/falcon_cmd.c **** }
 3576              		.loc 1 906 1 view .LVU1096
 3577 0022 03B0     		add	sp, sp, #12
 3578              	.LCFI131:
 3579              		.cfi_def_cfa_offset 4
 3580              		@ sp needed
 3581 0024 5DF804FB 		ldr	pc, [sp], #4
 3582              		.cfi_endproc
 3583              	.LFE199:
 3585              		.section	.text.xdata_write,"ax",%progbits
 3586              		.align	1
 3587              		.global	xdata_write
 3588              		.syntax unified
 3589              		.thumb
 3590              		.thumb_func
 3592              	xdata_write:
ARM GAS  C:\usertemp\ccDXhwvm.s 			page 81


 3593              	.LVL271:
 3594              	.LFB200:
 907:TINYC256_192/falcon_cmd.c **** 
 908:TINYC256_192/falcon_cmd.c **** ir_error_t xdata_write(uint16_t addr, uint8_t bylen, uint8_t *pbyData)
 909:TINYC256_192/falcon_cmd.c **** {
 3595              		.loc 1 909 1 is_stmt 1 view -0
 3596              		.cfi_startproc
 3597              		@ args = 0, pretend = 0, frame = 8
 3598              		@ frame_needed = 0, uses_anonymous_args = 0
 3599              		.loc 1 909 1 is_stmt 0 view .LVU1098
 3600 0000 00B5     		push	{lr}
 3601              	.LCFI132:
 3602              		.cfi_def_cfa_offset 4
 3603              		.cfi_offset 14, -4
 3604 0002 83B0     		sub	sp, sp, #12
 3605              	.LCFI133:
 3606              		.cfi_def_cfa_offset 16
 910:TINYC256_192/falcon_cmd.c ****     uint8_t byTmpLen = bylen;
 3607              		.loc 1 910 5 is_stmt 1 view .LVU1099
 3608              	.LVL272:
 911:TINYC256_192/falcon_cmd.c ****     vdcmd_short_header_t ptVdCmdShortHeader = {0};
 3609              		.loc 1 911 5 view .LVU1100
 3610              		.loc 1 911 26 is_stmt 0 view .LVU1101
 3611 0004 0023     		movs	r3, #0
 3612 0006 0193     		str	r3, [sp, #4]
 912:TINYC256_192/falcon_cmd.c ****     ptVdCmdShortHeader.byCmd = CMDTYPE_SHORT_TYPE_XMEM_WRITE;
 3613              		.loc 1 912 5 is_stmt 1 view .LVU1102
 3614              		.loc 1 912 30 is_stmt 0 view .LVU1103
 3615 0008 8123     		movs	r3, #129
 3616 000a 8DF80430 		strb	r3, [sp, #4]
 913:TINYC256_192/falcon_cmd.c ****     ptVdCmdShortHeader.byLen = bylen;
 3617              		.loc 1 913 5 is_stmt 1 view .LVU1104
 3618              		.loc 1 913 30 is_stmt 0 view .LVU1105
 3619 000e 8DF80510 		strb	r1, [sp, #5]
 914:TINYC256_192/falcon_cmd.c ****     ptVdCmdShortHeader.byAddr_h = (uint8_t)(addr >> 8);
 3620              		.loc 1 914 5 is_stmt 1 view .LVU1106
 3621              		.loc 1 914 35 is_stmt 0 view .LVU1107
 3622 0012 030A     		lsrs	r3, r0, #8
 3623              		.loc 1 914 33 view .LVU1108
 3624 0014 8DF80630 		strb	r3, [sp, #6]
 915:TINYC256_192/falcon_cmd.c ****     ptVdCmdShortHeader.byAddr_l = (uint8_t)addr;
 3625              		.loc 1 915 5 is_stmt 1 view .LVU1109
 3626              		.loc 1 915 33 is_stmt 0 view .LVU1110
 3627 0018 8DF80700 		strb	r0, [sp, #7]
 916:TINYC256_192/falcon_cmd.c ****     return short_cmd_write(&ptVdCmdShortHeader, byTmpLen, pbyData);
 3628              		.loc 1 916 5 is_stmt 1 view .LVU1111
 3629              		.loc 1 916 12 is_stmt 0 view .LVU1112
 3630 001c 01A8     		add	r0, sp, #4
 3631              	.LVL273:
 3632              		.loc 1 916 12 view .LVU1113
 3633 001e FFF7FEFF 		bl	short_cmd_write
 3634              	.LVL274:
 917:TINYC256_192/falcon_cmd.c **** }
 3635              		.loc 1 917 1 view .LVU1114
 3636 0022 03B0     		add	sp, sp, #12
 3637              	.LCFI134:
 3638              		.cfi_def_cfa_offset 4
ARM GAS  C:\usertemp\ccDXhwvm.s 			page 82


 3639              		@ sp needed
 3640 0024 5DF804FB 		ldr	pc, [sp], #4
 3641              		.cfi_endproc
 3642              	.LFE200:
 3644              		.section	.text.spi_read,"ax",%progbits
 3645              		.align	1
 3646              		.global	spi_read
 3647              		.syntax unified
 3648              		.thumb
 3649              		.thumb_func
 3651              	spi_read:
 3652              	.LVL275:
 3653              	.LFB201:
 918:TINYC256_192/falcon_cmd.c **** 
 919:TINYC256_192/falcon_cmd.c **** ir_error_t spi_read(uint32_t addr, uint16_t wlen, uint8_t *pbyData)
 920:TINYC256_192/falcon_cmd.c **** {
 3654              		.loc 1 920 1 is_stmt 1 view -0
 3655              		.cfi_startproc
 3656              		@ args = 0, pretend = 0, frame = 8
 3657              		@ frame_needed = 0, uses_anonymous_args = 0
 3658              		.loc 1 920 1 is_stmt 0 view .LVU1116
 3659 0000 00B5     		push	{lr}
 3660              	.LCFI135:
 3661              		.cfi_def_cfa_offset 4
 3662              		.cfi_offset 14, -4
 3663 0002 83B0     		sub	sp, sp, #12
 3664              	.LCFI136:
 3665              		.cfi_def_cfa_offset 16
 921:TINYC256_192/falcon_cmd.c ****     uint16_t wTmpLen = wlen;
 3666              		.loc 1 921 5 is_stmt 1 view .LVU1117
 3667              	.LVL276:
 922:TINYC256_192/falcon_cmd.c ****     vdcmd_std_header_t ptVdCmdHeader = {0};
 3668              		.loc 1 922 5 view .LVU1118
 3669              		.loc 1 922 24 is_stmt 0 view .LVU1119
 3670 0004 0023     		movs	r3, #0
 3671 0006 0093     		str	r3, [sp]
 3672 0008 0193     		str	r3, [sp, #4]
 923:TINYC256_192/falcon_cmd.c ****     ptVdCmdHeader.byCmdType = CMDTYPE_STANDARD_TYPE_SPI;
 3673              		.loc 1 923 5 is_stmt 1 view .LVU1120
 3674              		.loc 1 923 29 is_stmt 0 view .LVU1121
 3675 000a 0123     		movs	r3, #1
 3676 000c 8DF80030 		strb	r3, [sp]
 924:TINYC256_192/falcon_cmd.c ****     ptVdCmdHeader.bySubCmd = SUBCMD_SPI_READ;
 3677              		.loc 1 924 5 is_stmt 1 view .LVU1122
 3678              		.loc 1 924 28 is_stmt 0 view .LVU1123
 3679 0010 8223     		movs	r3, #130
 3680 0012 8DF80130 		strb	r3, [sp, #1]
 925:TINYC256_192/falcon_cmd.c ****     ptVdCmdHeader.byPara = (uint8_t)(addr >> 24);
 3681              		.loc 1 925 5 is_stmt 1 view .LVU1124
 3682              		.loc 1 925 28 is_stmt 0 view .LVU1125
 3683 0016 030E     		lsrs	r3, r0, #24
 3684              		.loc 1 925 26 view .LVU1126
 3685 0018 8DF80230 		strb	r3, [sp, #2]
 926:TINYC256_192/falcon_cmd.c ****     ptVdCmdHeader.byAddr_h = (uint8_t)(addr >> 16);
 3686              		.loc 1 926 5 is_stmt 1 view .LVU1127
 3687              		.loc 1 926 30 is_stmt 0 view .LVU1128
 3688 001c C0F30743 		ubfx	r3, r0, #16, #8
ARM GAS  C:\usertemp\ccDXhwvm.s 			page 83


 3689              		.loc 1 926 28 view .LVU1129
 3690 0020 8DF80330 		strb	r3, [sp, #3]
 927:TINYC256_192/falcon_cmd.c ****     ptVdCmdHeader.byAddr_l = (uint8_t)(addr >> 8);
 3691              		.loc 1 927 5 is_stmt 1 view .LVU1130
 3692              		.loc 1 927 30 is_stmt 0 view .LVU1131
 3693 0024 C0F30723 		ubfx	r3, r0, #8, #8
 3694              		.loc 1 927 28 view .LVU1132
 3695 0028 8DF80430 		strb	r3, [sp, #4]
 928:TINYC256_192/falcon_cmd.c ****     ptVdCmdHeader.byAddr_ll = (uint8_t)addr;
 3696              		.loc 1 928 5 is_stmt 1 view .LVU1133
 3697              		.loc 1 928 29 is_stmt 0 view .LVU1134
 3698 002c 8DF80500 		strb	r0, [sp, #5]
 929:TINYC256_192/falcon_cmd.c ****     return standard_cmd_read(&ptVdCmdHeader, wTmpLen, pbyData);
 3699              		.loc 1 929 5 is_stmt 1 view .LVU1135
 3700              		.loc 1 929 12 is_stmt 0 view .LVU1136
 3701 0030 6846     		mov	r0, sp
 3702              	.LVL277:
 3703              		.loc 1 929 12 view .LVU1137
 3704 0032 FFF7FEFF 		bl	standard_cmd_read
 3705              	.LVL278:
 930:TINYC256_192/falcon_cmd.c **** }
 3706              		.loc 1 930 1 view .LVU1138
 3707 0036 03B0     		add	sp, sp, #12
 3708              	.LCFI137:
 3709              		.cfi_def_cfa_offset 4
 3710              		@ sp needed
 3711 0038 5DF804FB 		ldr	pc, [sp], #4
 3712              		.cfi_endproc
 3713              	.LFE201:
 3715              		.section	.text.spi_write,"ax",%progbits
 3716              		.align	1
 3717              		.global	spi_write
 3718              		.syntax unified
 3719              		.thumb
 3720              		.thumb_func
 3722              	spi_write:
 3723              	.LVL279:
 3724              	.LFB202:
 931:TINYC256_192/falcon_cmd.c **** 
 932:TINYC256_192/falcon_cmd.c **** ir_error_t spi_write(uint32_t addr, uint16_t wlen, uint8_t *pbyData)
 933:TINYC256_192/falcon_cmd.c **** {
 3725              		.loc 1 933 1 is_stmt 1 view -0
 3726              		.cfi_startproc
 3727              		@ args = 0, pretend = 0, frame = 8
 3728              		@ frame_needed = 0, uses_anonymous_args = 0
 3729              		.loc 1 933 1 is_stmt 0 view .LVU1140
 3730 0000 00B5     		push	{lr}
 3731              	.LCFI138:
 3732              		.cfi_def_cfa_offset 4
 3733              		.cfi_offset 14, -4
 3734 0002 83B0     		sub	sp, sp, #12
 3735              	.LCFI139:
 3736              		.cfi_def_cfa_offset 16
 934:TINYC256_192/falcon_cmd.c ****     uint16_t wTmpLen = wlen;
 3737              		.loc 1 934 5 is_stmt 1 view .LVU1141
 3738              	.LVL280:
 935:TINYC256_192/falcon_cmd.c ****     vdcmd_std_header_t ptVdCmdHeader = {0};
ARM GAS  C:\usertemp\ccDXhwvm.s 			page 84


 3739              		.loc 1 935 5 view .LVU1142
 3740              		.loc 1 935 24 is_stmt 0 view .LVU1143
 3741 0004 0023     		movs	r3, #0
 3742 0006 0093     		str	r3, [sp]
 3743 0008 0193     		str	r3, [sp, #4]
 936:TINYC256_192/falcon_cmd.c ****     ptVdCmdHeader.byCmdType = CMDTYPE_STANDARD_TYPE_SPI;
 3744              		.loc 1 936 5 is_stmt 1 view .LVU1144
 3745              		.loc 1 936 29 is_stmt 0 view .LVU1145
 3746 000a 0123     		movs	r3, #1
 3747 000c 8DF80030 		strb	r3, [sp]
 937:TINYC256_192/falcon_cmd.c ****     ptVdCmdHeader.bySubCmd = SUBCMD_SPI_WRITE;
 3748              		.loc 1 937 5 is_stmt 1 view .LVU1146
 3749              		.loc 1 937 28 is_stmt 0 view .LVU1147
 3750 0010 C223     		movs	r3, #194
 3751 0012 8DF80130 		strb	r3, [sp, #1]
 938:TINYC256_192/falcon_cmd.c ****     ptVdCmdHeader.byPara = (uint8_t)(addr >> 24);
 3752              		.loc 1 938 5 is_stmt 1 view .LVU1148
 3753              		.loc 1 938 28 is_stmt 0 view .LVU1149
 3754 0016 030E     		lsrs	r3, r0, #24
 3755              		.loc 1 938 26 view .LVU1150
 3756 0018 8DF80230 		strb	r3, [sp, #2]
 939:TINYC256_192/falcon_cmd.c ****     ptVdCmdHeader.byAddr_h = (uint8_t)(addr >> 16);
 3757              		.loc 1 939 5 is_stmt 1 view .LVU1151
 3758              		.loc 1 939 30 is_stmt 0 view .LVU1152
 3759 001c C0F30743 		ubfx	r3, r0, #16, #8
 3760              		.loc 1 939 28 view .LVU1153
 3761 0020 8DF80330 		strb	r3, [sp, #3]
 940:TINYC256_192/falcon_cmd.c ****     ptVdCmdHeader.byAddr_l = (uint8_t)(addr >> 8);
 3762              		.loc 1 940 5 is_stmt 1 view .LVU1154
 3763              		.loc 1 940 30 is_stmt 0 view .LVU1155
 3764 0024 C0F30723 		ubfx	r3, r0, #8, #8
 3765              		.loc 1 940 28 view .LVU1156
 3766 0028 8DF80430 		strb	r3, [sp, #4]
 941:TINYC256_192/falcon_cmd.c ****     ptVdCmdHeader.byAddr_ll = (uint8_t)addr;
 3767              		.loc 1 941 5 is_stmt 1 view .LVU1157
 3768              		.loc 1 941 29 is_stmt 0 view .LVU1158
 3769 002c 8DF80500 		strb	r0, [sp, #5]
 942:TINYC256_192/falcon_cmd.c ****     return standard_cmd_write(&ptVdCmdHeader, wTmpLen, pbyData);
 3770              		.loc 1 942 5 is_stmt 1 view .LVU1159
 3771              		.loc 1 942 12 is_stmt 0 view .LVU1160
 3772 0030 6846     		mov	r0, sp
 3773              	.LVL281:
 3774              		.loc 1 942 12 view .LVU1161
 3775 0032 FFF7FEFF 		bl	standard_cmd_write
 3776              	.LVL282:
 943:TINYC256_192/falcon_cmd.c **** }
 3777              		.loc 1 943 1 view .LVU1162
 3778 0036 03B0     		add	sp, sp, #12
 3779              	.LCFI140:
 3780              		.cfi_def_cfa_offset 4
 3781              		@ sp needed
 3782 0038 5DF804FB 		ldr	pc, [sp], #4
 3783              		.cfi_endproc
 3784              	.LFE202:
 3786              		.section	.text.spi_erase_sector,"ax",%progbits
 3787              		.align	1
 3788              		.global	spi_erase_sector
ARM GAS  C:\usertemp\ccDXhwvm.s 			page 85


 3789              		.syntax unified
 3790              		.thumb
 3791              		.thumb_func
 3793              	spi_erase_sector:
 3794              	.LVL283:
 3795              	.LFB203:
 944:TINYC256_192/falcon_cmd.c **** 
 945:TINYC256_192/falcon_cmd.c **** ir_error_t spi_erase_sector(uint32_t addr, uint16_t sector_cnt)
 946:TINYC256_192/falcon_cmd.c **** {
 3796              		.loc 1 946 1 is_stmt 1 view -0
 3797              		.cfi_startproc
 3798              		@ args = 0, pretend = 0, frame = 8
 3799              		@ frame_needed = 0, uses_anonymous_args = 0
 3800              		.loc 1 946 1 is_stmt 0 view .LVU1164
 3801 0000 70B5     		push	{r4, r5, r6, lr}
 3802              	.LCFI141:
 3803              		.cfi_def_cfa_offset 16
 3804              		.cfi_offset 4, -16
 3805              		.cfi_offset 5, -12
 3806              		.cfi_offset 6, -8
 3807              		.cfi_offset 14, -4
 3808 0002 82B0     		sub	sp, sp, #8
 3809              	.LCFI142:
 3810              		.cfi_def_cfa_offset 24
 3811 0004 0546     		mov	r5, r0
 3812 0006 0E46     		mov	r6, r1
 947:TINYC256_192/falcon_cmd.c ****     ir_error_t rst = IR_SUCCESS;
 3813              		.loc 1 947 5 is_stmt 1 view .LVU1165
 3814              	.LVL284:
 948:TINYC256_192/falcon_cmd.c ****     uint16_t wTmpLen = 0;
 3815              		.loc 1 948 5 view .LVU1166
 949:TINYC256_192/falcon_cmd.c ****     uint16_t one_sector_size = 4096;
 3816              		.loc 1 949 5 view .LVU1167
 950:TINYC256_192/falcon_cmd.c ****     uint16_t once_sector_cnt = 8;
 3817              		.loc 1 950 5 view .LVU1168
 951:TINYC256_192/falcon_cmd.c ****     vdcmd_std_header_t ptVdCmdHeader = {0};
 3818              		.loc 1 951 5 view .LVU1169
 3819              		.loc 1 951 24 is_stmt 0 view .LVU1170
 3820 0008 0020     		movs	r0, #0
 3821              	.LVL285:
 3822              		.loc 1 951 24 view .LVU1171
 3823 000a 0090     		str	r0, [sp]
 3824 000c 0190     		str	r0, [sp, #4]
 952:TINYC256_192/falcon_cmd.c ****     uint32_t tmp_addr = addr;
 3825              		.loc 1 952 5 is_stmt 1 view .LVU1172
 3826              	.LVL286:
 953:TINYC256_192/falcon_cmd.c ****     uint16_t i = 0;
 3827              		.loc 1 953 5 view .LVU1173
 954:TINYC256_192/falcon_cmd.c ****     while (sector_cnt > 0)
 3828              		.loc 1 954 5 view .LVU1174
 3829              		.loc 1 954 11 is_stmt 0 view .LVU1175
 3830 000e 24E0     		b	.L178
 3831              	.LVL287:
 3832              	.L182:
 955:TINYC256_192/falcon_cmd.c ****     {
 956:TINYC256_192/falcon_cmd.c ****         if (sector_cnt >= once_sector_cnt)
 957:TINYC256_192/falcon_cmd.c ****         {
ARM GAS  C:\usertemp\ccDXhwvm.s 			page 86


 958:TINYC256_192/falcon_cmd.c ****             i = once_sector_cnt;
 959:TINYC256_192/falcon_cmd.c ****         }
 960:TINYC256_192/falcon_cmd.c ****         else
 961:TINYC256_192/falcon_cmd.c ****         {
 962:TINYC256_192/falcon_cmd.c ****             i = sector_cnt;
 3833              		.loc 1 962 15 view .LVU1176
 3834 0010 3446     		mov	r4, r6
 3835              	.L179:
 3836              	.LVL288:
 963:TINYC256_192/falcon_cmd.c ****         }
 964:TINYC256_192/falcon_cmd.c **** 
 965:TINYC256_192/falcon_cmd.c ****         ptVdCmdHeader.byCmdType = CMDTYPE_STANDARD_TYPE_SPI;
 3837              		.loc 1 965 9 is_stmt 1 view .LVU1177
 3838              		.loc 1 965 33 is_stmt 0 view .LVU1178
 3839 0012 0123     		movs	r3, #1
 3840 0014 8DF80030 		strb	r3, [sp]
 966:TINYC256_192/falcon_cmd.c ****         ptVdCmdHeader.bySubCmd = SUBCMD_SPI_ERASE;
 3841              		.loc 1 966 9 is_stmt 1 view .LVU1179
 3842              		.loc 1 966 32 is_stmt 0 view .LVU1180
 3843 0018 0823     		movs	r3, #8
 3844 001a 8DF80130 		strb	r3, [sp, #1]
 967:TINYC256_192/falcon_cmd.c ****         ptVdCmdHeader.byPara = (uint8_t)(tmp_addr >> 24);
 3845              		.loc 1 967 9 is_stmt 1 view .LVU1181
 3846              		.loc 1 967 32 is_stmt 0 view .LVU1182
 3847 001e 2B0E     		lsrs	r3, r5, #24
 3848              		.loc 1 967 30 view .LVU1183
 3849 0020 8DF80230 		strb	r3, [sp, #2]
 968:TINYC256_192/falcon_cmd.c ****         ptVdCmdHeader.byAddr_h = (uint8_t)(tmp_addr >> 16);
 3850              		.loc 1 968 9 is_stmt 1 view .LVU1184
 3851              		.loc 1 968 34 is_stmt 0 view .LVU1185
 3852 0024 C5F30743 		ubfx	r3, r5, #16, #8
 3853              		.loc 1 968 32 view .LVU1186
 3854 0028 8DF80330 		strb	r3, [sp, #3]
 969:TINYC256_192/falcon_cmd.c ****         ptVdCmdHeader.byAddr_l = (uint8_t)(tmp_addr >> 8);
 3855              		.loc 1 969 9 is_stmt 1 view .LVU1187
 3856              		.loc 1 969 34 is_stmt 0 view .LVU1188
 3857 002c C5F30723 		ubfx	r3, r5, #8, #8
 3858              		.loc 1 969 32 view .LVU1189
 3859 0030 8DF80430 		strb	r3, [sp, #4]
 970:TINYC256_192/falcon_cmd.c ****         ptVdCmdHeader.byAddr_ll = (uint8_t)tmp_addr;
 3860              		.loc 1 970 9 is_stmt 1 view .LVU1190
 3861              		.loc 1 970 33 is_stmt 0 view .LVU1191
 3862 0034 8DF80550 		strb	r5, [sp, #5]
 971:TINYC256_192/falcon_cmd.c ****         ptVdCmdHeader.byLen_h = (uint8_t)(i >> 8);
 3863              		.loc 1 971 9 is_stmt 1 view .LVU1192
 3864              		.loc 1 971 33 is_stmt 0 view .LVU1193
 3865 0038 C4F30723 		ubfx	r3, r4, #8, #8
 3866              		.loc 1 971 31 view .LVU1194
 3867 003c 8DF80630 		strb	r3, [sp, #6]
 972:TINYC256_192/falcon_cmd.c ****         ptVdCmdHeader.byLen_l = (uint8_t)(i);
 3868              		.loc 1 972 9 is_stmt 1 view .LVU1195
 3869              		.loc 1 972 31 is_stmt 0 view .LVU1196
 3870 0040 8DF80740 		strb	r4, [sp, #7]
 973:TINYC256_192/falcon_cmd.c ****         // the wTmpLen must be 0, not i.Because the erase sector needs lens of the header > 256.
 974:TINYC256_192/falcon_cmd.c ****         rst = standard_cmd_write(&ptVdCmdHeader, wTmpLen, NULL);
 3871              		.loc 1 974 9 is_stmt 1 view .LVU1197
 3872              		.loc 1 974 15 is_stmt 0 view .LVU1198
ARM GAS  C:\usertemp\ccDXhwvm.s 			page 87


 3873 0044 0022     		movs	r2, #0
 3874 0046 1146     		mov	r1, r2
 3875 0048 6846     		mov	r0, sp
 3876              	.LVL289:
 3877              		.loc 1 974 15 view .LVU1199
 3878 004a FFF7FEFF 		bl	standard_cmd_write
 3879              	.LVL290:
 975:TINYC256_192/falcon_cmd.c ****         if (rst < 0)
 3880              		.loc 1 975 9 is_stmt 1 view .LVU1200
 3881              		.loc 1 975 12 is_stmt 0 view .LVU1201
 3882 004e 0028     		cmp	r0, #0
 3883              		.loc 1 975 12 view .LVU1202
 3884 0050 08DB     		blt	.L180
 976:TINYC256_192/falcon_cmd.c ****         {
 977:TINYC256_192/falcon_cmd.c ****             return rst;
 978:TINYC256_192/falcon_cmd.c ****         }
 979:TINYC256_192/falcon_cmd.c **** 
 980:TINYC256_192/falcon_cmd.c ****         tmp_addr += (uint32_t)i * (uint32_t)one_sector_size;
 3885              		.loc 1 980 9 is_stmt 1 view .LVU1203
 3886              		.loc 1 980 18 is_stmt 0 view .LVU1204
 3887 0052 05EB0435 		add	r5, r5, r4, lsl #12
 3888              	.LVL291:
 981:TINYC256_192/falcon_cmd.c ****         sector_cnt -= i;
 3889              		.loc 1 981 9 is_stmt 1 view .LVU1205
 3890              		.loc 1 981 20 is_stmt 0 view .LVU1206
 3891 0056 341B     		subs	r4, r6, r4
 3892              	.LVL292:
 3893              		.loc 1 981 20 view .LVU1207
 3894 0058 A6B2     		uxth	r6, r4
 3895              	.LVL293:
 3896              	.L178:
 954:TINYC256_192/falcon_cmd.c ****     {
 3897              		.loc 1 954 23 is_stmt 1 view .LVU1208
 3898 005a 1EB1     		cbz	r6, .L180
 956:TINYC256_192/falcon_cmd.c ****         {
 3899              		.loc 1 956 9 view .LVU1209
 956:TINYC256_192/falcon_cmd.c ****         {
 3900              		.loc 1 956 12 is_stmt 0 view .LVU1210
 3901 005c 072E     		cmp	r6, #7
 3902 005e D7D9     		bls	.L182
 958:TINYC256_192/falcon_cmd.c ****         }
 3903              		.loc 1 958 15 view .LVU1211
 3904 0060 0824     		movs	r4, #8
 3905 0062 D6E7     		b	.L179
 3906              	.LVL294:
 3907              	.L180:
 982:TINYC256_192/falcon_cmd.c ****     }
 983:TINYC256_192/falcon_cmd.c ****     return rst;
 984:TINYC256_192/falcon_cmd.c **** }
 3908              		.loc 1 984 1 view .LVU1212
 3909 0064 02B0     		add	sp, sp, #8
 3910              	.LCFI143:
 3911              		.cfi_def_cfa_offset 16
 3912              		@ sp needed
 3913 0066 70BD     		pop	{r4, r5, r6, pc}
 3914              		.loc 1 984 1 view .LVU1213
 3915              		.cfi_endproc
ARM GAS  C:\usertemp\ccDXhwvm.s 			page 88


 3916              	.LFE203:
 3918              		.section	.text.spi_erase_fw,"ax",%progbits
 3919              		.align	1
 3920              		.global	spi_erase_fw
 3921              		.syntax unified
 3922              		.thumb
 3923              		.thumb_func
 3925              	spi_erase_fw:
 3926              	.LFB204:
 985:TINYC256_192/falcon_cmd.c **** 
 986:TINYC256_192/falcon_cmd.c **** ir_error_t spi_erase_fw(void)
 987:TINYC256_192/falcon_cmd.c **** {
 3927              		.loc 1 987 1 is_stmt 1 view -0
 3928              		.cfi_startproc
 3929              		@ args = 0, pretend = 0, frame = 8
 3930              		@ frame_needed = 0, uses_anonymous_args = 0
 3931 0000 00B5     		push	{lr}
 3932              	.LCFI144:
 3933              		.cfi_def_cfa_offset 4
 3934              		.cfi_offset 14, -4
 3935 0002 83B0     		sub	sp, sp, #12
 3936              	.LCFI145:
 3937              		.cfi_def_cfa_offset 16
 988:TINYC256_192/falcon_cmd.c ****     uint16_t wTmpLen = 0;
 3938              		.loc 1 988 5 view .LVU1215
 3939              	.LVL295:
 989:TINYC256_192/falcon_cmd.c ****     vdcmd_std_header_t ptVdCmdHeader = {0};
 3940              		.loc 1 989 5 view .LVU1216
 3941              		.loc 1 989 24 is_stmt 0 view .LVU1217
 3942 0004 0021     		movs	r1, #0
 3943 0006 0091     		str	r1, [sp]
 3944 0008 0191     		str	r1, [sp, #4]
 990:TINYC256_192/falcon_cmd.c ****     ptVdCmdHeader.byCmdType = CMDTYPE_STANDARD_TYPE_SPI;
 3945              		.loc 1 990 5 is_stmt 1 view .LVU1218
 3946              		.loc 1 990 29 is_stmt 0 view .LVU1219
 3947 000a 0123     		movs	r3, #1
 3948 000c 8DF80030 		strb	r3, [sp]
 991:TINYC256_192/falcon_cmd.c ****     ptVdCmdHeader.bySubCmd = SUBCMD_SPI_ERASE_FW;
 3949              		.loc 1 991 5 is_stmt 1 view .LVU1220
 3950              		.loc 1 991 28 is_stmt 0 view .LVU1221
 3951 0010 0723     		movs	r3, #7
 3952 0012 8DF80130 		strb	r3, [sp, #1]
 992:TINYC256_192/falcon_cmd.c ****     return standard_cmd_write(&ptVdCmdHeader, wTmpLen, NULL);
 3953              		.loc 1 992 5 is_stmt 1 view .LVU1222
 3954              		.loc 1 992 12 is_stmt 0 view .LVU1223
 3955 0016 0A46     		mov	r2, r1
 3956 0018 6846     		mov	r0, sp
 3957 001a FFF7FEFF 		bl	standard_cmd_write
 3958              	.LVL296:
 993:TINYC256_192/falcon_cmd.c **** }
 3959              		.loc 1 993 1 view .LVU1224
 3960 001e 03B0     		add	sp, sp, #12
 3961              	.LCFI146:
 3962              		.cfi_def_cfa_offset 4
 3963              		@ sp needed
 3964 0020 5DF804FB 		ldr	pc, [sp], #4
 3965              		.cfi_endproc
ARM GAS  C:\usertemp\ccDXhwvm.s 			page 89


 3966              	.LFE204:
 3968              		.section	.text.spi_write_status,"ax",%progbits
 3969              		.align	1
 3970              		.global	spi_write_status
 3971              		.syntax unified
 3972              		.thumb
 3973              		.thumb_func
 3975              	spi_write_status:
 3976              	.LVL297:
 3977              	.LFB205:
 994:TINYC256_192/falcon_cmd.c **** 
 995:TINYC256_192/falcon_cmd.c **** ir_error_t spi_write_status(uint8_t status_reg_type, uint8_t status_val)
 996:TINYC256_192/falcon_cmd.c **** {
 3978              		.loc 1 996 1 is_stmt 1 view -0
 3979              		.cfi_startproc
 3980              		@ args = 0, pretend = 0, frame = 16
 3981              		@ frame_needed = 0, uses_anonymous_args = 0
 3982              		.loc 1 996 1 is_stmt 0 view .LVU1226
 3983 0000 00B5     		push	{lr}
 3984              	.LCFI147:
 3985              		.cfi_def_cfa_offset 4
 3986              		.cfi_offset 14, -4
 3987 0002 85B0     		sub	sp, sp, #20
 3988              	.LCFI148:
 3989              		.cfi_def_cfa_offset 24
 997:TINYC256_192/falcon_cmd.c ****     uint16_t wTmpLen = 1;
 3990              		.loc 1 997 5 is_stmt 1 view .LVU1227
 3991              	.LVL298:
 998:TINYC256_192/falcon_cmd.c ****     vdcmd_std_header_t ptVdCmdHeader = {0};
 3992              		.loc 1 998 5 view .LVU1228
 3993              		.loc 1 998 24 is_stmt 0 view .LVU1229
 3994 0004 0023     		movs	r3, #0
 3995 0006 0293     		str	r3, [sp, #8]
 3996 0008 0393     		str	r3, [sp, #12]
 999:TINYC256_192/falcon_cmd.c ****     uint8_t pbyData = status_val;
 3997              		.loc 1 999 5 is_stmt 1 view .LVU1230
 3998              		.loc 1 999 13 is_stmt 0 view .LVU1231
 3999 000a 8DF80710 		strb	r1, [sp, #7]
1000:TINYC256_192/falcon_cmd.c ****     ptVdCmdHeader.byCmdType = CMDTYPE_STANDARD_TYPE_SPI;
 4000              		.loc 1 1000 5 is_stmt 1 view .LVU1232
 4001              		.loc 1 1000 29 is_stmt 0 view .LVU1233
 4002 000e 0121     		movs	r1, #1
 4003              	.LVL299:
 4004              		.loc 1 1000 29 view .LVU1234
 4005 0010 8DF80810 		strb	r1, [sp, #8]
1001:TINYC256_192/falcon_cmd.c ****     ptVdCmdHeader.bySubCmd = SUBCMD_SPI_WRSR;
 4006              		.loc 1 1001 5 is_stmt 1 view .LVU1235
 4007              		.loc 1 1001 28 is_stmt 0 view .LVU1236
 4008 0014 C623     		movs	r3, #198
 4009 0016 8DF80930 		strb	r3, [sp, #9]
1002:TINYC256_192/falcon_cmd.c ****     ptVdCmdHeader.byPara = status_reg_type;
 4010              		.loc 1 1002 5 is_stmt 1 view .LVU1237
 4011              		.loc 1 1002 26 is_stmt 0 view .LVU1238
 4012 001a 8DF80A00 		strb	r0, [sp, #10]
1003:TINYC256_192/falcon_cmd.c ****     return standard_cmd_write(&ptVdCmdHeader, wTmpLen, &pbyData);
 4013              		.loc 1 1003 5 is_stmt 1 view .LVU1239
 4014              		.loc 1 1003 12 is_stmt 0 view .LVU1240
ARM GAS  C:\usertemp\ccDXhwvm.s 			page 90


 4015 001e 0DF10702 		add	r2, sp, #7
 4016              	.LVL300:
 4017              		.loc 1 1003 12 view .LVU1241
 4018 0022 02A8     		add	r0, sp, #8
 4019              	.LVL301:
 4020              		.loc 1 1003 12 view .LVU1242
 4021 0024 FFF7FEFF 		bl	standard_cmd_write
 4022              	.LVL302:
1004:TINYC256_192/falcon_cmd.c **** }
 4023              		.loc 1 1004 1 view .LVU1243
 4024 0028 05B0     		add	sp, sp, #20
 4025              	.LCFI149:
 4026              		.cfi_def_cfa_offset 4
 4027              		@ sp needed
 4028 002a 5DF804FB 		ldr	pc, [sp], #4
 4029              		.cfi_endproc
 4030              	.LFE205:
 4032              		.section	.text.spi_read_status,"ax",%progbits
 4033              		.align	1
 4034              		.global	spi_read_status
 4035              		.syntax unified
 4036              		.thumb
 4037              		.thumb_func
 4039              	spi_read_status:
 4040              	.LVL303:
 4041              	.LFB206:
1005:TINYC256_192/falcon_cmd.c **** 
1006:TINYC256_192/falcon_cmd.c **** ir_error_t spi_read_status(uint8_t status_reg_type, uint8_t *pstatus_val)
1007:TINYC256_192/falcon_cmd.c **** {
 4042              		.loc 1 1007 1 is_stmt 1 view -0
 4043              		.cfi_startproc
 4044              		@ args = 0, pretend = 0, frame = 8
 4045              		@ frame_needed = 0, uses_anonymous_args = 0
 4046              		.loc 1 1007 1 is_stmt 0 view .LVU1245
 4047 0000 00B5     		push	{lr}
 4048              	.LCFI150:
 4049              		.cfi_def_cfa_offset 4
 4050              		.cfi_offset 14, -4
 4051 0002 83B0     		sub	sp, sp, #12
 4052              	.LCFI151:
 4053              		.cfi_def_cfa_offset 16
 4054 0004 0A46     		mov	r2, r1
1008:TINYC256_192/falcon_cmd.c ****     uint16_t wTmpLen = 1;
 4055              		.loc 1 1008 5 is_stmt 1 view .LVU1246
 4056              	.LVL304:
1009:TINYC256_192/falcon_cmd.c ****     vdcmd_std_header_t ptVdCmdHeader = {0};
 4057              		.loc 1 1009 5 view .LVU1247
 4058              		.loc 1 1009 24 is_stmt 0 view .LVU1248
 4059 0006 0023     		movs	r3, #0
 4060 0008 0093     		str	r3, [sp]
 4061 000a 0193     		str	r3, [sp, #4]
1010:TINYC256_192/falcon_cmd.c ****     ptVdCmdHeader.byCmdType = CMDTYPE_STANDARD_TYPE_SPI;
 4062              		.loc 1 1010 5 is_stmt 1 view .LVU1249
 4063              		.loc 1 1010 29 is_stmt 0 view .LVU1250
 4064 000c 0123     		movs	r3, #1
 4065 000e 8DF80030 		strb	r3, [sp]
1011:TINYC256_192/falcon_cmd.c ****     ptVdCmdHeader.bySubCmd = SUBCMD_SPI_RDSR;
ARM GAS  C:\usertemp\ccDXhwvm.s 			page 91


 4066              		.loc 1 1011 5 is_stmt 1 view .LVU1251
 4067              		.loc 1 1011 28 is_stmt 0 view .LVU1252
 4068 0012 8621     		movs	r1, #134
 4069              	.LVL305:
 4070              		.loc 1 1011 28 view .LVU1253
 4071 0014 8DF80110 		strb	r1, [sp, #1]
