ARM GAS  C:\usertemp\cc4JEa5x.s 			page 1


   1              		.cpu cortex-m33
   2              		.arch armv8-m.main
   3              		.fpu fpv4-sp-d16
   4              		.arch_extension dsp
   5              		.eabi_attribute 27, 1
   6              		.eabi_attribute 28, 1
   7              		.eabi_attribute 20, 1
   8              		.eabi_attribute 21, 1
   9              		.eabi_attribute 23, 3
  10              		.eabi_attribute 24, 1
  11              		.eabi_attribute 25, 1
  12              		.eabi_attribute 26, 1
  13              		.eabi_attribute 30, 1
  14              		.eabi_attribute 34, 1
  15              		.eabi_attribute 18, 4
  16              		.file	"i2c.c"
  17              		.text
  18              	.Ltext0:
  19              		.cfi_sections	.debug_frame
  20              		.file 1 "Core/Src/i2c.c"
  21              		.section	.text.MX_I2C3_Init,"ax",%progbits
  22              		.align	1
  23              		.global	MX_I2C3_Init
  24              		.syntax unified
  25              		.thumb
  26              		.thumb_func
  28              	MX_I2C3_Init:
  29              	.LFB157:
   1:Core/Src/i2c.c **** /* USER CODE BEGIN Header */
   2:Core/Src/i2c.c **** /**
   3:Core/Src/i2c.c ****   ******************************************************************************
   4:Core/Src/i2c.c ****   * @file    i2c.c
   5:Core/Src/i2c.c ****   * @brief   This file provides code for the configuration
   6:Core/Src/i2c.c ****   *          of the I2C instances.
   7:Core/Src/i2c.c ****   ******************************************************************************
   8:Core/Src/i2c.c ****   * @attention
   9:Core/Src/i2c.c ****   *
  10:Core/Src/i2c.c ****   * Copyright (c) 2025 STMicroelectronics.
  11:Core/Src/i2c.c ****   * All rights reserved.
  12:Core/Src/i2c.c ****   *
  13:Core/Src/i2c.c ****   * This software is licensed under terms that can be found in the LICENSE file
  14:Core/Src/i2c.c ****   * in the root directory of this software component.
  15:Core/Src/i2c.c ****   * If no LICENSE file comes with this software, it is provided AS-IS.
  16:Core/Src/i2c.c ****   *
  17:Core/Src/i2c.c ****   ******************************************************************************
  18:Core/Src/i2c.c ****   */
  19:Core/Src/i2c.c **** /* USER CODE END Header */
  20:Core/Src/i2c.c **** /* Includes ------------------------------------------------------------------*/
  21:Core/Src/i2c.c **** #include "i2c.h"
  22:Core/Src/i2c.c **** 
  23:Core/Src/i2c.c **** /* USER CODE BEGIN 0 */
  24:Core/Src/i2c.c **** 
  25:Core/Src/i2c.c **** /* USER CODE END 0 */
  26:Core/Src/i2c.c **** 
  27:Core/Src/i2c.c **** I2C_HandleTypeDef hi2c3;
  28:Core/Src/i2c.c **** 
  29:Core/Src/i2c.c **** /* I2C3 init function */
ARM GAS  C:\usertemp\cc4JEa5x.s 			page 2


  30:Core/Src/i2c.c **** void MX_I2C3_Init(void)
  31:Core/Src/i2c.c **** {
  30              		.loc 1 31 1 view -0
  31              		.cfi_startproc
  32              		@ args = 0, pretend = 0, frame = 0
  33              		@ frame_needed = 0, uses_anonymous_args = 0
  34 0000 08B5     		push	{r3, lr}
  35              	.LCFI0:
  36              		.cfi_def_cfa_offset 8
  37              		.cfi_offset 3, -8
  38              		.cfi_offset 14, -4
  32:Core/Src/i2c.c **** 
  33:Core/Src/i2c.c ****   /* USER CODE BEGIN I2C3_Init 0 */
  34:Core/Src/i2c.c **** 
  35:Core/Src/i2c.c ****   /* USER CODE END I2C3_Init 0 */
  36:Core/Src/i2c.c **** 
  37:Core/Src/i2c.c ****   /* USER CODE BEGIN I2C3_Init 1 */
  38:Core/Src/i2c.c **** 
  39:Core/Src/i2c.c ****   /* USER CODE END I2C3_Init 1 */
  40:Core/Src/i2c.c ****   hi2c3.Instance = I2C3;
  39              		.loc 1 40 3 view .LVU1
  40              		.loc 1 40 18 is_stmt 0 view .LVU2
  41 0002 1548     		ldr	r0, .L9
  42 0004 154B     		ldr	r3, .L9+4
  43 0006 0360     		str	r3, [r0]
  41:Core/Src/i2c.c ****   hi2c3.Init.Timing = 0x10707DBC;
  44              		.loc 1 41 3 is_stmt 1 view .LVU3
  45              		.loc 1 41 21 is_stmt 0 view .LVU4
  46 0008 A3F15653 		sub	r3, r3, #897581056
  47 000c A3F57A23 		sub	r3, r3, #1024000
  48 0010 A3F64423 		subw	r3, r3, #2628
  49 0014 4360     		str	r3, [r0, #4]
  42:Core/Src/i2c.c ****   hi2c3.Init.OwnAddress1 = 0;
  50              		.loc 1 42 3 is_stmt 1 view .LVU5
  51              		.loc 1 42 26 is_stmt 0 view .LVU6
  52 0016 0023     		movs	r3, #0
  53 0018 8360     		str	r3, [r0, #8]
  43:Core/Src/i2c.c ****   hi2c3.Init.AddressingMode = I2C_ADDRESSINGMODE_7BIT;
  54              		.loc 1 43 3 is_stmt 1 view .LVU7
  55              		.loc 1 43 29 is_stmt 0 view .LVU8
  56 001a 0122     		movs	r2, #1
  57 001c C260     		str	r2, [r0, #12]
  44:Core/Src/i2c.c ****   hi2c3.Init.DualAddressMode = I2C_DUALADDRESS_DISABLE;
  58              		.loc 1 44 3 is_stmt 1 view .LVU9
  59              		.loc 1 44 30 is_stmt 0 view .LVU10
  60 001e 0361     		str	r3, [r0, #16]
  45:Core/Src/i2c.c ****   hi2c3.Init.OwnAddress2 = 0;
  61              		.loc 1 45 3 is_stmt 1 view .LVU11
  62              		.loc 1 45 26 is_stmt 0 view .LVU12
  63 0020 4361     		str	r3, [r0, #20]
  46:Core/Src/i2c.c ****   hi2c3.Init.OwnAddress2Masks = I2C_OA2_NOMASK;
  64              		.loc 1 46 3 is_stmt 1 view .LVU13
  65              		.loc 1 46 31 is_stmt 0 view .LVU14
  66 0022 8361     		str	r3, [r0, #24]
  47:Core/Src/i2c.c ****   hi2c3.Init.GeneralCallMode = I2C_GENERALCALL_DISABLE;
  67              		.loc 1 47 3 is_stmt 1 view .LVU15
  68              		.loc 1 47 30 is_stmt 0 view .LVU16
ARM GAS  C:\usertemp\cc4JEa5x.s 			page 3


  69 0024 C361     		str	r3, [r0, #28]
  48:Core/Src/i2c.c ****   hi2c3.Init.NoStretchMode = I2C_NOSTRETCH_DISABLE;
  70              		.loc 1 48 3 is_stmt 1 view .LVU17
  71              		.loc 1 48 28 is_stmt 0 view .LVU18
  72 0026 0362     		str	r3, [r0, #32]
  49:Core/Src/i2c.c ****   if (HAL_I2C_Init(&hi2c3) != HAL_OK)
  73              		.loc 1 49 3 is_stmt 1 view .LVU19
  74              		.loc 1 49 7 is_stmt 0 view .LVU20
  75 0028 FFF7FEFF 		bl	HAL_I2C_Init
  76              	.LVL0:
  77              		.loc 1 49 6 discriminator 1 view .LVU21
  78 002c 50B9     		cbnz	r0, .L6
  79              	.L2:
  50:Core/Src/i2c.c ****   {
  51:Core/Src/i2c.c ****     Error_Handler();
  52:Core/Src/i2c.c ****   }
  53:Core/Src/i2c.c **** 
  54:Core/Src/i2c.c ****   /** Configure Analogue filter
  55:Core/Src/i2c.c ****   */
  56:Core/Src/i2c.c ****   if (HAL_I2CEx_ConfigAnalogFilter(&hi2c3, I2C_ANALOGFILTER_ENABLE) != HAL_OK)
  80              		.loc 1 56 3 is_stmt 1 view .LVU22
  81              		.loc 1 56 7 is_stmt 0 view .LVU23
  82 002e 0021     		movs	r1, #0
  83 0030 0948     		ldr	r0, .L9
  84 0032 FFF7FEFF 		bl	HAL_I2CEx_ConfigAnalogFilter
  85              	.LVL1:
  86              		.loc 1 56 6 discriminator 1 view .LVU24
  87 0036 40B9     		cbnz	r0, .L7
  88              	.L3:
  57:Core/Src/i2c.c ****   {
  58:Core/Src/i2c.c ****     Error_Handler();
  59:Core/Src/i2c.c ****   }
  60:Core/Src/i2c.c **** 
  61:Core/Src/i2c.c ****   /** Configure Digital filter
  62:Core/Src/i2c.c ****   */
  63:Core/Src/i2c.c ****   if (HAL_I2CEx_ConfigDigitalFilter(&hi2c3, 0) != HAL_OK)
  89              		.loc 1 63 3 is_stmt 1 view .LVU25
  90              		.loc 1 63 7 is_stmt 0 view .LVU26
  91 0038 0021     		movs	r1, #0
  92 003a 0748     		ldr	r0, .L9
  93 003c FFF7FEFF 		bl	HAL_I2CEx_ConfigDigitalFilter
  94              	.LVL2:
  95              		.loc 1 63 6 discriminator 1 view .LVU27
  96 0040 30B9     		cbnz	r0, .L8
  97              	.L1:
  64:Core/Src/i2c.c ****   {
  65:Core/Src/i2c.c ****     Error_Handler();
  66:Core/Src/i2c.c ****   }
  67:Core/Src/i2c.c ****   /* USER CODE BEGIN I2C3_Init 2 */
  68:Core/Src/i2c.c **** 
  69:Core/Src/i2c.c ****   /* USER CODE END I2C3_Init 2 */
  70:Core/Src/i2c.c **** 
  71:Core/Src/i2c.c **** }
  98              		.loc 1 71 1 view .LVU28
  99 0042 08BD     		pop	{r3, pc}
 100              	.L6:
  51:Core/Src/i2c.c ****   }
ARM GAS  C:\usertemp\cc4JEa5x.s 			page 4


 101              		.loc 1 51 5 is_stmt 1 view .LVU29
 102 0044 FFF7FEFF 		bl	Error_Handler
 103              	.LVL3:
 104 0048 F1E7     		b	.L2
 105              	.L7:
  58:Core/Src/i2c.c ****   }
 106              		.loc 1 58 5 view .LVU30
 107 004a FFF7FEFF 		bl	Error_Handler
 108              	.LVL4:
 109 004e F3E7     		b	.L3
 110              	.L8:
  65:Core/Src/i2c.c ****   }
 111              		.loc 1 65 5 view .LVU31
 112 0050 FFF7FEFF 		bl	Error_Handler
 113              	.LVL5:
 114              		.loc 1 71 1 is_stmt 0 view .LVU32
 115 0054 F5E7     		b	.L1
 116              	.L10:
 117 0056 00BF     		.align	2
 118              	.L9:
 119 0058 00000000 		.word	hi2c3
 120 005c 00280046 		.word	1174415360
 121              		.cfi_endproc
 122              	.LFE157:
 124              		.section	.text.HAL_I2C_MspInit,"ax",%progbits
 125              		.align	1
 126              		.global	HAL_I2C_MspInit
 127              		.syntax unified
 128              		.thumb
 129              		.thumb_func
 131              	HAL_I2C_MspInit:
 132              	.LVL6:
 133              	.LFB158:
  72:Core/Src/i2c.c **** 
  73:Core/Src/i2c.c **** void HAL_I2C_MspInit(I2C_HandleTypeDef* i2cHandle)
  74:Core/Src/i2c.c **** {
 134              		.loc 1 74 1 is_stmt 1 view -0
 135              		.cfi_startproc
 136              		@ args = 0, pretend = 0, frame = 224
 137              		@ frame_needed = 0, uses_anonymous_args = 0
 138              		.loc 1 74 1 is_stmt 0 view .LVU34
 139 0000 10B5     		push	{r4, lr}
 140              	.LCFI1:
 141              		.cfi_def_cfa_offset 8
 142              		.cfi_offset 4, -8
 143              		.cfi_offset 14, -4
 144 0002 B8B0     		sub	sp, sp, #224
 145              	.LCFI2:
 146              		.cfi_def_cfa_offset 232
 147 0004 0446     		mov	r4, r0
  75:Core/Src/i2c.c **** 
  76:Core/Src/i2c.c ****   GPIO_InitTypeDef GPIO_InitStruct = {0};
 148              		.loc 1 76 3 is_stmt 1 view .LVU35
 149              		.loc 1 76 20 is_stmt 0 view .LVU36
 150 0006 0021     		movs	r1, #0
 151 0008 3391     		str	r1, [sp, #204]
 152 000a 3491     		str	r1, [sp, #208]
ARM GAS  C:\usertemp\cc4JEa5x.s 			page 5


 153 000c 3591     		str	r1, [sp, #212]
 154 000e 3691     		str	r1, [sp, #216]
 155 0010 3791     		str	r1, [sp, #220]
  77:Core/Src/i2c.c ****   RCC_PeriphCLKInitTypeDef PeriphClkInit = {0};
 156              		.loc 1 77 3 is_stmt 1 view .LVU37
 157              		.loc 1 77 28 is_stmt 0 view .LVU38
 158 0012 C022     		movs	r2, #192
 159 0014 02A8     		add	r0, sp, #8
 160              	.LVL7:
 161              		.loc 1 77 28 view .LVU39
 162 0016 FFF7FEFF 		bl	memset
 163              	.LVL8:
  78:Core/Src/i2c.c ****   if(i2cHandle->Instance==I2C3)
 164              		.loc 1 78 3 is_stmt 1 view .LVU40
 165              		.loc 1 78 15 is_stmt 0 view .LVU41
 166 001a 2268     		ldr	r2, [r4]
 167              		.loc 1 78 5 view .LVU42
 168 001c 1B4B     		ldr	r3, .L17
 169 001e 9A42     		cmp	r2, r3
 170 0020 01D0     		beq	.L15
 171              	.LVL9:
 172              	.L11:
  79:Core/Src/i2c.c ****   {
  80:Core/Src/i2c.c ****   /* USER CODE BEGIN I2C3_MspInit 0 */
  81:Core/Src/i2c.c **** 
  82:Core/Src/i2c.c ****   /* USER CODE END I2C3_MspInit 0 */
  83:Core/Src/i2c.c **** 
  84:Core/Src/i2c.c ****   /** Initializes the peripherals clock
  85:Core/Src/i2c.c ****   */
  86:Core/Src/i2c.c ****     PeriphClkInit.PeriphClockSelection = RCC_PERIPHCLK_I2C3;
  87:Core/Src/i2c.c ****     PeriphClkInit.I2c3ClockSelection = RCC_I2C3CLKSOURCE_PCLK3;
  88:Core/Src/i2c.c ****     if (HAL_RCCEx_PeriphCLKConfig(&PeriphClkInit) != HAL_OK)
  89:Core/Src/i2c.c ****     {
  90:Core/Src/i2c.c ****       Error_Handler();
  91:Core/Src/i2c.c ****     }
  92:Core/Src/i2c.c **** 
  93:Core/Src/i2c.c ****     __HAL_RCC_GPIOC_CLK_ENABLE();
  94:Core/Src/i2c.c ****     /**I2C3 GPIO Configuration
  95:Core/Src/i2c.c ****     PC0     ------> I2C3_SCL
  96:Core/Src/i2c.c ****     PC1     ------> I2C3_SDA
  97:Core/Src/i2c.c ****     */
  98:Core/Src/i2c.c ****     GPIO_InitStruct.Pin = GPIO_PIN_0|GPIO_PIN_1;
  99:Core/Src/i2c.c ****     GPIO_InitStruct.Mode = GPIO_MODE_AF_OD;
 100:Core/Src/i2c.c ****     GPIO_InitStruct.Pull = GPIO_PULLUP;
 101:Core/Src/i2c.c ****     GPIO_InitStruct.Speed = GPIO_SPEED_FREQ_VERY_HIGH;
 102:Core/Src/i2c.c ****     GPIO_InitStruct.Alternate = GPIO_AF4_I2C3;
 103:Core/Src/i2c.c ****     HAL_GPIO_Init(GPIOC, &GPIO_InitStruct);
 104:Core/Src/i2c.c **** 
 105:Core/Src/i2c.c ****     /* I2C3 clock enable */
 106:Core/Src/i2c.c ****     __HAL_RCC_I2C3_CLK_ENABLE();
 107:Core/Src/i2c.c ****   /* USER CODE BEGIN I2C3_MspInit 1 */
 108:Core/Src/i2c.c **** 
 109:Core/Src/i2c.c ****   /* USER CODE END I2C3_MspInit 1 */
 110:Core/Src/i2c.c ****   }
 111:Core/Src/i2c.c **** }
 173              		.loc 1 111 1 view .LVU43
 174 0022 38B0     		add	sp, sp, #224
ARM GAS  C:\usertemp\cc4JEa5x.s 			page 6


 175              	.LCFI3:
 176              		.cfi_remember_state
 177              		.cfi_def_cfa_offset 8
 178              		@ sp needed
 179 0024 10BD     		pop	{r4, pc}
 180              	.LVL10:
 181              	.L15:
 182              	.LCFI4:
 183              		.cfi_restore_state
  86:Core/Src/i2c.c ****     PeriphClkInit.I2c3ClockSelection = RCC_I2C3CLKSOURCE_PCLK3;
 184              		.loc 1 86 5 is_stmt 1 view .LVU44
  86:Core/Src/i2c.c ****     PeriphClkInit.I2c3ClockSelection = RCC_I2C3CLKSOURCE_PCLK3;
 185              		.loc 1 86 40 is_stmt 0 view .LVU45
 186 0026 4FF48072 		mov	r2, #256
 187 002a 0023     		movs	r3, #0
 188 002c CDE90223 		strd	r2, [sp, #8]
  87:Core/Src/i2c.c ****     if (HAL_RCCEx_PeriphCLKConfig(&PeriphClkInit) != HAL_OK)
 189              		.loc 1 87 5 is_stmt 1 view .LVU46
  88:Core/Src/i2c.c ****     {
 190              		.loc 1 88 5 view .LVU47
  88:Core/Src/i2c.c ****     {
 191              		.loc 1 88 9 is_stmt 0 view .LVU48
 192 0030 02A8     		add	r0, sp, #8
 193 0032 FFF7FEFF 		bl	HAL_RCCEx_PeriphCLKConfig
 194              	.LVL11:
  88:Core/Src/i2c.c ****     {
 195              		.loc 1 88 8 discriminator 1 view .LVU49
 196 0036 30BB     		cbnz	r0, .L16
 197              	.L13:
  93:Core/Src/i2c.c ****     /**I2C3 GPIO Configuration
 198              		.loc 1 93 5 is_stmt 1 view .LVU50
 199              	.LBB2:
  93:Core/Src/i2c.c ****     /**I2C3 GPIO Configuration
 200              		.loc 1 93 5 view .LVU51
  93:Core/Src/i2c.c ****     /**I2C3 GPIO Configuration
 201              		.loc 1 93 5 view .LVU52
 202 0038 154C     		ldr	r4, .L17+4
 203              	.LVL12:
  93:Core/Src/i2c.c ****     /**I2C3 GPIO Configuration
 204              		.loc 1 93 5 is_stmt 0 view .LVU53
 205 003a D4F88C30 		ldr	r3, [r4, #140]
 206 003e 43F00403 		orr	r3, r3, #4
 207 0042 C4F88C30 		str	r3, [r4, #140]
  93:Core/Src/i2c.c ****     /**I2C3 GPIO Configuration
 208              		.loc 1 93 5 is_stmt 1 view .LVU54
 209 0046 D4F88C30 		ldr	r3, [r4, #140]
 210 004a 03F00403 		and	r3, r3, #4
 211 004e 0093     		str	r3, [sp]
  93:Core/Src/i2c.c ****     /**I2C3 GPIO Configuration
 212              		.loc 1 93 5 view .LVU55
 213 0050 009B     		ldr	r3, [sp]
 214              	.LBE2:
  93:Core/Src/i2c.c ****     /**I2C3 GPIO Configuration
 215              		.loc 1 93 5 view .LVU56
  98:Core/Src/i2c.c ****     GPIO_InitStruct.Mode = GPIO_MODE_AF_OD;
 216              		.loc 1 98 5 view .LVU57
  98:Core/Src/i2c.c ****     GPIO_InitStruct.Mode = GPIO_MODE_AF_OD;
ARM GAS  C:\usertemp\cc4JEa5x.s 			page 7


 217              		.loc 1 98 25 is_stmt 0 view .LVU58
 218 0052 0323     		movs	r3, #3
 219 0054 3393     		str	r3, [sp, #204]
  99:Core/Src/i2c.c ****     GPIO_InitStruct.Pull = GPIO_PULLUP;
 220              		.loc 1 99 5 is_stmt 1 view .LVU59
  99:Core/Src/i2c.c ****     GPIO_InitStruct.Pull = GPIO_PULLUP;
 221              		.loc 1 99 26 is_stmt 0 view .LVU60
 222 0056 1222     		movs	r2, #18
 223 0058 3492     		str	r2, [sp, #208]
 100:Core/Src/i2c.c ****     GPIO_InitStruct.Speed = GPIO_SPEED_FREQ_VERY_HIGH;
 224              		.loc 1 100 5 is_stmt 1 view .LVU61
 100:Core/Src/i2c.c ****     GPIO_InitStruct.Speed = GPIO_SPEED_FREQ_VERY_HIGH;
 225              		.loc 1 100 26 is_stmt 0 view .LVU62
 226 005a 0122     		movs	r2, #1
 227 005c 3592     		str	r2, [sp, #212]
 101:Core/Src/i2c.c ****     GPIO_InitStruct.Alternate = GPIO_AF4_I2C3;
 228              		.loc 1 101 5 is_stmt 1 view .LVU63
 101:Core/Src/i2c.c ****     GPIO_InitStruct.Alternate = GPIO_AF4_I2C3;
 229              		.loc 1 101 27 is_stmt 0 view .LVU64
 230 005e 3693     		str	r3, [sp, #216]
 102:Core/Src/i2c.c ****     HAL_GPIO_Init(GPIOC, &GPIO_InitStruct);
 231              		.loc 1 102 5 is_stmt 1 view .LVU65
 102:Core/Src/i2c.c ****     HAL_GPIO_Init(GPIOC, &GPIO_InitStruct);
 232              		.loc 1 102 31 is_stmt 0 view .LVU66
 233 0060 0423     		movs	r3, #4
 234 0062 3793     		str	r3, [sp, #220]
 103:Core/Src/i2c.c **** 
 235              		.loc 1 103 5 is_stmt 1 view .LVU67
 236 0064 33A9     		add	r1, sp, #204
 237 0066 0B48     		ldr	r0, .L17+8
 238 0068 FFF7FEFF 		bl	HAL_GPIO_Init
 239              	.LVL13:
 106:Core/Src/i2c.c ****   /* USER CODE BEGIN I2C3_MspInit 1 */
 240              		.loc 1 106 5 view .LVU68
 241              	.LBB3:
 106:Core/Src/i2c.c ****   /* USER CODE BEGIN I2C3_MspInit 1 */
 242              		.loc 1 106 5 view .LVU69
 106:Core/Src/i2c.c ****   /* USER CODE BEGIN I2C3_MspInit 1 */
 243              		.loc 1 106 5 view .LVU70
 244 006c D4F8A830 		ldr	r3, [r4, #168]
 245 0070 43F08003 		orr	r3, r3, #128
 246 0074 C4F8A830 		str	r3, [r4, #168]
 106:Core/Src/i2c.c ****   /* USER CODE BEGIN I2C3_MspInit 1 */
 247              		.loc 1 106 5 view .LVU71
 248 0078 D4F8A830 		ldr	r3, [r4, #168]
 249 007c 03F08003 		and	r3, r3, #128
 250 0080 0193     		str	r3, [sp, #4]
 106:Core/Src/i2c.c ****   /* USER CODE BEGIN I2C3_MspInit 1 */
 251              		.loc 1 106 5 view .LVU72
 252 0082 019B     		ldr	r3, [sp, #4]
 253              	.LBE3:
 106:Core/Src/i2c.c ****   /* USER CODE BEGIN I2C3_MspInit 1 */
 254              		.loc 1 106 5 discriminator 1 view .LVU73
 255              		.loc 1 111 1 is_stmt 0 view .LVU74
 256 0084 CDE7     		b	.L11
 257              	.LVL14:
 258              	.L16:
ARM GAS  C:\usertemp\cc4JEa5x.s 			page 8


  90:Core/Src/i2c.c ****     }
 259              		.loc 1 90 7 is_stmt 1 view .LVU75
 260 0086 FFF7FEFF 		bl	Error_Handler
 261              	.LVL15:
 262 008a D5E7     		b	.L13
 263              	.L18:
 264              		.align	2
 265              	.L17:
 266 008c 00280046 		.word	1174415360
 267 0090 000C0246 		.word	1174539264
 268 0094 00080242 		.word	1107429376
 269              		.cfi_endproc
 270              	.LFE158:
 272              		.section	.text.HAL_I2C_MspDeInit,"ax",%progbits
 273              		.align	1
 274              		.global	HAL_I2C_MspDeInit
 275              		.syntax unified
 276              		.thumb
 277              		.thumb_func
 279              	HAL_I2C_MspDeInit:
 280              	.LVL16:
 281              	.LFB159:
 112:Core/Src/i2c.c **** 
 113:Core/Src/i2c.c **** void HAL_I2C_MspDeInit(I2C_HandleTypeDef* i2cHandle)
 114:Core/Src/i2c.c **** {
 282              		.loc 1 114 1 view -0
 283              		.cfi_startproc
 284              		@ args = 0, pretend = 0, frame = 0
 285              		@ frame_needed = 0, uses_anonymous_args = 0
 115:Core/Src/i2c.c **** 
 116:Core/Src/i2c.c ****   if(i2cHandle->Instance==I2C3)
 286              		.loc 1 116 3 view .LVU77
 287              		.loc 1 116 15 is_stmt 0 view .LVU78
 288 0000 0268     		ldr	r2, [r0]
 289              		.loc 1 116 5 view .LVU79
 290 0002 0B4B     		ldr	r3, .L26
 291 0004 9A42     		cmp	r2, r3
 292 0006 00D0     		beq	.L25
 293 0008 7047     		bx	lr
 294              	.L25:
 114:Core/Src/i2c.c **** 
 295              		.loc 1 114 1 view .LVU80
 296 000a 10B5     		push	{r4, lr}
 297              	.LCFI5:
 298              		.cfi_def_cfa_offset 8
 299              		.cfi_offset 4, -8
 300              		.cfi_offset 14, -4
 117:Core/Src/i2c.c ****   {
 118:Core/Src/i2c.c ****   /* USER CODE BEGIN I2C3_MspDeInit 0 */
 119:Core/Src/i2c.c **** 
 120:Core/Src/i2c.c ****   /* USER CODE END I2C3_MspDeInit 0 */
 121:Core/Src/i2c.c ****     /* Peripheral clock disable */
 122:Core/Src/i2c.c ****     __HAL_RCC_I2C3_CLK_DISABLE();
 301              		.loc 1 122 5 is_stmt 1 view .LVU81
 302 000c 094A     		ldr	r2, .L26+4
 303 000e D2F8A830 		ldr	r3, [r2, #168]
 304 0012 23F08003 		bic	r3, r3, #128
ARM GAS  C:\usertemp\cc4JEa5x.s 			page 9


 305 0016 C2F8A830 		str	r3, [r2, #168]
 123:Core/Src/i2c.c **** 
 124:Core/Src/i2c.c ****     /**I2C3 GPIO Configuration
 125:Core/Src/i2c.c ****     PC0     ------> I2C3_SCL
 126:Core/Src/i2c.c ****     PC1     ------> I2C3_SDA
 127:Core/Src/i2c.c ****     */
 128:Core/Src/i2c.c ****     HAL_GPIO_DeInit(GPIOC, GPIO_PIN_0);
 306              		.loc 1 128 5 view .LVU82
 307 001a 074C     		ldr	r4, .L26+8
 308 001c 0121     		movs	r1, #1
 309 001e 2046     		mov	r0, r4
 310              	.LVL17:
 311              		.loc 1 128 5 is_stmt 0 view .LVU83
 312 0020 FFF7FEFF 		bl	HAL_GPIO_DeInit
 313              	.LVL18:
 129:Core/Src/i2c.c **** 
 130:Core/Src/i2c.c ****     HAL_GPIO_DeInit(GPIOC, GPIO_PIN_1);
 314              		.loc 1 130 5 is_stmt 1 view .LVU84
 315 0024 0221     		movs	r1, #2
 316 0026 2046     		mov	r0, r4
 317 0028 FFF7FEFF 		bl	HAL_GPIO_DeInit
 318              	.LVL19:
 131:Core/Src/i2c.c **** 
 132:Core/Src/i2c.c ****   /* USER CODE BEGIN I2C3_MspDeInit 1 */
 133:Core/Src/i2c.c **** 
 134:Core/Src/i2c.c ****   /* USER CODE END I2C3_MspDeInit 1 */
 135:Core/Src/i2c.c ****   }
 136:Core/Src/i2c.c **** }
 319              		.loc 1 136 1 is_stmt 0 view .LVU85
 320 002c 10BD     		pop	{r4, pc}
 321              	.L27:
 322 002e 00BF     		.align	2
 323              	.L26:
 324 0030 00280046 		.word	1174415360
 325 0034 000C0246 		.word	1174539264
 326 0038 00080242 		.word	1107429376
 327              		.cfi_endproc
 328              	.LFE159:
 330              		.global	hi2c3
 331              		.section	.bss.hi2c3,"aw",%nobits
 332              		.align	2
 335              	hi2c3:
 336 0000 00000000 		.space	84
 336      00000000 
 336      00000000 
 336      00000000 
 336      00000000 
 337              		.text
 338              	.Letext0:
 339              		.file 2 "D:/armtoolchain/arm-gnu-toolchain-13.3.rel1-mingw-w64-i686-arm-none-eabi/arm-none-eabi/in
 340              		.file 3 "D:/armtoolchain/arm-gnu-toolchain-13.3.rel1-mingw-w64-i686-arm-none-eabi/arm-none-eabi/in
 341              		.file 4 "Drivers/CMSIS/Device/ST/STM32U5xx/Include/stm32u575xx.h"
 342              		.file 5 "Drivers/STM32U5xx_HAL_Driver/Inc/stm32u5xx_hal_def.h"
 343              		.file 6 "Drivers/STM32U5xx_HAL_Driver/Inc/stm32u5xx_hal_rcc_ex.h"
 344              		.file 7 "Drivers/STM32U5xx_HAL_Driver/Inc/stm32u5xx_hal_gpio.h"
 345              		.file 8 "Drivers/STM32U5xx_HAL_Driver/Inc/stm32u5xx_hal_dma.h"
 346              		.file 9 "Drivers/STM32U5xx_HAL_Driver/Inc/stm32u5xx_hal_dma_ex.h"
ARM GAS  C:\usertemp\cc4JEa5x.s 			page 10


 347              		.file 10 "Drivers/STM32U5xx_HAL_Driver/Inc/stm32u5xx_hal_i2c.h"
 348              		.file 11 "Drivers/STM32U5xx_HAL_Driver/Inc/stm32u5xx_hal_i2c_ex.h"
 349              		.file 12 "Core/Inc/i2c.h"
 350              		.file 13 "Core/Inc/main.h"
 351              		.file 14 "<built-in>"
ARM GAS  C:\usertemp\cc4JEa5x.s 			page 11

