ARM GAS  C:\usertemp\ccvFf8vk.s 			page 1


   1              		.cpu cortex-m33
   2              		.arch armv8-m.main
   3              		.fpu fpv4-sp-d16
   4              		.arch_extension dsp
   5              		.eabi_attribute 27, 1
   6              		.eabi_attribute 28, 1
   7              		.eabi_attribute 20, 1
   8              		.eabi_attribute 21, 1
   9              		.eabi_attribute 23, 3
  10              		.eabi_attribute 24, 1
  11              		.eabi_attribute 25, 1
  12              		.eabi_attribute 26, 1
  13              		.eabi_attribute 30, 1
  14              		.eabi_attribute 34, 1
  15              		.eabi_attribute 18, 4
  16              		.file	"lora.c"
  17              		.text
  18              	.Ltext0:
  19              		.cfi_sections	.debug_frame
  20              		.file 1 "Lora/lora.c"
  21              		.section	.text.Lora_data_init,"ax",%progbits
  22              		.align	1
  23              		.global	Lora_data_init
  24              		.syntax unified
  25              		.thumb
  26              		.thumb_func
  28              	Lora_data_init:
  29              	.LFB160:
   1:Lora/lora.c   **** #include "lora.h"
   2:Lora/lora.c   **** #include "string.h"
   3:Lora/lora.c   **** #include "stdio.h"
   4:Lora/lora.c   **** uint8_t Lora_data_at[5];
   5:Lora/lora.c   **** uint16_t Lora_data_msg[20];
   6:Lora/lora.c   **** uint8_t Lora_data_powerdown[13];
   7:Lora/lora.c   **** 
   8:Lora/lora.c   **** void Lora_data_init()
   9:Lora/lora.c   **** {
  30              		.loc 1 9 1 view -0
  31              		.cfi_startproc
  32              		@ args = 0, pretend = 0, frame = 0
  33              		@ frame_needed = 0, uses_anonymous_args = 0
  34 0000 30B5     		push	{r4, r5, lr}
  35              	.LCFI0:
  36              		.cfi_def_cfa_offset 12
  37              		.cfi_offset 4, -12
  38              		.cfi_offset 5, -8
  39              		.cfi_offset 14, -4
  10:Lora/lora.c   **** 
  11:Lora/lora.c   ****     Lora_data_at[0] = 'a';
  40              		.loc 1 11 5 view .LVU1
  41              		.loc 1 11 21 is_stmt 0 view .LVU2
  42 0002 1D4B     		ldr	r3, .L3
  43 0004 6120     		movs	r0, #97
  44 0006 1870     		strb	r0, [r3]
  12:Lora/lora.c   ****     Lora_data_at[1] = 't';
  45              		.loc 1 12 5 is_stmt 1 view .LVU3
  46              		.loc 1 12 21 is_stmt 0 view .LVU4
ARM GAS  C:\usertemp\ccvFf8vk.s 			page 2


  47 0008 7421     		movs	r1, #116
  48 000a 5970     		strb	r1, [r3, #1]
  13:Lora/lora.c   ****     Lora_data_at[2] = '\r';
  49              		.loc 1 13 5 is_stmt 1 view .LVU5
  50              		.loc 1 13 21 is_stmt 0 view .LVU6
  51 000c 4FF00D0C 		mov	ip, #13
  52 0010 83F802C0 		strb	ip, [r3, #2]
  14:Lora/lora.c   ****     Lora_data_at[3] = '\n';
  53              		.loc 1 14 5 is_stmt 1 view .LVU7
  54              		.loc 1 14 21 is_stmt 0 view .LVU8
  55 0014 0A22     		movs	r2, #10
  56 0016 DA70     		strb	r2, [r3, #3]
  15:Lora/lora.c   ****     Lora_data_at[4] = '\n';
  57              		.loc 1 15 5 is_stmt 1 view .LVU9
  58              		.loc 1 15 21 is_stmt 0 view .LVU10
  59 0018 1A71     		strb	r2, [r3, #4]
  16:Lora/lora.c   **** 
  17:Lora/lora.c   ****     Lora_data_msg[0] = 'a';
  60              		.loc 1 17 5 is_stmt 1 view .LVU11
  61              		.loc 1 17 22 is_stmt 0 view .LVU12
  62 001a 184B     		ldr	r3, .L3+4
  63 001c 1880     		strh	r0, [r3]	@ movhi
  18:Lora/lora.c   ****     Lora_data_msg[1] = 't';
  64              		.loc 1 18 5 is_stmt 1 view .LVU13
  65              		.loc 1 18 22 is_stmt 0 view .LVU14
  66 001e 5980     		strh	r1, [r3, #2]	@ movhi
  19:Lora/lora.c   ****     Lora_data_msg[2] = '+';
  67              		.loc 1 19 5 is_stmt 1 view .LVU15
  68              		.loc 1 19 22 is_stmt 0 view .LVU16
  69 0020 2B24     		movs	r4, #43
  70 0022 9C80     		strh	r4, [r3, #4]	@ movhi
  20:Lora/lora.c   ****     Lora_data_msg[3] = 'm';
  71              		.loc 1 20 5 is_stmt 1 view .LVU17
  72              		.loc 1 20 22 is_stmt 0 view .LVU18
  73 0024 6D25     		movs	r5, #109
  74 0026 DD80     		strh	r5, [r3, #6]	@ movhi
  21:Lora/lora.c   ****     Lora_data_msg[4] = 's';
  75              		.loc 1 21 5 is_stmt 1 view .LVU19
  76              		.loc 1 21 22 is_stmt 0 view .LVU20
  77 0028 7325     		movs	r5, #115
  78 002a 1D81     		strh	r5, [r3, #8]	@ movhi
  22:Lora/lora.c   ****     Lora_data_msg[5] = 'g';
  79              		.loc 1 22 5 is_stmt 1 view .LVU21
  80              		.loc 1 22 22 is_stmt 0 view .LVU22
  81 002c 6725     		movs	r5, #103
  82 002e 5D81     		strh	r5, [r3, #10]	@ movhi
  23:Lora/lora.c   ****     Lora_data_msg[6] = 'h';
  83              		.loc 1 23 5 is_stmt 1 view .LVU23
  84              		.loc 1 23 22 is_stmt 0 view .LVU24
  85 0030 6825     		movs	r5, #104
  86 0032 9D81     		strh	r5, [r3, #12]	@ movhi
  24:Lora/lora.c   ****     Lora_data_msg[7] = 'e';
  87              		.loc 1 24 5 is_stmt 1 view .LVU25
  88              		.loc 1 24 22 is_stmt 0 view .LVU26
  89 0034 4FF0650E 		mov	lr, #101
  90 0038 A3F80EE0 		strh	lr, [r3, #14]	@ movhi
  25:Lora/lora.c   ****     Lora_data_msg[8] = 'x';
ARM GAS  C:\usertemp\ccvFf8vk.s 			page 3


  91              		.loc 1 25 5 is_stmt 1 view .LVU27
  92              		.loc 1 25 22 is_stmt 0 view .LVU28
  93 003c 7825     		movs	r5, #120
  94 003e 1D82     		strh	r5, [r3, #16]	@ movhi
  26:Lora/lora.c   ****     Lora_data_msg[9] = '=';
  95              		.loc 1 26 5 is_stmt 1 view .LVU29
  96              		.loc 1 26 22 is_stmt 0 view .LVU30
  97 0040 3D25     		movs	r5, #61
  98 0042 5D82     		strh	r5, [r3, #18]	@ movhi
  27:Lora/lora.c   **** 
  28:Lora/lora.c   ****     Lora_data_msg[10] = 0x22;
  99              		.loc 1 28 5 is_stmt 1 view .LVU31
 100              		.loc 1 28 23 is_stmt 0 view .LVU32
 101 0044 2225     		movs	r5, #34
 102 0046 9D82     		strh	r5, [r3, #20]	@ movhi
  29:Lora/lora.c   ****     // Lora_data_msg[23] = 0x22;
  30:Lora/lora.c   ****     // Lora_data_msg[24] = '\r';
  31:Lora/lora.c   ****     // Lora_data_msg[25] = '\n';
  32:Lora/lora.c   ****     // Lora_data_msg[26] = '\n';
  33:Lora/lora.c   **** 
  34:Lora/lora.c   ****     Lora_data_powerdown[0] = 'a';
 103              		.loc 1 34 5 is_stmt 1 view .LVU33
 104              		.loc 1 34 28 is_stmt 0 view .LVU34
 105 0048 0D4B     		ldr	r3, .L3+8
 106 004a 1870     		strb	r0, [r3]
  35:Lora/lora.c   ****     Lora_data_powerdown[1] = 't';
 107              		.loc 1 35 5 is_stmt 1 view .LVU35
 108              		.loc 1 35 28 is_stmt 0 view .LVU36
 109 004c 5970     		strb	r1, [r3, #1]
  36:Lora/lora.c   ****     Lora_data_powerdown[2] = '+';
 110              		.loc 1 36 5 is_stmt 1 view .LVU37
 111              		.loc 1 36 28 is_stmt 0 view .LVU38
 112 004e 9C70     		strb	r4, [r3, #2]
  37:Lora/lora.c   ****     Lora_data_powerdown[3] = 'l';
 113              		.loc 1 37 5 is_stmt 1 view .LVU39
 114              		.loc 1 37 28 is_stmt 0 view .LVU40
 115 0050 6C21     		movs	r1, #108
 116 0052 D970     		strb	r1, [r3, #3]
  38:Lora/lora.c   ****     Lora_data_powerdown[4] = 'o';
 117              		.loc 1 38 5 is_stmt 1 view .LVU41
 118              		.loc 1 38 28 is_stmt 0 view .LVU42
 119 0054 6F20     		movs	r0, #111
 120 0056 1871     		strb	r0, [r3, #4]
  39:Lora/lora.c   ****     Lora_data_powerdown[5] = 'w';
 121              		.loc 1 39 5 is_stmt 1 view .LVU43
 122              		.loc 1 39 28 is_stmt 0 view .LVU44
 123 0058 7721     		movs	r1, #119
 124 005a 5971     		strb	r1, [r3, #5]
  40:Lora/lora.c   ****     Lora_data_powerdown[6] = 'p';
 125              		.loc 1 40 5 is_stmt 1 view .LVU45
 126              		.loc 1 40 28 is_stmt 0 view .LVU46
 127 005c 7024     		movs	r4, #112
 128 005e 9C71     		strb	r4, [r3, #6]
  41:Lora/lora.c   ****     Lora_data_powerdown[7] = 'o';
 129              		.loc 1 41 5 is_stmt 1 view .LVU47
 130              		.loc 1 41 28 is_stmt 0 view .LVU48
 131 0060 D871     		strb	r0, [r3, #7]
ARM GAS  C:\usertemp\ccvFf8vk.s 			page 4


  42:Lora/lora.c   ****     Lora_data_powerdown[8] = 'w';
 132              		.loc 1 42 5 is_stmt 1 view .LVU49
 133              		.loc 1 42 28 is_stmt 0 view .LVU50
 134 0062 1972     		strb	r1, [r3, #8]
  43:Lora/lora.c   ****     Lora_data_powerdown[9] = 'e';
 135              		.loc 1 43 5 is_stmt 1 view .LVU51
 136              		.loc 1 43 28 is_stmt 0 view .LVU52
 137 0064 83F809E0 		strb	lr, [r3, #9]
  44:Lora/lora.c   ****     Lora_data_powerdown[10] = 'r';
 138              		.loc 1 44 5 is_stmt 1 view .LVU53
 139              		.loc 1 44 29 is_stmt 0 view .LVU54
 140 0068 7221     		movs	r1, #114
 141 006a 9972     		strb	r1, [r3, #10]
  45:Lora/lora.c   ****     Lora_data_powerdown[11] = '\r';
 142              		.loc 1 45 5 is_stmt 1 view .LVU55
 143              		.loc 1 45 29 is_stmt 0 view .LVU56
 144 006c 83F80BC0 		strb	ip, [r3, #11]
  46:Lora/lora.c   ****     Lora_data_powerdown[12] = '\n';
 145              		.loc 1 46 5 is_stmt 1 view .LVU57
 146              		.loc 1 46 29 is_stmt 0 view .LVU58
 147 0070 1A73     		strb	r2, [r3, #12]
  47:Lora/lora.c   ****     Lora_data_powerdown[13] = '\n';
 148              		.loc 1 47 5 is_stmt 1 view .LVU59
 149              		.loc 1 47 29 is_stmt 0 view .LVU60
 150 0072 5A73     		strb	r2, [r3, #13]
  48:Lora/lora.c   **** }
 151              		.loc 1 48 1 view .LVU61
 152 0074 30BD     		pop	{r4, r5, pc}
 153              	.L4:
 154 0076 00BF     		.align	2
 155              	.L3:
 156 0078 00000000 		.word	Lora_data_at
 157 007c 00000000 		.word	Lora_data_msg
 158 0080 00000000 		.word	Lora_data_powerdown
 159              		.cfi_endproc
 160              	.LFE160:
 162              		.section	.text.Lora_send_Init,"ax",%progbits
 163              		.align	1
 164              		.global	Lora_send_Init
 165              		.syntax unified
 166              		.thumb
 167              		.thumb_func
 169              	Lora_send_Init:
 170              	.LFB161:
  49:Lora/lora.c   **** void Lora_send_Init()
  50:Lora/lora.c   **** {
 171              		.loc 1 50 1 is_stmt 1 view -0
 172              		.cfi_startproc
 173              		@ args = 0, pretend = 0, frame = 0
 174              		@ frame_needed = 0, uses_anonymous_args = 0
 175 0000 08B5     		push	{r3, lr}
 176              	.LCFI1:
 177              		.cfi_def_cfa_offset 8
 178              		.cfi_offset 3, -8
 179              		.cfi_offset 14, -4
  51:Lora/lora.c   ****     HAL_UART_Transmit(LORA_TX_PORT, Lora_data_at, sizeof(Lora_data_at), HAL_MAX_DELAY);
 180              		.loc 1 51 5 view .LVU63
ARM GAS  C:\usertemp\ccvFf8vk.s 			page 5


 181 0002 4FF0FF33 		mov	r3, #-1
 182 0006 0522     		movs	r2, #5
 183 0008 0249     		ldr	r1, .L7
 184 000a 0348     		ldr	r0, .L7+4
 185 000c FFF7FEFF 		bl	HAL_UART_Transmit
 186              	.LVL0:
  52:Lora/lora.c   **** }
 187              		.loc 1 52 1 is_stmt 0 view .LVU64
 188 0010 08BD     		pop	{r3, pc}
 189              	.L8:
 190 0012 00BF     		.align	2
 191              	.L7:
 192 0014 00000000 		.word	Lora_data_at
 193 0018 00000000 		.word	huart3
 194              		.cfi_endproc
 195              	.LFE161:
 197              		.section	.text.Lora_powerDown,"ax",%progbits
 198              		.align	1
 199              		.global	Lora_powerDown
 200              		.syntax unified
 201              		.thumb
 202              		.thumb_func
 204              	Lora_powerDown:
 205              	.LFB162:
  53:Lora/lora.c   **** 
  54:Lora/lora.c   **** void Lora_powerDown()
  55:Lora/lora.c   **** {
 206              		.loc 1 55 1 is_stmt 1 view -0
 207              		.cfi_startproc
 208              		@ args = 0, pretend = 0, frame = 0
 209              		@ frame_needed = 0, uses_anonymous_args = 0
 210 0000 08B5     		push	{r3, lr}
 211              	.LCFI2:
 212              		.cfi_def_cfa_offset 8
 213              		.cfi_offset 3, -8
 214              		.cfi_offset 14, -4
  56:Lora/lora.c   **** 
  57:Lora/lora.c   ****     HAL_UART_Transmit(LORA_TX_PORT, Lora_data_powerdown, sizeof(Lora_data_powerdown), HAL_MAX_DELAY
 215              		.loc 1 57 5 view .LVU66
 216 0002 4FF0FF33 		mov	r3, #-1
 217 0006 0D22     		movs	r2, #13
 218 0008 0249     		ldr	r1, .L11
 219 000a 0348     		ldr	r0, .L11+4
 220 000c FFF7FEFF 		bl	HAL_UART_Transmit
 221              	.LVL1:
  58:Lora/lora.c   **** }
 222              		.loc 1 58 1 is_stmt 0 view .LVU67
 223 0010 08BD     		pop	{r3, pc}
 224              	.L12:
 225 0012 00BF     		.align	2
 226              	.L11:
 227 0014 00000000 		.word	Lora_data_powerdown
 228 0018 00000000 		.word	huart3
 229              		.cfi_endproc
 230              	.LFE162:
 232              		.section	.rodata.Lora_sendData.str1.4,"aMS",%progbits,1
 233              		.align	2
ARM GAS  C:\usertemp\ccvFf8vk.s 			page 6


 234              	.LC0:
 235 0000 25303258 		.ascii	"%02X\000"
 235      00
 236 0005 000000   		.align	2
 237              	.LC1:
 238 0008 61742B6D 		.ascii	"at+msghex=\"%s\"\015\012\012\000"
 238      73676865 
 238      783D2225 
 238      73220D0A 
 238      0A00
 239              		.section	.text.Lora_sendData,"ax",%progbits
 240              		.align	1
 241              		.global	Lora_sendData
 242              		.syntax unified
 243              		.thumb
 244              		.thumb_func
 246              	Lora_sendData:
 247              	.LVL2:
 248              	.LFB163:
  59:Lora/lora.c   **** void Lora_sendData(float max, float min, float avg)
  60:Lora/lora.c   **** {
 249              		.loc 1 60 1 is_stmt 1 view -0
 250              		.cfi_startproc
 251              		@ args = 0, pretend = 0, frame = 104
 252              		@ frame_needed = 0, uses_anonymous_args = 0
 253              		.loc 1 60 1 is_stmt 0 view .LVU69
 254 0000 F0B5     		push	{r4, r5, r6, r7, lr}
 255              	.LCFI3:
 256              		.cfi_def_cfa_offset 20
 257              		.cfi_offset 4, -20
 258              		.cfi_offset 5, -16
 259              		.cfi_offset 6, -12
 260              		.cfi_offset 7, -8
 261              		.cfi_offset 14, -4
 262 0002 2DED048B 		vpush.64	{d8, d9}
 263              	.LCFI4:
 264              		.cfi_def_cfa_offset 36
 265              		.cfi_offset 80, -36
 266              		.cfi_offset 81, -32
 267              		.cfi_offset 82, -28
 268              		.cfi_offset 83, -24
 269 0006 9BB0     		sub	sp, sp, #108
 270              	.LCFI5:
 271              		.cfi_def_cfa_offset 144
 272 0008 B0EE609A 		vmov.f32	s18, s1
 273 000c F0EE418A 		vmov.f32	s17, s2
  61:Lora/lora.c   ****     uint8_t buffer[64];
 274              		.loc 1 61 5 is_stmt 1 view .LVU70
  62:Lora/lora.c   ****     uint8_t hex_str[32];
 275              		.loc 1 62 5 view .LVU71
  63:Lora/lora.c   ****     uint8_t *p = hex_str;
 276              		.loc 1 63 5 view .LVU72
 277              	.LVL3:
  64:Lora/lora.c   **** 
  65:Lora/lora.c   ****     /* 1. ×10 并向上取整 */
  66:Lora/lora.c   ****     int16_t vals[3] = {
 278              		.loc 1 66 5 view .LVU73
ARM GAS  C:\usertemp\ccvFf8vk.s 			page 7


  67:Lora/lora.c   ****         (int16_t)ceilf(max * 10.0f),
 279              		.loc 1 67 18 is_stmt 0 view .LVU74
 280 0010 B2EE048A 		vmov.f32	s16, #1.0e+1
 281 0014 20EE080A 		vmul.f32	s0, s0, s16
 282              	.LVL4:
 283              		.loc 1 67 18 view .LVU75
 284 0018 FFF7FEFF 		bl	ceilf
 285              	.LVL5:
 286              		.loc 1 67 9 discriminator 1 view .LVU76
 287 001c BDEEC00A 		vcvt.s32.f32	s0, s0
  66:Lora/lora.c   ****         (int16_t)ceilf(max * 10.0f),
 288              		.loc 1 66 13 view .LVU77
 289 0020 10EE103A 		vmov	r3, s0	@ int
 290 0024 ADF80030 		strh	r3, [sp]	@ movhi
  68:Lora/lora.c   ****         (int16_t)ceilf(min * 10.0f),
 291              		.loc 1 68 18 view .LVU78
 292 0028 29EE080A 		vmul.f32	s0, s18, s16
 293 002c FFF7FEFF 		bl	ceilf
 294              	.LVL6:
 295              		.loc 1 68 9 discriminator 1 view .LVU79
 296 0030 BDEEC00A 		vcvt.s32.f32	s0, s0
  66:Lora/lora.c   ****         (int16_t)ceilf(max * 10.0f),
 297              		.loc 1 66 13 view .LVU80
 298 0034 10EE103A 		vmov	r3, s0	@ int
 299 0038 ADF80230 		strh	r3, [sp, #2]	@ movhi
  69:Lora/lora.c   ****         (int16_t)ceilf(avg * 10.0f)};
 300              		.loc 1 69 18 view .LVU81
 301 003c 28EE880A 		vmul.f32	s0, s17, s16
 302 0040 FFF7FEFF 		bl	ceilf
 303              	.LVL7:
 304              		.loc 1 69 9 discriminator 1 view .LVU82
 305 0044 BDEEC00A 		vcvt.s32.f32	s0, s0
  66:Lora/lora.c   ****         (int16_t)ceilf(max * 10.0f),
 306              		.loc 1 66 13 view .LVU83
 307 0048 10EE103A 		vmov	r3, s0	@ int
 308 004c ADF80430 		strh	r3, [sp, #4]	@ movhi
  70:Lora/lora.c   **** 
  71:Lora/lora.c   ****     /* 2. 每个 int16 按小端转 4 个 HEX 字符 */
  72:Lora/lora.c   ****     for (int i = 0; i < 3; ++i)
 309              		.loc 1 72 5 is_stmt 1 view .LVU84
 310              	.LBB2:
 311              		.loc 1 72 10 view .LVU85
 312              	.LVL8:
 313              		.loc 1 72 14 is_stmt 0 view .LVU86
 314 0050 0027     		movs	r7, #0
 315              	.LBE2:
  63:Lora/lora.c   **** 
 316              		.loc 1 63 14 view .LVU87
 317 0052 02AD     		add	r5, sp, #8
 318              	.LVL9:
 319              	.LBB7:
 320              		.loc 1 72 5 view .LVU88
 321 0054 09E0     		b	.L14
 322              	.LVL10:
 323              	.L16:
 324              	.LBB3:
 325              	.LBB4:
ARM GAS  C:\usertemp\ccvFf8vk.s 			page 8


  73:Lora/lora.c   ****     {
  74:Lora/lora.c   ****         uint8_t *pb = (uint8_t *)&vals[i];
  75:Lora/lora.c   ****         for (int j = 0; j < 2; ++j)
  76:Lora/lora.c   ****         { // int16 只有 2 字节
  77:Lora/lora.c   ****             sprintf((char *)p, "%02X", pb[j]);
 326              		.loc 1 77 13 is_stmt 1 view .LVU89
 327 0056 325D     		ldrb	r2, [r6, r4]	@ zero_extendqisi2
 328 0058 1249     		ldr	r1, .L20
 329 005a 2846     		mov	r0, r5
 330 005c FFF7FEFF 		bl	sprintf
 331              	.LVL11:
  78:Lora/lora.c   ****             p += 2;
 332              		.loc 1 78 13 view .LVU90
 333              		.loc 1 78 15 is_stmt 0 view .LVU91
 334 0060 0235     		adds	r5, r5, #2
 335              	.LVL12:
  75:Lora/lora.c   ****         { // int16 只有 2 字节
 336              		.loc 1 75 32 is_stmt 1 discriminator 3 view .LVU92
 337 0062 0134     		adds	r4, r4, #1
 338              	.LVL13:
 339              	.L15:
  75:Lora/lora.c   ****         { // int16 只有 2 字节
 340              		.loc 1 75 27 discriminator 1 view .LVU93
 341 0064 012C     		cmp	r4, #1
 342 0066 F6DD     		ble	.L16
  75:Lora/lora.c   ****         { // int16 只有 2 字节
 343              		.loc 1 75 27 is_stmt 0 discriminator 1 view .LVU94
 344              	.LBE4:
 345              	.LBE3:
  72:Lora/lora.c   ****     {
 346              		.loc 1 72 28 is_stmt 1 discriminator 2 view .LVU95
 347 0068 0137     		adds	r7, r7, #1
 348              	.LVL14:
 349              	.L14:
  72:Lora/lora.c   ****     {
 350              		.loc 1 72 23 discriminator 1 view .LVU96
 351 006a 022F     		cmp	r7, #2
 352 006c 03DC     		bgt	.L19
 353              	.LBB6:
  74:Lora/lora.c   ****         for (int j = 0; j < 2; ++j)
 354              		.loc 1 74 9 view .LVU97
  74:Lora/lora.c   ****         for (int j = 0; j < 2; ++j)
 355              		.loc 1 74 18 is_stmt 0 view .LVU98
 356 006e 0DEB4706 		add	r6, sp, r7, lsl #1
 357              	.LVL15:
  75:Lora/lora.c   ****         { // int16 只有 2 字节
 358              		.loc 1 75 9 is_stmt 1 view .LVU99
 359              	.LBB5:
  75:Lora/lora.c   ****         { // int16 只有 2 字节
 360              		.loc 1 75 14 view .LVU100
  75:Lora/lora.c   ****         { // int16 只有 2 字节
 361              		.loc 1 75 18 is_stmt 0 view .LVU101
 362 0072 0024     		movs	r4, #0
  75:Lora/lora.c   ****         { // int16 只有 2 字节
 363              		.loc 1 75 9 view .LVU102
 364 0074 F6E7     		b	.L15
 365              	.LVL16:
ARM GAS  C:\usertemp\ccvFf8vk.s 			page 9


 366              	.L19:
  75:Lora/lora.c   ****         { // int16 只有 2 字节
 367              		.loc 1 75 9 view .LVU103
 368              	.LBE5:
 369              	.LBE6:
 370              	.LBE7:
  79:Lora/lora.c   ****         }
  80:Lora/lora.c   ****     }
  81:Lora/lora.c   ****     *p = '\0';
 371              		.loc 1 81 5 is_stmt 1 view .LVU104
 372              		.loc 1 81 8 is_stmt 0 view .LVU105
 373 0076 0023     		movs	r3, #0
 374 0078 2B70     		strb	r3, [r5]
  82:Lora/lora.c   **** 
  83:Lora/lora.c   ****     /* 3. 组包发送 */
  84:Lora/lora.c   ****     snprintf((char *)buffer, sizeof(buffer), "at+msghex=\"%s\"\r\n\n", hex_str);
 375              		.loc 1 84 5 is_stmt 1 view .LVU106
 376 007a 02AB     		add	r3, sp, #8
 377 007c 0A4A     		ldr	r2, .L20+4
 378 007e 4021     		movs	r1, #64
 379 0080 0AA8     		add	r0, sp, #40
 380 0082 FFF7FEFF 		bl	snprintf
 381              	.LVL17:
  85:Lora/lora.c   ****     HAL_UART_Transmit(LORA_TX_PORT, buffer, strlen((char *)buffer), HAL_MAX_DELAY);
 382              		.loc 1 85 5 view .LVU107
 383              		.loc 1 85 45 is_stmt 0 view .LVU108
 384 0086 0AA8     		add	r0, sp, #40
 385 0088 FFF7FEFF 		bl	strlen
 386              	.LVL18:
 387              		.loc 1 85 5 discriminator 1 view .LVU109
 388 008c 4FF0FF33 		mov	r3, #-1
 389 0090 82B2     		uxth	r2, r0
 390 0092 0AA9     		add	r1, sp, #40
 391 0094 0548     		ldr	r0, .L20+8
 392 0096 FFF7FEFF 		bl	HAL_UART_Transmit
 393              	.LVL19:
  86:Lora/lora.c   **** }...
 394              		.loc 1 86 1 view .LVU110
 395 009a 1BB0     		add	sp, sp, #108
 396              	.LCFI6:
 397              		.cfi_def_cfa_offset 36
 398              		@ sp needed
 399 009c BDEC048B 		vldm	sp!, {d8-d9}
 400              	.LCFI7:
 401              		.cfi_restore 82
 402              		.cfi_restore 83
 403              		.cfi_restore 80
 404              		.cfi_restore 81
 405              		.cfi_def_cfa_offset 20
 406              	.LVL20:
 407              		.loc 1 86 1 view .LVU111
 408 00a0 F0BD     		pop	{r4, r5, r6, r7, pc}
 409              	.LVL21:
 410              	.L21:
 411              		.loc 1 86 1 view .LVU112
 412 00a2 00BF     		.align	2
 413              	.L20:
ARM GAS  C:\usertemp\ccvFf8vk.s 			page 10


 414 00a4 00000000 		.word	.LC0
 415 00a8 08000000 		.word	.LC1
 416 00ac 00000000 		.word	huart3
 417              		.cfi_endproc
 418              	.LFE163:
 420              		.global	Lora_data_powerdown
 421              		.section	.bss.Lora_data_powerdown,"aw",%nobits
 422              		.align	2
 425              	Lora_data_powerdown:
 426 0000 00000000 		.space	13
 426      00000000 
 426      00000000 
 426      00
 427              		.global	Lora_data_msg
 428              		.section	.bss.Lora_data_msg,"aw",%nobits
 429              		.align	2
 432              	Lora_data_msg:
 433 0000 00000000 		.space	40
 433      00000000 
 433      00000000 
 433      00000000 
 433      00000000 
 434              		.global	Lora_data_at
 435              		.section	.bss.Lora_data_at,"aw",%nobits
 436              		.align	2
 439              	Lora_data_at:
 440 0000 00000000 		.space	5
 440      00
 441              		.text
 442              	.Letext0:
 443              		.file 2 "D:/armtoolchain/arm-gnu-toolchain-13.3.rel1-mingw-w64-i686-arm-none-eabi/arm-none-eabi/in
 444              		.file 3 "D:/armtoolchain/arm-gnu-toolchain-13.3.rel1-mingw-w64-i686-arm-none-eabi/arm-none-eabi/in
 445              		.file 4 "Drivers/CMSIS/Device/ST/STM32U5xx/Include/stm32u575xx.h"
 446              		.file 5 "D:/armtoolchain/arm-gnu-toolchain-13.3.rel1-mingw-w64-i686-arm-none-eabi/lib/gcc/arm-none
 447              		.file 6 "Drivers/STM32U5xx_HAL_Driver/Inc/stm32u5xx_hal_def.h"
 448              		.file 7 "Drivers/STM32U5xx_HAL_Driver/Inc/stm32u5xx_hal_dma.h"
 449              		.file 8 "Drivers/STM32U5xx_HAL_Driver/Inc/stm32u5xx_hal_dma_ex.h"
 450              		.file 9 "Drivers/STM32U5xx_HAL_Driver/Inc/stm32u5xx_hal_uart.h"
 451              		.file 10 "Core/Inc/usart.h"
 452              		.file 11 "D:/armtoolchain/arm-gnu-toolchain-13.3.rel1-mingw-w64-i686-arm-none-eabi/arm-none-eabi/i
 453              		.file 12 "D:/armtoolchain/arm-gnu-toolchain-13.3.rel1-mingw-w64-i686-arm-none-eabi/arm-none-eabi/i
 454              		.file 13 "D:/armtoolchain/arm-gnu-toolchain-13.3.rel1-mingw-w64-i686-arm-none-eabi/arm-none-eabi/i
ARM GAS  C:\usertemp\ccvFf8vk.s 			page 11

