ARM GAS  C:\usertemp\cchsqz8b.s 			page 1


   1              		.cpu cortex-m33
   2              		.arch armv8-m.main
   3              		.fpu fpv4-sp-d16
   4              		.arch_extension dsp
   5              		.eabi_attribute 27, 1
   6              		.eabi_attribute 28, 1
   7              		.eabi_attribute 20, 1
   8              		.eabi_attribute 21, 1
   9              		.eabi_attribute 23, 3
  10              		.eabi_attribute 24, 1
  11              		.eabi_attribute 25, 1
  12              		.eabi_attribute 26, 1
  13              		.eabi_attribute 30, 1
  14              		.eabi_attribute 34, 1
  15              		.eabi_attribute 18, 4
  16              		.file	"st7789.c"
  17              		.text
  18              	.Ltext0:
  19              		.cfi_sections	.debug_frame
  20              		.file 1 "LCD/st7789.c"
  21              		.section	.text.ST7789_WriteCommand,"ax",%progbits
  22              		.align	1
  23              		.syntax unified
  24              		.thumb
  25              		.thumb_func
  27              	ST7789_WriteCommand:
  28              	.LVL0:
  29              	.LFB157:
   1:LCD/st7789.c  **** #include "st7789.h"
   2:LCD/st7789.c  **** 
   3:LCD/st7789.c  **** #ifdef USE_DMA
   4:LCD/st7789.c  **** #include <string.h>
   5:LCD/st7789.c  **** uint16_t DMA_MIN_SIZE = 16;
   6:LCD/st7789.c  **** /* If you're using DMA, then u need a "framebuffer" to store datas to be displayed.
   7:LCD/st7789.c  ****  * If your MCU don't have enough RAM, please avoid using DMA(or set 5 to 1).
   8:LCD/st7789.c  ****  * And if your MCU have enough RAM(even larger than full-frame size),
   9:LCD/st7789.c  ****  * Then you can specify the framebuffer size to the full resolution below.
  10:LCD/st7789.c  ****  */
  11:LCD/st7789.c  ****  #define HOR_LEN 	5	//	Also mind the resolution of your screen!
  12:LCD/st7789.c  **** uint16_t disp_buf[ST7789_WIDTH * HOR_LEN];
  13:LCD/st7789.c  **** #endif
  14:LCD/st7789.c  **** 
  15:LCD/st7789.c  **** /**
  16:LCD/st7789.c  ****  * @brief Write command to ST7789 controller
  17:LCD/st7789.c  ****  * @param cmd -> command to write
  18:LCD/st7789.c  ****  * @return none
  19:LCD/st7789.c  ****  */
  20:LCD/st7789.c  **** static void ST7789_WriteCommand(uint8_t cmd)
  21:LCD/st7789.c  **** {
  30              		.loc 1 21 1 view -0
  31              		.cfi_startproc
  32              		@ args = 0, pretend = 0, frame = 8
  33              		@ frame_needed = 0, uses_anonymous_args = 0
  34              		.loc 1 21 1 is_stmt 0 view .LVU1
  35 0000 10B5     		push	{r4, lr}
  36              	.LCFI0:
  37              		.cfi_def_cfa_offset 8
ARM GAS  C:\usertemp\cchsqz8b.s 			page 2


  38              		.cfi_offset 4, -8
  39              		.cfi_offset 14, -4
  40 0002 82B0     		sub	sp, sp, #8
  41              	.LCFI1:
  42              		.cfi_def_cfa_offset 16
  43 0004 8DF80700 		strb	r0, [sp, #7]
  22:LCD/st7789.c  **** 	ST7789_Select();
  44              		.loc 1 22 2 is_stmt 1 view .LVU2
  45 0008 0E4C     		ldr	r4, .L3
  46 000a 0022     		movs	r2, #0
  47 000c 4FF48061 		mov	r1, #1024
  48 0010 2046     		mov	r0, r4
  49              	.LVL1:
  50              		.loc 1 22 2 is_stmt 0 view .LVU3
  51 0012 FFF7FEFF 		bl	HAL_GPIO_WritePin
  52              	.LVL2:
  23:LCD/st7789.c  **** 	ST7789_DC_Clr();
  53              		.loc 1 23 2 is_stmt 1 view .LVU4
  54 0016 0022     		movs	r2, #0
  55 0018 4FF40061 		mov	r1, #2048
  56 001c 2046     		mov	r0, r4
  57 001e FFF7FEFF 		bl	HAL_GPIO_WritePin
  58              	.LVL3:
  24:LCD/st7789.c  **** 	HAL_SPI_Transmit(&ST7789_SPI_PORT, &cmd, sizeof(cmd), HAL_MAX_DELAY);
  59              		.loc 1 24 2 view .LVU5
  60 0022 4FF0FF33 		mov	r3, #-1
  61 0026 0122     		movs	r2, #1
  62 0028 0DF10701 		add	r1, sp, #7
  63 002c 0648     		ldr	r0, .L3+4
  64 002e FFF7FEFF 		bl	HAL_SPI_Transmit
  65              	.LVL4:
  25:LCD/st7789.c  **** 	ST7789_UnSelect();
  66              		.loc 1 25 2 view .LVU6
  67 0032 0122     		movs	r2, #1
  68 0034 4FF48061 		mov	r1, #1024
  69 0038 2046     		mov	r0, r4
  70 003a FFF7FEFF 		bl	HAL_GPIO_WritePin
  71              	.LVL5:
  26:LCD/st7789.c  **** }
  72              		.loc 1 26 1 is_stmt 0 view .LVU7
  73 003e 02B0     		add	sp, sp, #8
  74              	.LCFI2:
  75              		.cfi_def_cfa_offset 8
  76              		@ sp needed
  77 0040 10BD     		pop	{r4, pc}
  78              	.L4:
  79 0042 00BF     		.align	2
  80              	.L3:
  81 0044 000C0242 		.word	1107430400
  82 0048 00000000 		.word	hspi1
  83              		.cfi_endproc
  84              	.LFE157:
  86              		.section	.text.ST7789_WriteSmallData,"ax",%progbits
  87              		.align	1
  88              		.syntax unified
  89              		.thumb
  90              		.thumb_func
ARM GAS  C:\usertemp\cchsqz8b.s 			page 3


  92              	ST7789_WriteSmallData:
  93              	.LVL6:
  94              	.LFB159:
  27:LCD/st7789.c  **** 
  28:LCD/st7789.c  **** /**
  29:LCD/st7789.c  ****  * @brief Write data to ST7789 controller
  30:LCD/st7789.c  ****  * @param buff -> pointer of data buffer
  31:LCD/st7789.c  ****  * @param buff_size -> size of the data buffer
  32:LCD/st7789.c  ****  * @return none
  33:LCD/st7789.c  ****  */
  34:LCD/st7789.c  **** static void ST7789_WriteData(uint8_t *buff, size_t buff_size)
  35:LCD/st7789.c  **** {
  36:LCD/st7789.c  **** 	ST7789_Select();
  37:LCD/st7789.c  **** 	ST7789_DC_Set();
  38:LCD/st7789.c  **** 
  39:LCD/st7789.c  **** 	// split data in small chunks because HAL can't send more than 64K at once
  40:LCD/st7789.c  **** 
  41:LCD/st7789.c  **** 	while (buff_size > 0) {
  42:LCD/st7789.c  **** 		uint16_t chunk_size = buff_size > 65535 ? 65535 : buff_size;
  43:LCD/st7789.c  **** 		#ifdef USE_DMA
  44:LCD/st7789.c  **** 			if (DMA_MIN_SIZE <= buff_size)
  45:LCD/st7789.c  **** 			{
  46:LCD/st7789.c  **** 				HAL_SPI_Transmit_DMA(&ST7789_SPI_PORT, buff, chunk_size);
  47:LCD/st7789.c  **** 				while (ST7789_SPI_PORT.hdmatx->State != HAL_DMA_STATE_READY)
  48:LCD/st7789.c  **** 				{}
  49:LCD/st7789.c  **** 			}
  50:LCD/st7789.c  **** 			else
  51:LCD/st7789.c  **** 				HAL_SPI_Transmit(&ST7789_SPI_PORT, buff, chunk_size, HAL_MAX_DELAY);
  52:LCD/st7789.c  **** 		#else
  53:LCD/st7789.c  **** 			HAL_SPI_Transmit(&ST7789_SPI_PORT, buff, chunk_size, HAL_MAX_DELAY);
  54:LCD/st7789.c  **** 		#endif
  55:LCD/st7789.c  **** 		buff += chunk_size;
  56:LCD/st7789.c  **** 		buff_size -= chunk_size;
  57:LCD/st7789.c  **** 	}
  58:LCD/st7789.c  **** 
  59:LCD/st7789.c  **** 	ST7789_UnSelect();
  60:LCD/st7789.c  **** }
  61:LCD/st7789.c  **** /**
  62:LCD/st7789.c  ****  * @brief Write data to ST7789 controller, simplify for 8bit data.
  63:LCD/st7789.c  ****  * data -> data to write
  64:LCD/st7789.c  ****  * @return none
  65:LCD/st7789.c  ****  */
  66:LCD/st7789.c  **** static void ST7789_WriteSmallData(uint8_t data)
  67:LCD/st7789.c  **** {
  95              		.loc 1 67 1 is_stmt 1 view -0
  96              		.cfi_startproc
  97              		@ args = 0, pretend = 0, frame = 8
  98              		@ frame_needed = 0, uses_anonymous_args = 0
  99              		.loc 1 67 1 is_stmt 0 view .LVU9
 100 0000 10B5     		push	{r4, lr}
 101              	.LCFI3:
 102              		.cfi_def_cfa_offset 8
 103              		.cfi_offset 4, -8
 104              		.cfi_offset 14, -4
 105 0002 82B0     		sub	sp, sp, #8
 106              	.LCFI4:
 107              		.cfi_def_cfa_offset 16
ARM GAS  C:\usertemp\cchsqz8b.s 			page 4


 108 0004 8DF80700 		strb	r0, [sp, #7]
  68:LCD/st7789.c  **** 	ST7789_Select();
 109              		.loc 1 68 2 is_stmt 1 view .LVU10
 110 0008 0E4C     		ldr	r4, .L7
 111 000a 0022     		movs	r2, #0
 112 000c 4FF48061 		mov	r1, #1024
 113 0010 2046     		mov	r0, r4
 114              	.LVL7:
 115              		.loc 1 68 2 is_stmt 0 view .LVU11
 116 0012 FFF7FEFF 		bl	HAL_GPIO_WritePin
 117              	.LVL8:
  69:LCD/st7789.c  **** 	ST7789_DC_Set();
 118              		.loc 1 69 2 is_stmt 1 view .LVU12
 119 0016 0122     		movs	r2, #1
 120 0018 4FF40061 		mov	r1, #2048
 121 001c 2046     		mov	r0, r4
 122 001e FFF7FEFF 		bl	HAL_GPIO_WritePin
 123              	.LVL9:
  70:LCD/st7789.c  **** 	HAL_SPI_Transmit(&ST7789_SPI_PORT, &data, sizeof(data), HAL_MAX_DELAY);
 124              		.loc 1 70 2 view .LVU13
 125 0022 4FF0FF33 		mov	r3, #-1
 126 0026 0122     		movs	r2, #1
 127 0028 0DF10701 		add	r1, sp, #7
 128 002c 0648     		ldr	r0, .L7+4
 129 002e FFF7FEFF 		bl	HAL_SPI_Transmit
 130              	.LVL10:
  71:LCD/st7789.c  **** 	ST7789_UnSelect();
 131              		.loc 1 71 2 view .LVU14
 132 0032 0122     		movs	r2, #1
 133 0034 4FF48061 		mov	r1, #1024
 134 0038 2046     		mov	r0, r4
 135 003a FFF7FEFF 		bl	HAL_GPIO_WritePin
 136              	.LVL11:
  72:LCD/st7789.c  **** }
 137              		.loc 1 72 1 is_stmt 0 view .LVU15
 138 003e 02B0     		add	sp, sp, #8
 139              	.LCFI5:
 140              		.cfi_def_cfa_offset 8
 141              		@ sp needed
 142 0040 10BD     		pop	{r4, pc}
 143              	.L8:
 144 0042 00BF     		.align	2
 145              	.L7:
 146 0044 000C0242 		.word	1107430400
 147 0048 00000000 		.word	hspi1
 148              		.cfi_endproc
 149              	.LFE159:
 151              		.section	.text.ST7789_WriteData,"ax",%progbits
 152              		.align	1
 153              		.syntax unified
 154              		.thumb
 155              		.thumb_func
 157              	ST7789_WriteData:
 158              	.LVL12:
 159              	.LFB158:
  35:LCD/st7789.c  **** 	ST7789_Select();
 160              		.loc 1 35 1 is_stmt 1 view -0
ARM GAS  C:\usertemp\cchsqz8b.s 			page 5


 161              		.cfi_startproc
 162              		@ args = 0, pretend = 0, frame = 0
 163              		@ frame_needed = 0, uses_anonymous_args = 0
  35:LCD/st7789.c  **** 	ST7789_Select();
 164              		.loc 1 35 1 is_stmt 0 view .LVU17
 165 0000 70B5     		push	{r4, r5, r6, lr}
 166              	.LCFI6:
 167              		.cfi_def_cfa_offset 16
 168              		.cfi_offset 4, -16
 169              		.cfi_offset 5, -12
 170              		.cfi_offset 6, -8
 171              		.cfi_offset 14, -4
 172 0002 0646     		mov	r6, r0
 173 0004 0D46     		mov	r5, r1
  36:LCD/st7789.c  **** 	ST7789_DC_Set();
 174              		.loc 1 36 2 is_stmt 1 view .LVU18
 175 0006 134C     		ldr	r4, .L13
 176 0008 0022     		movs	r2, #0
 177 000a 4FF48061 		mov	r1, #1024
 178              	.LVL13:
  36:LCD/st7789.c  **** 	ST7789_DC_Set();
 179              		.loc 1 36 2 is_stmt 0 view .LVU19
 180 000e 2046     		mov	r0, r4
 181              	.LVL14:
  36:LCD/st7789.c  **** 	ST7789_DC_Set();
 182              		.loc 1 36 2 view .LVU20
 183 0010 FFF7FEFF 		bl	HAL_GPIO_WritePin
 184              	.LVL15:
  37:LCD/st7789.c  **** 
 185              		.loc 1 37 2 is_stmt 1 view .LVU21
 186 0014 0122     		movs	r2, #1
 187 0016 4FF40061 		mov	r1, #2048
 188 001a 2046     		mov	r0, r4
 189 001c FFF7FEFF 		bl	HAL_GPIO_WritePin
 190              	.LVL16:
  41:LCD/st7789.c  **** 		uint16_t chunk_size = buff_size > 65535 ? 65535 : buff_size;
 191              		.loc 1 41 2 view .LVU22
  41:LCD/st7789.c  **** 		uint16_t chunk_size = buff_size > 65535 ? 65535 : buff_size;
 192              		.loc 1 41 8 is_stmt 0 view .LVU23
 193 0020 0EE0     		b	.L10
 194              	.L11:
 195              	.LBB2:
  42:LCD/st7789.c  **** 		#ifdef USE_DMA
 196              		.loc 1 42 3 is_stmt 1 view .LVU24
  42:LCD/st7789.c  **** 		#ifdef USE_DMA
 197              		.loc 1 42 51 is_stmt 0 view .LVU25
 198 0022 4FF6FF74 		movw	r4, #65535
 199 0026 AC42     		cmp	r4, r5
 200 0028 28BF     		it	cs
 201 002a 2C46     		movcs	r4, r5
  42:LCD/st7789.c  **** 		#ifdef USE_DMA
 202              		.loc 1 42 12 view .LVU26
 203 002c A4B2     		uxth	r4, r4
 204              	.LVL17:
  53:LCD/st7789.c  **** 		#endif
 205              		.loc 1 53 4 is_stmt 1 view .LVU27
 206 002e 4FF0FF33 		mov	r3, #-1
ARM GAS  C:\usertemp\cchsqz8b.s 			page 6


 207 0032 2246     		mov	r2, r4
 208 0034 3146     		mov	r1, r6
 209 0036 0848     		ldr	r0, .L13+4
 210 0038 FFF7FEFF 		bl	HAL_SPI_Transmit
 211              	.LVL18:
  55:LCD/st7789.c  **** 		buff_size -= chunk_size;
 212              		.loc 1 55 3 view .LVU28
  55:LCD/st7789.c  **** 		buff_size -= chunk_size;
 213              		.loc 1 55 8 is_stmt 0 view .LVU29
 214 003c 2644     		add	r6, r6, r4
 215              	.LVL19:
  56:LCD/st7789.c  **** 	}
 216              		.loc 1 56 3 is_stmt 1 view .LVU30
  56:LCD/st7789.c  **** 	}
 217              		.loc 1 56 13 is_stmt 0 view .LVU31
 218 003e 2D1B     		subs	r5, r5, r4
 219              	.LVL20:
 220              	.L10:
  56:LCD/st7789.c  **** 	}
 221              		.loc 1 56 13 view .LVU32
 222              	.LBE2:
  41:LCD/st7789.c  **** 		uint16_t chunk_size = buff_size > 65535 ? 65535 : buff_size;
 223              		.loc 1 41 19 is_stmt 1 view .LVU33
 224 0040 002D     		cmp	r5, #0
 225 0042 EED1     		bne	.L11
  59:LCD/st7789.c  **** }
 226              		.loc 1 59 2 view .LVU34
 227 0044 0122     		movs	r2, #1
 228 0046 4FF48061 		mov	r1, #1024
 229 004a 0248     		ldr	r0, .L13
 230 004c FFF7FEFF 		bl	HAL_GPIO_WritePin
 231              	.LVL21:
  60:LCD/st7789.c  **** /**
 232              		.loc 1 60 1 is_stmt 0 view .LVU35
 233 0050 70BD     		pop	{r4, r5, r6, pc}
 234              	.LVL22:
 235              	.L14:
  60:LCD/st7789.c  **** /**
 236              		.loc 1 60 1 view .LVU36
 237 0052 00BF     		.align	2
 238              	.L13:
 239 0054 000C0242 		.word	1107430400
 240 0058 00000000 		.word	hspi1
 241              		.cfi_endproc
 242              	.LFE158:
 244              		.section	.text.ST7789_SetAddressWindow,"ax",%progbits
 245              		.align	1
 246              		.syntax unified
 247              		.thumb
 248              		.thumb_func
 250              	ST7789_SetAddressWindow:
 251              	.LVL23:
 252              	.LFB161:
  73:LCD/st7789.c  **** 
  74:LCD/st7789.c  **** /**
  75:LCD/st7789.c  ****  * @brief Set the rotation direction of the display
  76:LCD/st7789.c  ****  * @param m -> rotation parameter(please refer it in st7789.h)
ARM GAS  C:\usertemp\cchsqz8b.s 			page 7


  77:LCD/st7789.c  ****  * @return none
  78:LCD/st7789.c  ****  */
  79:LCD/st7789.c  **** void ST7789_SetRotation(uint8_t m)
  80:LCD/st7789.c  **** {
  81:LCD/st7789.c  **** 	ST7789_WriteCommand(ST7789_MADCTL);	// MADCTL
  82:LCD/st7789.c  **** 	switch (m) {
  83:LCD/st7789.c  **** 	case 0:
  84:LCD/st7789.c  **** 		ST7789_WriteSmallData(ST7789_MADCTL_MX | ST7789_MADCTL_MY | ST7789_MADCTL_RGB);
  85:LCD/st7789.c  **** 		break;
  86:LCD/st7789.c  **** 	case 1:
  87:LCD/st7789.c  **** 		ST7789_WriteSmallData(ST7789_MADCTL_MY | ST7789_MADCTL_MV | ST7789_MADCTL_RGB);
  88:LCD/st7789.c  **** 		break;
  89:LCD/st7789.c  **** 	case 2:
  90:LCD/st7789.c  **** 		ST7789_WriteSmallData(ST7789_MADCTL_RGB);
  91:LCD/st7789.c  **** 		break;
  92:LCD/st7789.c  **** 	case 3:
  93:LCD/st7789.c  **** 		ST7789_WriteSmallData(ST7789_MADCTL_MX | ST7789_MADCTL_MV | ST7789_MADCTL_RGB);
  94:LCD/st7789.c  **** 		break;
  95:LCD/st7789.c  **** 	default:
  96:LCD/st7789.c  **** 		break;
  97:LCD/st7789.c  **** 	}
  98:LCD/st7789.c  **** }
  99:LCD/st7789.c  **** 
 100:LCD/st7789.c  **** /**
 101:LCD/st7789.c  ****  * @brief Set address of DisplayWindow
 102:LCD/st7789.c  ****  * @param xi&yi -> coordinates of window
 103:LCD/st7789.c  ****  * @return none
 104:LCD/st7789.c  ****  */
 105:LCD/st7789.c  **** static void ST7789_SetAddressWindow(uint16_t x0, uint16_t y0, uint16_t x1, uint16_t y1)
 106:LCD/st7789.c  **** {
 253              		.loc 1 106 1 is_stmt 1 view -0
 254              		.cfi_startproc
 255              		@ args = 0, pretend = 0, frame = 8
 256              		@ frame_needed = 0, uses_anonymous_args = 0
 257              		.loc 1 106 1 is_stmt 0 view .LVU38
 258 0000 2DE9F041 		push	{r4, r5, r6, r7, r8, lr}
 259              	.LCFI7:
 260              		.cfi_def_cfa_offset 24
 261              		.cfi_offset 4, -24
 262              		.cfi_offset 5, -20
 263              		.cfi_offset 6, -16
 264              		.cfi_offset 7, -12
 265              		.cfi_offset 8, -8
 266              		.cfi_offset 14, -4
 267 0004 82B0     		sub	sp, sp, #8
 268              	.LCFI8:
 269              		.cfi_def_cfa_offset 32
 270 0006 0746     		mov	r7, r0
 271 0008 0D46     		mov	r5, r1
 272 000a 1646     		mov	r6, r2
 273 000c 1C46     		mov	r4, r3
 107:LCD/st7789.c  **** 	ST7789_Select();
 274              		.loc 1 107 2 is_stmt 1 view .LVU39
 275 000e DFF87080 		ldr	r8, .L17
 276 0012 0022     		movs	r2, #0
 277              	.LVL24:
 278              		.loc 1 107 2 is_stmt 0 view .LVU40
ARM GAS  C:\usertemp\cchsqz8b.s 			page 8


 279 0014 4FF48061 		mov	r1, #1024
 280              	.LVL25:
 281              		.loc 1 107 2 view .LVU41
 282 0018 4046     		mov	r0, r8
 283              	.LVL26:
 284              		.loc 1 107 2 view .LVU42
 285 001a FFF7FEFF 		bl	HAL_GPIO_WritePin
 286              	.LVL27:
 108:LCD/st7789.c  **** 	uint16_t x_start = x0 + X_SHIFT, x_end = x1 + X_SHIFT;
 287              		.loc 1 108 2 is_stmt 1 view .LVU43
 109:LCD/st7789.c  **** 	uint16_t y_start = y0 + Y_SHIFT, y_end = y1 + Y_SHIFT;
 288              		.loc 1 109 2 view .LVU44
 110:LCD/st7789.c  **** 	
 111:LCD/st7789.c  **** 	/* Column Address set */
 112:LCD/st7789.c  **** 	ST7789_WriteCommand(ST7789_CASET); 
 289              		.loc 1 112 2 view .LVU45
 290 001e 2A20     		movs	r0, #42
 291 0020 FFF7FEFF 		bl	ST7789_WriteCommand
 292              	.LVL28:
 293              	.LBB3:
 113:LCD/st7789.c  **** 	{
 114:LCD/st7789.c  **** 		uint8_t data[] = {x_start >> 8, x_start & 0xFF, x_end >> 8, x_end & 0xFF};
 294              		.loc 1 114 3 view .LVU46
 295              		.loc 1 114 11 is_stmt 0 view .LVU47
 296 0024 3B0A     		lsrs	r3, r7, #8
 297 0026 8DF80430 		strb	r3, [sp, #4]
 298 002a 8DF80570 		strb	r7, [sp, #5]
 299 002e 330A     		lsrs	r3, r6, #8
 300 0030 8DF80630 		strb	r3, [sp, #6]
 301 0034 8DF80760 		strb	r6, [sp, #7]
 115:LCD/st7789.c  **** 		ST7789_WriteData(data, sizeof(data));
 302              		.loc 1 115 3 is_stmt 1 view .LVU48
 303 0038 0421     		movs	r1, #4
 304 003a 0DEB0100 		add	r0, sp, r1
 305 003e FFF7FEFF 		bl	ST7789_WriteData
 306              	.LVL29:
 307              	.LBE3:
 116:LCD/st7789.c  **** 	}
 117:LCD/st7789.c  **** 
 118:LCD/st7789.c  **** 	/* Row Address set */
 119:LCD/st7789.c  **** 	ST7789_WriteCommand(ST7789_RASET);
 308              		.loc 1 119 2 view .LVU49
 309 0042 2B20     		movs	r0, #43
 310 0044 FFF7FEFF 		bl	ST7789_WriteCommand
 311              	.LVL30:
 312              	.LBB4:
 120:LCD/st7789.c  **** 	{
 121:LCD/st7789.c  **** 		uint8_t data[] = {y_start >> 8, y_start & 0xFF, y_end >> 8, y_end & 0xFF};
 313              		.loc 1 121 3 view .LVU50
 314              		.loc 1 121 11 is_stmt 0 view .LVU51
 315 0048 2B0A     		lsrs	r3, r5, #8
 316 004a 8DF80430 		strb	r3, [sp, #4]
 317 004e 8DF80550 		strb	r5, [sp, #5]
 318 0052 230A     		lsrs	r3, r4, #8
 319 0054 8DF80630 		strb	r3, [sp, #6]
 320 0058 8DF80740 		strb	r4, [sp, #7]
 122:LCD/st7789.c  **** 		ST7789_WriteData(data, sizeof(data));
ARM GAS  C:\usertemp\cchsqz8b.s 			page 9


 321              		.loc 1 122 3 is_stmt 1 view .LVU52
 322 005c 0421     		movs	r1, #4
 323 005e 0DEB0100 		add	r0, sp, r1
 324 0062 FFF7FEFF 		bl	ST7789_WriteData
 325              	.LVL31:
 326              	.LBE4:
 123:LCD/st7789.c  **** 	}
 124:LCD/st7789.c  **** 	/* Write to RAM */
 125:LCD/st7789.c  **** 	ST7789_WriteCommand(ST7789_RAMWR);
 327              		.loc 1 125 2 view .LVU53
 328 0066 2C20     		movs	r0, #44
 329 0068 FFF7FEFF 		bl	ST7789_WriteCommand
 330              	.LVL32:
 126:LCD/st7789.c  **** 	ST7789_UnSelect();
 331              		.loc 1 126 2 view .LVU54
 332 006c 0122     		movs	r2, #1
 333 006e 4FF48061 		mov	r1, #1024
 334 0072 4046     		mov	r0, r8
 335 0074 FFF7FEFF 		bl	HAL_GPIO_WritePin
 336              	.LVL33:
 127:LCD/st7789.c  **** }
 337              		.loc 1 127 1 is_stmt 0 view .LVU55
 338 0078 02B0     		add	sp, sp, #8
 339              	.LCFI9:
 340              		.cfi_def_cfa_offset 24
 341              		@ sp needed
 342 007a BDE8F081 		pop	{r4, r5, r6, r7, r8, pc}
 343              	.LVL34:
 344              	.L18:
 345              		.loc 1 127 1 view .LVU56
 346 007e 00BF     		.align	2
 347              	.L17:
 348 0080 000C0242 		.word	1107430400
 349              		.cfi_endproc
 350              	.LFE161:
 352              		.section	.text.ST7789_SetRotation,"ax",%progbits
 353              		.align	1
 354              		.global	ST7789_SetRotation
 355              		.syntax unified
 356              		.thumb
 357              		.thumb_func
 359              	ST7789_SetRotation:
 360              	.LVL35:
 361              	.LFB160:
  80:LCD/st7789.c  **** 	ST7789_WriteCommand(ST7789_MADCTL);	// MADCTL
 362              		.loc 1 80 1 is_stmt 1 view -0
 363              		.cfi_startproc
 364              		@ args = 0, pretend = 0, frame = 0
 365              		@ frame_needed = 0, uses_anonymous_args = 0
  80:LCD/st7789.c  **** 	ST7789_WriteCommand(ST7789_MADCTL);	// MADCTL
 366              		.loc 1 80 1 is_stmt 0 view .LVU58
 367 0000 10B5     		push	{r4, lr}
 368              	.LCFI10:
 369              		.cfi_def_cfa_offset 8
 370              		.cfi_offset 4, -8
 371              		.cfi_offset 14, -4
 372 0002 0446     		mov	r4, r0
ARM GAS  C:\usertemp\cchsqz8b.s 			page 10


  81:LCD/st7789.c  **** 	switch (m) {
 373              		.loc 1 81 2 is_stmt 1 view .LVU59
 374 0004 3620     		movs	r0, #54
 375              	.LVL36:
  81:LCD/st7789.c  **** 	switch (m) {
 376              		.loc 1 81 2 is_stmt 0 view .LVU60
 377 0006 FFF7FEFF 		bl	ST7789_WriteCommand
 378              	.LVL37:
  82:LCD/st7789.c  **** 	case 0:
 379              		.loc 1 82 2 is_stmt 1 view .LVU61
 380 000a 032C     		cmp	r4, #3
 381 000c 06D8     		bhi	.L19
 382 000e DFE804F0 		tbb	[pc, r4]
 383              	.L22:
 384 0012 02       		.byte	(.L25-.L22)/2
 385 0013 06       		.byte	(.L24-.L22)/2
 386 0014 0A       		.byte	(.L23-.L22)/2
 387 0015 0E       		.byte	(.L21-.L22)/2
 388              		.p2align 1
 389              	.L25:
  84:LCD/st7789.c  **** 		break;
 390              		.loc 1 84 3 view .LVU62
 391 0016 C020     		movs	r0, #192
 392 0018 FFF7FEFF 		bl	ST7789_WriteSmallData
 393              	.LVL38:
  85:LCD/st7789.c  **** 	case 1:
 394              		.loc 1 85 3 view .LVU63
 395              	.L19:
  98:LCD/st7789.c  **** 
 396              		.loc 1 98 1 is_stmt 0 view .LVU64
 397 001c 10BD     		pop	{r4, pc}
 398              	.LVL39:
 399              	.L24:
  87:LCD/st7789.c  **** 		break;
 400              		.loc 1 87 3 is_stmt 1 view .LVU65
 401 001e A020     		movs	r0, #160
 402 0020 FFF7FEFF 		bl	ST7789_WriteSmallData
 403              	.LVL40:
  88:LCD/st7789.c  **** 	case 2:
 404              		.loc 1 88 3 view .LVU66
 405 0024 FAE7     		b	.L19
 406              	.L23:
  90:LCD/st7789.c  **** 		break;
 407              		.loc 1 90 3 view .LVU67
 408 0026 0020     		movs	r0, #0
 409 0028 FFF7FEFF 		bl	ST7789_WriteSmallData
 410              	.LVL41:
  91:LCD/st7789.c  **** 	case 3:
 411              		.loc 1 91 3 view .LVU68
 412 002c F6E7     		b	.L19
 413              	.L21:
  93:LCD/st7789.c  **** 		break;
 414              		.loc 1 93 3 view .LVU69
 415 002e 6020     		movs	r0, #96
 416 0030 FFF7FEFF 		bl	ST7789_WriteSmallData
 417              	.LVL42:
  94:LCD/st7789.c  **** 	default:
ARM GAS  C:\usertemp\cchsqz8b.s 			page 11


 418              		.loc 1 94 3 view .LVU70
  98:LCD/st7789.c  **** 
 419              		.loc 1 98 1 is_stmt 0 view .LVU71
 420 0034 F2E7     		b	.L19
 421              		.cfi_endproc
 422              	.LFE160:
 424              		.section	.text.ST7789_Fill_Color,"ax",%progbits
 425              		.align	1
 426              		.global	ST7789_Fill_Color
 427              		.syntax unified
 428              		.thumb
 429              		.thumb_func
 431              	ST7789_Fill_Color:
 432              	.LVL43:
 433              	.LFB163:
 128:LCD/st7789.c  **** 
 129:LCD/st7789.c  **** /**
 130:LCD/st7789.c  ****  * @brief Initialize ST7789 controller
 131:LCD/st7789.c  ****  * @param none
 132:LCD/st7789.c  ****  * @return none
 133:LCD/st7789.c  ****  */
 134:LCD/st7789.c  **** void ST7789_Init(void)
 135:LCD/st7789.c  **** {
 136:LCD/st7789.c  **** 	#ifdef USE_DMA
 137:LCD/st7789.c  **** 		memset(disp_buf, 0, sizeof(disp_buf));
 138:LCD/st7789.c  **** 	#endif
 139:LCD/st7789.c  **** 	HAL_Delay(10);
 140:LCD/st7789.c  ****     ST7789_RST_Clr();
 141:LCD/st7789.c  ****     HAL_Delay(10);
 142:LCD/st7789.c  ****     ST7789_RST_Set();
 143:LCD/st7789.c  ****     HAL_Delay(20);
 144:LCD/st7789.c  **** 
 145:LCD/st7789.c  ****     ST7789_WriteCommand(ST7789_COLMOD);		//	Set color mode
 146:LCD/st7789.c  ****     ST7789_WriteSmallData(ST7789_COLOR_MODE_16bit);
 147:LCD/st7789.c  ****   	ST7789_WriteCommand(0xB2);				//	Porch control
 148:LCD/st7789.c  **** 	{
 149:LCD/st7789.c  **** 		uint8_t data[] = {0x0C, 0x0C, 0x00, 0x33, 0x33};
 150:LCD/st7789.c  **** 		ST7789_WriteData(data, sizeof(data));
 151:LCD/st7789.c  **** 	}
 152:LCD/st7789.c  **** 	ST7789_SetRotation(ST7789_ROTATION);	//	MADCTL (Display Rotation)
 153:LCD/st7789.c  **** 	
 154:LCD/st7789.c  **** 	/* Internal LCD Voltage generator settings */
 155:LCD/st7789.c  ****     ST7789_WriteCommand(0XB7);				//	Gate Control
 156:LCD/st7789.c  ****     ST7789_WriteSmallData(0x35);			//	Default value
 157:LCD/st7789.c  ****     ST7789_WriteCommand(0xBB);				//	VCOM setting
 158:LCD/st7789.c  ****     ST7789_WriteSmallData(0x19);			//	0.725v (default 0.75v for 0x20)
 159:LCD/st7789.c  ****     ST7789_WriteCommand(0xC0);				//	LCMCTRL	
 160:LCD/st7789.c  ****     ST7789_WriteSmallData (0x2C);			//	Default value
 161:LCD/st7789.c  ****     ST7789_WriteCommand (0xC2);				//	VDV and VRH command Enable
 162:LCD/st7789.c  ****     ST7789_WriteSmallData (0x01);			//	Default value
 163:LCD/st7789.c  ****     ST7789_WriteCommand (0xC3);				//	VRH set
 164:LCD/st7789.c  ****     ST7789_WriteSmallData (0x12);			//	+-4.45v (defalut +-4.1v for 0x0B)
 165:LCD/st7789.c  ****     ST7789_WriteCommand (0xC4);				//	VDV set
 166:LCD/st7789.c  ****     ST7789_WriteSmallData (0x20);			//	Default value
 167:LCD/st7789.c  ****     ST7789_WriteCommand (0xC6);				//	Frame rate control in normal mode
 168:LCD/st7789.c  ****     ST7789_WriteSmallData (0x0F);			//	Default value (60HZ)
 169:LCD/st7789.c  ****     ST7789_WriteCommand (0xD0);				//	Power control
ARM GAS  C:\usertemp\cchsqz8b.s 			page 12


 170:LCD/st7789.c  ****     ST7789_WriteSmallData (0xA4);			//	Default value
 171:LCD/st7789.c  ****     ST7789_WriteSmallData (0xA1);			//	Default value
 172:LCD/st7789.c  **** 	/**************** Division line ****************/
 173:LCD/st7789.c  **** 
 174:LCD/st7789.c  **** 	ST7789_WriteCommand(0xE0);
 175:LCD/st7789.c  **** 	{
 176:LCD/st7789.c  **** 		uint8_t data[] = {0xD0, 0x04, 0x0D, 0x11, 0x13, 0x2B, 0x3F, 0x54, 0x4C, 0x18, 0x0D, 0x0B, 0x1F, 0
 177:LCD/st7789.c  **** 		ST7789_WriteData(data, sizeof(data));
 178:LCD/st7789.c  **** 	}
 179:LCD/st7789.c  **** 
 180:LCD/st7789.c  ****     ST7789_WriteCommand(0xE1);
 181:LCD/st7789.c  **** 	{
 182:LCD/st7789.c  **** 		uint8_t data[] = {0xD0, 0x04, 0x0C, 0x11, 0x13, 0x2C, 0x3F, 0x44, 0x51, 0x2F, 0x1F, 0x1F, 0x20, 0
 183:LCD/st7789.c  **** 		ST7789_WriteData(data, sizeof(data));
 184:LCD/st7789.c  **** 	}
 185:LCD/st7789.c  ****     ST7789_WriteCommand (ST7789_INVON);		//	Inversion ON
 186:LCD/st7789.c  **** 	ST7789_WriteCommand (ST7789_SLPOUT);	//	Out of sleep mode
 187:LCD/st7789.c  ****   	ST7789_WriteCommand (ST7789_NORON);		//	Normal Display on
 188:LCD/st7789.c  ****   	ST7789_WriteCommand (ST7789_DISPON);	//	Main screen turned on	
 189:LCD/st7789.c  **** 
 190:LCD/st7789.c  **** 	HAL_Delay(50);
 191:LCD/st7789.c  **** 	ST7789_Fill_Color(BLACK);				//	Fill with Black.
 192:LCD/st7789.c  **** }
 193:LCD/st7789.c  **** 
 194:LCD/st7789.c  **** /**
 195:LCD/st7789.c  ****  * @brief Fill the DisplayWindow with single color
 196:LCD/st7789.c  ****  * @param color -> color to Fill with
 197:LCD/st7789.c  ****  * @return none
 198:LCD/st7789.c  ****  */
 199:LCD/st7789.c  **** void ST7789_Fill_Color(uint16_t color)
 200:LCD/st7789.c  **** {
 434              		.loc 1 200 1 is_stmt 1 view -0
 435              		.cfi_startproc
 436              		@ args = 0, pretend = 0, frame = 8
 437              		@ frame_needed = 0, uses_anonymous_args = 0
 438              		.loc 1 200 1 is_stmt 0 view .LVU73
 439 0000 70B5     		push	{r4, r5, r6, lr}
 440              	.LCFI11:
 441              		.cfi_def_cfa_offset 16
 442              		.cfi_offset 4, -16
 443              		.cfi_offset 5, -12
 444              		.cfi_offset 6, -8
 445              		.cfi_offset 14, -4
 446 0002 82B0     		sub	sp, sp, #8
 447              	.LCFI12:
 448              		.cfi_def_cfa_offset 24
 449 0004 0546     		mov	r5, r0
 201:LCD/st7789.c  **** 	uint16_t i;
 450              		.loc 1 201 2 is_stmt 1 view .LVU74
 202:LCD/st7789.c  **** 	ST7789_SetAddressWindow(0, 0, ST7789_WIDTH - 1, ST7789_HEIGHT - 1);
 451              		.loc 1 202 2 view .LVU75
 452 0006 40F23F13 		movw	r3, #319
 453 000a EF22     		movs	r2, #239
 454 000c 0021     		movs	r1, #0
 455 000e 0846     		mov	r0, r1
 456              	.LVL44:
 457              		.loc 1 202 2 is_stmt 0 view .LVU76
ARM GAS  C:\usertemp\cchsqz8b.s 			page 13


 458 0010 FFF7FEFF 		bl	ST7789_SetAddressWindow
 459              	.LVL45:
 203:LCD/st7789.c  **** 	ST7789_Select();
 460              		.loc 1 203 2 is_stmt 1 view .LVU77
 461 0014 0022     		movs	r2, #0
 462 0016 4FF48061 		mov	r1, #1024
 463 001a 1048     		ldr	r0, .L35
 464 001c FFF7FEFF 		bl	HAL_GPIO_WritePin
 465              	.LVL46:
 204:LCD/st7789.c  **** 
 205:LCD/st7789.c  **** 	#ifdef USE_DMA
 206:LCD/st7789.c  **** 		for (i = 0; i < ST7789_HEIGHT / HOR_LEN; i++)
 207:LCD/st7789.c  **** 		{
 208:LCD/st7789.c  **** 			memset(disp_buf, color, sizeof(disp_buf));
 209:LCD/st7789.c  **** 			ST7789_WriteData(disp_buf, sizeof(disp_buf));
 210:LCD/st7789.c  **** 		}
 211:LCD/st7789.c  **** 	#else
 212:LCD/st7789.c  **** 		uint16_t j;
 466              		.loc 1 212 3 view .LVU78
 213:LCD/st7789.c  **** 		for (i = 0; i < ST7789_WIDTH; i++)
 467              		.loc 1 213 3 view .LVU79
 468              		.loc 1 213 10 is_stmt 0 view .LVU80
 469 0020 0026     		movs	r6, #0
 470              		.loc 1 213 3 view .LVU81
 471 0022 0FE0     		b	.L29
 472              	.LVL47:
 473              	.L30:
 474              	.LBB5:
 214:LCD/st7789.c  **** 				for (j = 0; j < ST7789_HEIGHT; j++) {
 215:LCD/st7789.c  **** 					uint8_t data[] = {color >> 8, color & 0xFF};
 475              		.loc 1 215 6 is_stmt 1 view .LVU82
 476              		.loc 1 215 14 is_stmt 0 view .LVU83
 477 0024 2B0A     		lsrs	r3, r5, #8
 478 0026 8DF80430 		strb	r3, [sp, #4]
 479 002a 8DF80550 		strb	r5, [sp, #5]
 216:LCD/st7789.c  **** 					ST7789_WriteData(data, sizeof(data));
 480              		.loc 1 216 6 is_stmt 1 view .LVU84
 481 002e 0221     		movs	r1, #2
 482 0030 01A8     		add	r0, sp, #4
 483 0032 FFF7FEFF 		bl	ST7789_WriteData
 484              	.LVL48:
 485              	.LBE5:
 214:LCD/st7789.c  **** 				for (j = 0; j < ST7789_HEIGHT; j++) {
 486              		.loc 1 214 37 discriminator 3 view .LVU85
 487 0036 0134     		adds	r4, r4, #1
 488              	.LVL49:
 214:LCD/st7789.c  **** 				for (j = 0; j < ST7789_HEIGHT; j++) {
 489              		.loc 1 214 37 is_stmt 0 discriminator 3 view .LVU86
 490 0038 A4B2     		uxth	r4, r4
 491              	.LVL50:
 492              	.L31:
 214:LCD/st7789.c  **** 				for (j = 0; j < ST7789_HEIGHT; j++) {
 493              		.loc 1 214 19 is_stmt 1 discriminator 1 view .LVU87
 494 003a B4F5A07F 		cmp	r4, #320
 495 003e F1D3     		bcc	.L30
 213:LCD/st7789.c  **** 		for (i = 0; i < ST7789_WIDTH; i++)
 496              		.loc 1 213 34 discriminator 2 view .LVU88
ARM GAS  C:\usertemp\cchsqz8b.s 			page 14


 497 0040 0136     		adds	r6, r6, #1
 498              	.LVL51:
 213:LCD/st7789.c  **** 		for (i = 0; i < ST7789_WIDTH; i++)
 499              		.loc 1 213 34 is_stmt 0 discriminator 2 view .LVU89
 500 0042 B6B2     		uxth	r6, r6
 501              	.LVL52:
 502              	.L29:
 213:LCD/st7789.c  **** 		for (i = 0; i < ST7789_WIDTH; i++)
 503              		.loc 1 213 17 is_stmt 1 discriminator 1 view .LVU90
 504 0044 EF2E     		cmp	r6, #239
 505 0046 01D8     		bhi	.L34
 214:LCD/st7789.c  **** 				for (j = 0; j < ST7789_HEIGHT; j++) {
 506              		.loc 1 214 12 is_stmt 0 view .LVU91
 507 0048 0024     		movs	r4, #0
 508 004a F6E7     		b	.L31
 509              	.L34:
 217:LCD/st7789.c  **** 				}
 218:LCD/st7789.c  **** 	#endif
 219:LCD/st7789.c  **** 	ST7789_UnSelect();
 510              		.loc 1 219 2 is_stmt 1 view .LVU92
 511 004c 0122     		movs	r2, #1
 512 004e 4FF48061 		mov	r1, #1024
 513 0052 0248     		ldr	r0, .L35
 514 0054 FFF7FEFF 		bl	HAL_GPIO_WritePin
 515              	.LVL53:
 220:LCD/st7789.c  **** }
 516              		.loc 1 220 1 is_stmt 0 view .LVU93
 517 0058 02B0     		add	sp, sp, #8
 518              	.LCFI13:
 519              		.cfi_def_cfa_offset 16
 520              		@ sp needed
 521 005a 70BD     		pop	{r4, r5, r6, pc}
 522              	.LVL54:
 523              	.L36:
 524              		.loc 1 220 1 view .LVU94
 525              		.align	2
 526              	.L35:
 527 005c 000C0242 		.word	1107430400
 528              		.cfi_endproc
 529              	.LFE163:
 531              		.section	.rodata.ST7789_Init.str1.4,"aMS",%progbits,1
 532              		.align	2
 533              	.LC1:
 534 0000 D0040D11 		.ascii	"\320\004\015\021\023+?TL\030\015\013\037#\000"
 534      132B3F54 
 534      4C180D0B 
 534      1F2300
 535 000f 00       		.align	2
 536              	.LC2:
 537 0010 D0040C11 		.ascii	"\320\004\014\021\023,?DQ/\037\037 #\000"
 537      132C3F44 
 537      512F1F1F 
 537      202300
 538              		.section	.text.ST7789_Init,"ax",%progbits
 539              		.align	1
 540              		.global	ST7789_Init
 541              		.syntax unified
ARM GAS  C:\usertemp\cchsqz8b.s 			page 15


 542              		.thumb
 543              		.thumb_func
 545              	ST7789_Init:
 546              	.LFB162:
 135:LCD/st7789.c  **** 	#ifdef USE_DMA
 547              		.loc 1 135 1 is_stmt 1 view -0
 548              		.cfi_startproc
 549              		@ args = 0, pretend = 0, frame = 16
 550              		@ frame_needed = 0, uses_anonymous_args = 0
 551 0000 10B5     		push	{r4, lr}
 552              	.LCFI14:
 553              		.cfi_def_cfa_offset 8
 554              		.cfi_offset 4, -8
 555              		.cfi_offset 14, -4
 556 0002 84B0     		sub	sp, sp, #16
 557              	.LCFI15:
 558              		.cfi_def_cfa_offset 24
 139:LCD/st7789.c  ****     ST7789_RST_Clr();
 559              		.loc 1 139 2 view .LVU96
 560 0004 0A20     		movs	r0, #10
 561 0006 FFF7FEFF 		bl	HAL_Delay
 562              	.LVL55:
 140:LCD/st7789.c  ****     HAL_Delay(10);
 563              		.loc 1 140 5 view .LVU97
 564 000a 464C     		ldr	r4, .L39
 565 000c 0022     		movs	r2, #0
 566 000e 4FF48061 		mov	r1, #1024
 567 0012 2046     		mov	r0, r4
 568 0014 FFF7FEFF 		bl	HAL_GPIO_WritePin
 569              	.LVL56:
 141:LCD/st7789.c  ****     ST7789_RST_Set();
 570              		.loc 1 141 5 view .LVU98
 571 0018 0A20     		movs	r0, #10
 572 001a FFF7FEFF 		bl	HAL_Delay
 573              	.LVL57:
 142:LCD/st7789.c  ****     HAL_Delay(20);
 574              		.loc 1 142 5 view .LVU99
 575 001e 0122     		movs	r2, #1
 576 0020 4FF48061 		mov	r1, #1024
 577 0024 2046     		mov	r0, r4
 578 0026 FFF7FEFF 		bl	HAL_GPIO_WritePin
 579              	.LVL58:
 143:LCD/st7789.c  **** 
 580              		.loc 1 143 5 view .LVU100
 581 002a 1420     		movs	r0, #20
 582 002c FFF7FEFF 		bl	HAL_Delay
 583              	.LVL59:
 145:LCD/st7789.c  ****     ST7789_WriteSmallData(ST7789_COLOR_MODE_16bit);
 584              		.loc 1 145 5 view .LVU101
 585 0030 3A20     		movs	r0, #58
 586 0032 FFF7FEFF 		bl	ST7789_WriteCommand
 587              	.LVL60:
 146:LCD/st7789.c  ****   	ST7789_WriteCommand(0xB2);				//	Porch control
 588              		.loc 1 146 5 view .LVU102
 589 0036 5520     		movs	r0, #85
 590 0038 FFF7FEFF 		bl	ST7789_WriteSmallData
 591              	.LVL61:
ARM GAS  C:\usertemp\cchsqz8b.s 			page 16


 147:LCD/st7789.c  **** 	{
 592              		.loc 1 147 4 view .LVU103
 593 003c B220     		movs	r0, #178
 594 003e FFF7FEFF 		bl	ST7789_WriteCommand
 595              	.LVL62:
 596              	.LBB6:
 149:LCD/st7789.c  **** 		ST7789_WriteData(data, sizeof(data));
 597              		.loc 1 149 3 view .LVU104
 149:LCD/st7789.c  **** 		ST7789_WriteData(data, sizeof(data));
 598              		.loc 1 149 11 is_stmt 0 view .LVU105
 599 0042 394B     		ldr	r3, .L39+4
 600 0044 93E80300 		ldm	r3, {r0, r1}
 601 0048 0090     		str	r0, [sp]
 602 004a 8DF80410 		strb	r1, [sp, #4]
 150:LCD/st7789.c  **** 	}
 603              		.loc 1 150 3 is_stmt 1 view .LVU106
 604 004e 0521     		movs	r1, #5
 605 0050 6846     		mov	r0, sp
 606 0052 FFF7FEFF 		bl	ST7789_WriteData
 607              	.LVL63:
 608              	.LBE6:
 152:LCD/st7789.c  **** 	
 609              		.loc 1 152 2 view .LVU107
 610 0056 0220     		movs	r0, #2
 611 0058 FFF7FEFF 		bl	ST7789_SetRotation
 612              	.LVL64:
 155:LCD/st7789.c  ****     ST7789_WriteSmallData(0x35);			//	Default value
 613              		.loc 1 155 5 view .LVU108
 614 005c B720     		movs	r0, #183
 615 005e FFF7FEFF 		bl	ST7789_WriteCommand
 616              	.LVL65:
 156:LCD/st7789.c  ****     ST7789_WriteCommand(0xBB);				//	VCOM setting
 617              		.loc 1 156 5 view .LVU109
 618 0062 3520     		movs	r0, #53
 619 0064 FFF7FEFF 		bl	ST7789_WriteSmallData
 620              	.LVL66:
 157:LCD/st7789.c  ****     ST7789_WriteSmallData(0x19);			//	0.725v (default 0.75v for 0x20)
 621              		.loc 1 157 5 view .LVU110
 622 0068 BB20     		movs	r0, #187
 623 006a FFF7FEFF 		bl	ST7789_WriteCommand
 624              	.LVL67:
 158:LCD/st7789.c  ****     ST7789_WriteCommand(0xC0);				//	LCMCTRL	
 625              		.loc 1 158 5 view .LVU111
 626 006e 1920     		movs	r0, #25
 627 0070 FFF7FEFF 		bl	ST7789_WriteSmallData
 628              	.LVL68:
 159:LCD/st7789.c  ****     ST7789_WriteSmallData (0x2C);			//	Default value
 629              		.loc 1 159 5 view .LVU112
 630 0074 C020     		movs	r0, #192
 631 0076 FFF7FEFF 		bl	ST7789_WriteCommand
 632              	.LVL69:
 160:LCD/st7789.c  ****     ST7789_WriteCommand (0xC2);				//	VDV and VRH command Enable
 633              		.loc 1 160 5 view .LVU113
 634 007a 2C20     		movs	r0, #44
 635 007c FFF7FEFF 		bl	ST7789_WriteSmallData
 636              	.LVL70:
 161:LCD/st7789.c  ****     ST7789_WriteSmallData (0x01);			//	Default value
ARM GAS  C:\usertemp\cchsqz8b.s 			page 17


 637              		.loc 1 161 5 view .LVU114
 638 0080 C220     		movs	r0, #194
 639 0082 FFF7FEFF 		bl	ST7789_WriteCommand
 640              	.LVL71:
 162:LCD/st7789.c  ****     ST7789_WriteCommand (0xC3);				//	VRH set
 641              		.loc 1 162 5 view .LVU115
 642 0086 0120     		movs	r0, #1
 643 0088 FFF7FEFF 		bl	ST7789_WriteSmallData
 644              	.LVL72:
 163:LCD/st7789.c  ****     ST7789_WriteSmallData (0x12);			//	+-4.45v (defalut +-4.1v for 0x0B)
 645              		.loc 1 163 5 view .LVU116
 646 008c C320     		movs	r0, #195
 647 008e FFF7FEFF 		bl	ST7789_WriteCommand
 648              	.LVL73:
 164:LCD/st7789.c  ****     ST7789_WriteCommand (0xC4);				//	VDV set
 649              		.loc 1 164 5 view .LVU117
 650 0092 1220     		movs	r0, #18
 651 0094 FFF7FEFF 		bl	ST7789_WriteSmallData
 652              	.LVL74:
 165:LCD/st7789.c  ****     ST7789_WriteSmallData (0x20);			//	Default value
 653              		.loc 1 165 5 view .LVU118
 654 0098 C420     		movs	r0, #196
 655 009a FFF7FEFF 		bl	ST7789_WriteCommand
 656              	.LVL75:
 166:LCD/st7789.c  ****     ST7789_WriteCommand (0xC6);				//	Frame rate control in normal mode
 657              		.loc 1 166 5 view .LVU119
 658 009e 2020     		movs	r0, #32
 659 00a0 FFF7FEFF 		bl	ST7789_WriteSmallData
 660              	.LVL76:
 167:LCD/st7789.c  ****     ST7789_WriteSmallData (0x0F);			//	Default value (60HZ)
 661              		.loc 1 167 5 view .LVU120
 662 00a4 C620     		movs	r0, #198
 663 00a6 FFF7FEFF 		bl	ST7789_WriteCommand
 664              	.LVL77:
 168:LCD/st7789.c  ****     ST7789_WriteCommand (0xD0);				//	Power control
 665              		.loc 1 168 5 view .LVU121
 666 00aa 0F20     		movs	r0, #15
 667 00ac FFF7FEFF 		bl	ST7789_WriteSmallData
 668              	.LVL78:
 169:LCD/st7789.c  ****     ST7789_WriteSmallData (0xA4);			//	Default value
 669              		.loc 1 169 5 view .LVU122
 670 00b0 D020     		movs	r0, #208
 671 00b2 FFF7FEFF 		bl	ST7789_WriteCommand
 672              	.LVL79:
 170:LCD/st7789.c  ****     ST7789_WriteSmallData (0xA1);			//	Default value
 673              		.loc 1 170 5 view .LVU123
 674 00b6 A420     		movs	r0, #164
 675 00b8 FFF7FEFF 		bl	ST7789_WriteSmallData
 676              	.LVL80:
 171:LCD/st7789.c  **** 	/**************** Division line ****************/
 677              		.loc 1 171 5 view .LVU124
 678 00bc A120     		movs	r0, #161
 679 00be FFF7FEFF 		bl	ST7789_WriteSmallData
 680              	.LVL81:
 174:LCD/st7789.c  **** 	{
 681              		.loc 1 174 2 view .LVU125
 682 00c2 E020     		movs	r0, #224
ARM GAS  C:\usertemp\cchsqz8b.s 			page 18


 683 00c4 FFF7FEFF 		bl	ST7789_WriteCommand
 684              	.LVL82:
 685              	.LBB7:
 176:LCD/st7789.c  **** 		ST7789_WriteData(data, sizeof(data));
 686              		.loc 1 176 3 view .LVU126
 176:LCD/st7789.c  **** 		ST7789_WriteData(data, sizeof(data));
 687              		.loc 1 176 11 is_stmt 0 view .LVU127
 688 00c8 184B     		ldr	r3, .L39+8
 689 00ca EC46     		mov	ip, sp
 690 00cc 0FCB     		ldm	r3, {r0, r1, r2, r3}
 691 00ce ACE80700 		stmia	ip!, {r0, r1, r2}
 692 00d2 ACF80030 		strh	r3, [ip]	@ movhi
 177:LCD/st7789.c  **** 	}
 693              		.loc 1 177 3 is_stmt 1 view .LVU128
 694 00d6 0E21     		movs	r1, #14
 695 00d8 6846     		mov	r0, sp
 696 00da FFF7FEFF 		bl	ST7789_WriteData
 697              	.LVL83:
 698              	.LBE7:
 180:LCD/st7789.c  **** 	{
 699              		.loc 1 180 5 view .LVU129
 700 00de E120     		movs	r0, #225
 701 00e0 FFF7FEFF 		bl	ST7789_WriteCommand
 702              	.LVL84:
 703              	.LBB8:
 182:LCD/st7789.c  **** 		ST7789_WriteData(data, sizeof(data));
 704              		.loc 1 182 3 view .LVU130
 182:LCD/st7789.c  **** 		ST7789_WriteData(data, sizeof(data));
 705              		.loc 1 182 11 is_stmt 0 view .LVU131
 706 00e4 124B     		ldr	r3, .L39+12
 707 00e6 EC46     		mov	ip, sp
 708 00e8 0FCB     		ldm	r3, {r0, r1, r2, r3}
 709 00ea ACE80700 		stmia	ip!, {r0, r1, r2}
 710 00ee ACF80030 		strh	r3, [ip]	@ movhi
 183:LCD/st7789.c  **** 	}
 711              		.loc 1 183 3 is_stmt 1 view .LVU132
 712 00f2 0E21     		movs	r1, #14
 713 00f4 6846     		mov	r0, sp
 714 00f6 FFF7FEFF 		bl	ST7789_WriteData
 715              	.LVL85:
 716              	.LBE8:
 185:LCD/st7789.c  **** 	ST7789_WriteCommand (ST7789_SLPOUT);	//	Out of sleep mode
 717              		.loc 1 185 5 view .LVU133
 718 00fa 2120     		movs	r0, #33
 719 00fc FFF7FEFF 		bl	ST7789_WriteCommand
 720              	.LVL86:
 186:LCD/st7789.c  ****   	ST7789_WriteCommand (ST7789_NORON);		//	Normal Display on
 721              		.loc 1 186 2 view .LVU134
 722 0100 1120     		movs	r0, #17
 723 0102 FFF7FEFF 		bl	ST7789_WriteCommand
 724              	.LVL87:
 187:LCD/st7789.c  ****   	ST7789_WriteCommand (ST7789_DISPON);	//	Main screen turned on	
 725              		.loc 1 187 4 view .LVU135
 726 0106 1320     		movs	r0, #19
 727 0108 FFF7FEFF 		bl	ST7789_WriteCommand
 728              	.LVL88:
 188:LCD/st7789.c  **** 
ARM GAS  C:\usertemp\cchsqz8b.s 			page 19


 729              		.loc 1 188 4 view .LVU136
 730 010c 2920     		movs	r0, #41
 731 010e FFF7FEFF 		bl	ST7789_WriteCommand
 732              	.LVL89:
 190:LCD/st7789.c  **** 	ST7789_Fill_Color(BLACK);				//	Fill with Black.
 733              		.loc 1 190 2 view .LVU137
 734 0112 3220     		movs	r0, #50
 735 0114 FFF7FEFF 		bl	HAL_Delay
 736              	.LVL90:
 191:LCD/st7789.c  **** }
 737              		.loc 1 191 2 view .LVU138
 738 0118 0020     		movs	r0, #0
 739 011a FFF7FEFF 		bl	ST7789_Fill_Color
 740              	.LVL91:
 192:LCD/st7789.c  **** 
 741              		.loc 1 192 1 is_stmt 0 view .LVU139
 742 011e 04B0     		add	sp, sp, #16
 743              	.LCFI16:
 744              		.cfi_def_cfa_offset 8
 745              		@ sp needed
 746 0120 10BD     		pop	{r4, pc}
 747              	.L40:
 748 0122 00BF     		.align	2
 749              	.L39:
 750 0124 00000242 		.word	1107427328
 751 0128 00000000 		.word	.LANCHOR0
 752 012c 00000000 		.word	.LC1
 753 0130 10000000 		.word	.LC2
 754              		.cfi_endproc
 755              	.LFE162:
 757              		.section	.text.ST7789_DrawPixel,"ax",%progbits
 758              		.align	1
 759              		.global	ST7789_DrawPixel
 760              		.syntax unified
 761              		.thumb
 762              		.thumb_func
 764              	ST7789_DrawPixel:
 765              	.LVL92:
 766              	.LFB164:
 221:LCD/st7789.c  **** 
 222:LCD/st7789.c  **** /**
 223:LCD/st7789.c  ****  * @brief Draw a Pixel
 224:LCD/st7789.c  ****  * @param x&y -> coordinate to Draw
 225:LCD/st7789.c  ****  * @param color -> color of the Pixel
 226:LCD/st7789.c  ****  * @return none
 227:LCD/st7789.c  ****  */
 228:LCD/st7789.c  **** void ST7789_DrawPixel(uint16_t x, uint16_t y, uint16_t color)
 229:LCD/st7789.c  **** {
 767              		.loc 1 229 1 is_stmt 1 view -0
 768              		.cfi_startproc
 769              		@ args = 0, pretend = 0, frame = 8
 770              		@ frame_needed = 0, uses_anonymous_args = 0
 230:LCD/st7789.c  **** 	if ((x < 0) || (x >= ST7789_WIDTH) ||
 771              		.loc 1 230 2 view .LVU141
 772              		.loc 1 230 5 is_stmt 0 view .LVU142
 773 0000 EF28     		cmp	r0, #239
 774 0002 22D8     		bhi	.L46
ARM GAS  C:\usertemp\cchsqz8b.s 			page 20


 229:LCD/st7789.c  **** 	if ((x < 0) || (x >= ST7789_WIDTH) ||
 775              		.loc 1 229 1 view .LVU143
 776 0004 10B5     		push	{r4, lr}
 777              	.LCFI17:
 778              		.cfi_def_cfa_offset 8
 779              		.cfi_offset 4, -8
 780              		.cfi_offset 14, -4
 781 0006 82B0     		sub	sp, sp, #8
 782              	.LCFI18:
 783              		.cfi_def_cfa_offset 16
 784 0008 1446     		mov	r4, r2
 231:LCD/st7789.c  **** 		 (y < 0) || (y >= ST7789_HEIGHT))	return;
 785              		.loc 1 231 12 view .LVU144
 786 000a B1F5A07F 		cmp	r1, #320
 787 000e 01D3     		bcc	.L49
 788              	.LVL93:
 789              	.L41:
 232:LCD/st7789.c  **** 	
 233:LCD/st7789.c  **** 	ST7789_SetAddressWindow(x, y, x, y);
 234:LCD/st7789.c  **** 	uint8_t data[] = {color >> 8, color & 0xFF};
 235:LCD/st7789.c  **** 	ST7789_Select();
 236:LCD/st7789.c  **** 	ST7789_WriteData(data, sizeof(data));
 237:LCD/st7789.c  **** 	ST7789_UnSelect();
 238:LCD/st7789.c  **** }
 790              		.loc 1 238 1 view .LVU145
 791 0010 02B0     		add	sp, sp, #8
 792              	.LCFI19:
 793              		.cfi_remember_state
 794              		.cfi_def_cfa_offset 8
 795              		@ sp needed
 796 0012 10BD     		pop	{r4, pc}
 797              	.LVL94:
 798              	.L49:
 799              	.LCFI20:
 800              		.cfi_restore_state
 233:LCD/st7789.c  **** 	uint8_t data[] = {color >> 8, color & 0xFF};
 801              		.loc 1 233 2 is_stmt 1 view .LVU146
 802 0014 0B46     		mov	r3, r1
 803 0016 0246     		mov	r2, r0
 804              	.LVL95:
 233:LCD/st7789.c  **** 	uint8_t data[] = {color >> 8, color & 0xFF};
 805              		.loc 1 233 2 is_stmt 0 view .LVU147
 806 0018 FFF7FEFF 		bl	ST7789_SetAddressWindow
 807              	.LVL96:
 234:LCD/st7789.c  **** 	ST7789_Select();
 808              		.loc 1 234 2 is_stmt 1 view .LVU148
 234:LCD/st7789.c  **** 	ST7789_Select();
 809              		.loc 1 234 10 is_stmt 0 view .LVU149
 810 001c 230A     		lsrs	r3, r4, #8
 811 001e 8DF80430 		strb	r3, [sp, #4]
 812 0022 8DF80540 		strb	r4, [sp, #5]
 235:LCD/st7789.c  **** 	ST7789_WriteData(data, sizeof(data));
 813              		.loc 1 235 2 is_stmt 1 view .LVU150
 814 0026 094C     		ldr	r4, .L50
 815              	.LVL97:
 235:LCD/st7789.c  **** 	ST7789_WriteData(data, sizeof(data));
 816              		.loc 1 235 2 is_stmt 0 view .LVU151
ARM GAS  C:\usertemp\cchsqz8b.s 			page 21


 817 0028 0022     		movs	r2, #0
 818 002a 4FF48061 		mov	r1, #1024
 819 002e 2046     		mov	r0, r4
 820 0030 FFF7FEFF 		bl	HAL_GPIO_WritePin
 821              	.LVL98:
 236:LCD/st7789.c  **** 	ST7789_UnSelect();
 822              		.loc 1 236 2 is_stmt 1 view .LVU152
 823 0034 0221     		movs	r1, #2
 824 0036 01A8     		add	r0, sp, #4
 825 0038 FFF7FEFF 		bl	ST7789_WriteData
 826              	.LVL99:
 237:LCD/st7789.c  **** }
 827              		.loc 1 237 2 view .LVU153
 828 003c 0122     		movs	r2, #1
 829 003e 4FF48061 		mov	r1, #1024
 830 0042 2046     		mov	r0, r4
 831 0044 FFF7FEFF 		bl	HAL_GPIO_WritePin
 832              	.LVL100:
 833 0048 E2E7     		b	.L41
 834              	.LVL101:
 835              	.L46:
 836              	.LCFI21:
 837              		.cfi_def_cfa_offset 0
 838              		.cfi_restore 4
 839              		.cfi_restore 14
 237:LCD/st7789.c  **** }
 840              		.loc 1 237 2 is_stmt 0 view .LVU154
 841 004a 7047     		bx	lr
 842              	.L51:
 843              		.align	2
 844              	.L50:
 845 004c 000C0242 		.word	1107430400
 846              		.cfi_endproc
 847              	.LFE164:
 849              		.section	.text.ST7789_Fill,"ax",%progbits
 850              		.align	1
 851              		.global	ST7789_Fill
 852              		.syntax unified
 853              		.thumb
 854              		.thumb_func
 856              	ST7789_Fill:
 857              	.LVL102:
 858              	.LFB165:
 239:LCD/st7789.c  **** 
 240:LCD/st7789.c  **** /**
 241:LCD/st7789.c  ****  * @brief Fill an Area with single color
 242:LCD/st7789.c  ****  * @param xSta&ySta -> coordinate of the start point
 243:LCD/st7789.c  ****  * @param xEnd&yEnd -> coordinate of the end point
 244:LCD/st7789.c  ****  * @param color -> color to Fill with
 245:LCD/st7789.c  ****  * @return none
 246:LCD/st7789.c  ****  */
 247:LCD/st7789.c  **** void ST7789_Fill(uint16_t xSta, uint16_t ySta, uint16_t xEnd, uint16_t yEnd, uint16_t color)
 248:LCD/st7789.c  **** {
 859              		.loc 1 248 1 is_stmt 1 view -0
 860              		.cfi_startproc
 861              		@ args = 4, pretend = 0, frame = 8
 862              		@ frame_needed = 0, uses_anonymous_args = 0
ARM GAS  C:\usertemp\cchsqz8b.s 			page 22


 863              		.loc 1 248 1 is_stmt 0 view .LVU156
 864 0000 2DE9F043 		push	{r4, r5, r6, r7, r8, r9, lr}
 865              	.LCFI22:
 866              		.cfi_def_cfa_offset 28
 867              		.cfi_offset 4, -28
 868              		.cfi_offset 5, -24
 869              		.cfi_offset 6, -20
 870              		.cfi_offset 7, -16
 871              		.cfi_offset 8, -12
 872              		.cfi_offset 9, -8
 873              		.cfi_offset 14, -4
 874 0004 83B0     		sub	sp, sp, #12
 875              	.LCFI23:
 876              		.cfi_def_cfa_offset 40
 877 0006 BDF82850 		ldrh	r5, [sp, #40]
 249:LCD/st7789.c  **** 	if ((xEnd < 0) || (xEnd >= ST7789_WIDTH) ||
 878              		.loc 1 249 2 is_stmt 1 view .LVU157
 879              		.loc 1 249 5 is_stmt 0 view .LVU158
 880 000a EF2A     		cmp	r2, #239
 881 000c 06D8     		bhi	.L52
 882 000e 8146     		mov	r9, r0
 883 0010 0F46     		mov	r7, r1
 884 0012 1646     		mov	r6, r2
 885 0014 9846     		mov	r8, r3
 250:LCD/st7789.c  **** 		 (yEnd < 0) || (yEnd >= ST7789_HEIGHT))	return;
 886              		.loc 1 250 15 view .LVU159
 887 0016 B3F5A07F 		cmp	r3, #320
 888 001a 02D3     		bcc	.L59
 889              	.LVL103:
 890              	.L52:
 251:LCD/st7789.c  **** 	ST7789_Select();
 252:LCD/st7789.c  **** 	uint16_t i, j;
 253:LCD/st7789.c  **** 	ST7789_SetAddressWindow(xSta, ySta, xEnd, yEnd);
 254:LCD/st7789.c  **** 	for (i = ySta; i <= yEnd; i++)
 255:LCD/st7789.c  **** 		for (j = xSta; j <= xEnd; j++) {
 256:LCD/st7789.c  **** 			uint8_t data[] = {color >> 8, color & 0xFF};
 257:LCD/st7789.c  **** 			ST7789_WriteData(data, sizeof(data));
 258:LCD/st7789.c  **** 		}
 259:LCD/st7789.c  **** 	ST7789_UnSelect();
 260:LCD/st7789.c  **** }
 891              		.loc 1 260 1 view .LVU160
 892 001c 03B0     		add	sp, sp, #12
 893              	.LCFI24:
 894              		.cfi_remember_state
 895              		.cfi_def_cfa_offset 28
 896              		@ sp needed
 897 001e BDE8F083 		pop	{r4, r5, r6, r7, r8, r9, pc}
 898              	.LVL104:
 899              	.L59:
 900              	.LCFI25:
 901              		.cfi_restore_state
 251:LCD/st7789.c  **** 	ST7789_Select();
 902              		.loc 1 251 2 is_stmt 1 view .LVU161
 903 0022 0022     		movs	r2, #0
 904              	.LVL105:
 251:LCD/st7789.c  **** 	ST7789_Select();
 905              		.loc 1 251 2 is_stmt 0 view .LVU162
ARM GAS  C:\usertemp\cchsqz8b.s 			page 23


 906 0024 4FF48061 		mov	r1, #1024
 907              	.LVL106:
 251:LCD/st7789.c  **** 	ST7789_Select();
 908              		.loc 1 251 2 view .LVU163
 909 0028 1248     		ldr	r0, .L61
 910              	.LVL107:
 251:LCD/st7789.c  **** 	ST7789_Select();
 911              		.loc 1 251 2 view .LVU164
 912 002a FFF7FEFF 		bl	HAL_GPIO_WritePin
 913              	.LVL108:
 252:LCD/st7789.c  **** 	ST7789_SetAddressWindow(xSta, ySta, xEnd, yEnd);
 914              		.loc 1 252 2 is_stmt 1 view .LVU165
 253:LCD/st7789.c  **** 	for (i = ySta; i <= yEnd; i++)
 915              		.loc 1 253 2 view .LVU166
 916 002e 4346     		mov	r3, r8
 917 0030 3246     		mov	r2, r6
 918 0032 3946     		mov	r1, r7
 919 0034 4846     		mov	r0, r9
 920 0036 FFF7FEFF 		bl	ST7789_SetAddressWindow
 921              	.LVL109:
 254:LCD/st7789.c  **** 		for (j = xSta; j <= xEnd; j++) {
 922              		.loc 1 254 2 view .LVU167
 254:LCD/st7789.c  **** 		for (j = xSta; j <= xEnd; j++) {
 923              		.loc 1 254 2 is_stmt 0 view .LVU168
 924 003a 0FE0     		b	.L54
 925              	.LVL110:
 926              	.L55:
 927              	.LBB9:
 256:LCD/st7789.c  **** 			ST7789_WriteData(data, sizeof(data));
 928              		.loc 1 256 4 is_stmt 1 view .LVU169
 256:LCD/st7789.c  **** 			ST7789_WriteData(data, sizeof(data));
 929              		.loc 1 256 12 is_stmt 0 view .LVU170
 930 003c 4FEA152C 		lsr	ip, r5, #8
 931 0040 8DF804C0 		strb	ip, [sp, #4]
 932 0044 8DF80550 		strb	r5, [sp, #5]
 257:LCD/st7789.c  **** 		}
 933              		.loc 1 257 4 is_stmt 1 view .LVU171
 934 0048 0221     		movs	r1, #2
 935 004a 01A8     		add	r0, sp, #4
 936 004c FFF7FEFF 		bl	ST7789_WriteData
 937              	.LVL111:
 938              	.LBE9:
 255:LCD/st7789.c  **** 			uint8_t data[] = {color >> 8, color & 0xFF};
 939              		.loc 1 255 30 discriminator 3 view .LVU172
 940 0050 0134     		adds	r4, r4, #1
 941              	.LVL112:
 255:LCD/st7789.c  **** 			uint8_t data[] = {color >> 8, color & 0xFF};
 942              		.loc 1 255 30 is_stmt 0 discriminator 3 view .LVU173
 943 0052 A4B2     		uxth	r4, r4
 944              	.LVL113:
 945              	.L56:
 255:LCD/st7789.c  **** 			uint8_t data[] = {color >> 8, color & 0xFF};
 946              		.loc 1 255 20 is_stmt 1 discriminator 1 view .LVU174
 947 0054 B442     		cmp	r4, r6
 948 0056 F1D9     		bls	.L55
 254:LCD/st7789.c  **** 		for (j = xSta; j <= xEnd; j++) {
 949              		.loc 1 254 29 discriminator 2 view .LVU175
ARM GAS  C:\usertemp\cchsqz8b.s 			page 24


 950 0058 0137     		adds	r7, r7, #1
 951              	.LVL114:
 254:LCD/st7789.c  **** 		for (j = xSta; j <= xEnd; j++) {
 952              		.loc 1 254 29 is_stmt 0 discriminator 2 view .LVU176
 953 005a BFB2     		uxth	r7, r7
 954              	.LVL115:
 955              	.L54:
 254:LCD/st7789.c  **** 		for (j = xSta; j <= xEnd; j++) {
 956              		.loc 1 254 19 is_stmt 1 discriminator 1 view .LVU177
 957 005c 4745     		cmp	r7, r8
 958 005e 01D8     		bhi	.L60
 255:LCD/st7789.c  **** 			uint8_t data[] = {color >> 8, color & 0xFF};
 959              		.loc 1 255 10 is_stmt 0 view .LVU178
 960 0060 4C46     		mov	r4, r9
 961 0062 F7E7     		b	.L56
 962              	.L60:
 259:LCD/st7789.c  **** }
 963              		.loc 1 259 2 is_stmt 1 view .LVU179
 964 0064 0122     		movs	r2, #1
 965 0066 4FF48061 		mov	r1, #1024
 966 006a 0248     		ldr	r0, .L61
 967 006c FFF7FEFF 		bl	HAL_GPIO_WritePin
 968              	.LVL116:
 969 0070 D4E7     		b	.L52
 970              	.L62:
 971 0072 00BF     		.align	2
 972              	.L61:
 973 0074 000C0242 		.word	1107430400
 974              		.cfi_endproc
 975              	.LFE165:
 977              		.section	.text.ST7789_DrawPixel_4px,"ax",%progbits
 978              		.align	1
 979              		.global	ST7789_DrawPixel_4px
 980              		.syntax unified
 981              		.thumb
 982              		.thumb_func
 984              	ST7789_DrawPixel_4px:
 985              	.LVL117:
 986              	.LFB166:
 261:LCD/st7789.c  **** 
 262:LCD/st7789.c  **** /**
 263:LCD/st7789.c  ****  * @brief Draw a big Pixel at a point
 264:LCD/st7789.c  ****  * @param x&y -> coordinate of the point
 265:LCD/st7789.c  ****  * @param color -> color of the Pixel
 266:LCD/st7789.c  ****  * @return none
 267:LCD/st7789.c  ****  */
 268:LCD/st7789.c  **** void ST7789_DrawPixel_4px(uint16_t x, uint16_t y, uint16_t color)
 269:LCD/st7789.c  **** {
 987              		.loc 1 269 1 view -0
 988              		.cfi_startproc
 989              		@ args = 0, pretend = 0, frame = 0
 990              		@ frame_needed = 0, uses_anonymous_args = 0
 991              		.loc 1 269 1 is_stmt 0 view .LVU181
 992 0000 2DE9F041 		push	{r4, r5, r6, r7, r8, lr}
 993              	.LCFI26:
 994              		.cfi_def_cfa_offset 24
 995              		.cfi_offset 4, -24
ARM GAS  C:\usertemp\cchsqz8b.s 			page 25


 996              		.cfi_offset 5, -20
 997              		.cfi_offset 6, -16
 998              		.cfi_offset 7, -12
 999              		.cfi_offset 8, -8
 1000              		.cfi_offset 14, -4
 1001 0004 82B0     		sub	sp, sp, #8
 1002              	.LCFI27:
 1003              		.cfi_def_cfa_offset 32
 270:LCD/st7789.c  **** 	if ((x <= 0) || (x > ST7789_WIDTH) ||
 1004              		.loc 1 270 2 is_stmt 1 view .LVU182
 1005              		.loc 1 270 15 is_stmt 0 view .LVU183
 1006 0006 451E     		subs	r5, r0, #1
 1007 0008 ADB2     		uxth	r5, r5
 1008              		.loc 1 270 5 view .LVU184
 1009 000a EF2D     		cmp	r5, #239
 1010 000c 06D8     		bhi	.L63
 1011 000e 0746     		mov	r7, r0
 1012 0010 0C46     		mov	r4, r1
 1013 0012 1646     		mov	r6, r2
 1014              		.loc 1 270 37 discriminator 1 view .LVU185
 1015 0014 11B1     		cbz	r1, .L63
 271:LCD/st7789.c  **** 		 (y <= 0) || (y > ST7789_HEIGHT))	return;
 1016              		.loc 1 271 13 view .LVU186
 1017 0016 B1F5A07F 		cmp	r1, #320
 1018 001a 02D9     		bls	.L66
 1019              	.LVL118:
 1020              	.L63:
 272:LCD/st7789.c  **** 	ST7789_Select();
 273:LCD/st7789.c  **** 	ST7789_Fill(x - 1, y - 1, x + 1, y + 1, color);
 274:LCD/st7789.c  **** 	ST7789_UnSelect();
 275:LCD/st7789.c  **** }
 1021              		.loc 1 275 1 view .LVU187
 1022 001c 02B0     		add	sp, sp, #8
 1023              	.LCFI28:
 1024              		.cfi_remember_state
 1025              		.cfi_def_cfa_offset 24
 1026              		@ sp needed
 1027 001e BDE8F081 		pop	{r4, r5, r6, r7, r8, pc}
 1028              	.LVL119:
 1029              	.L66:
 1030              	.LCFI29:
 1031              		.cfi_restore_state
 272:LCD/st7789.c  **** 	ST7789_Select();
 1032              		.loc 1 272 2 is_stmt 1 view .LVU188
 1033 0022 DFF83080 		ldr	r8, .L67
 1034 0026 0022     		movs	r2, #0
 1035              	.LVL120:
 272:LCD/st7789.c  **** 	ST7789_Select();
 1036              		.loc 1 272 2 is_stmt 0 view .LVU189
 1037 0028 4FF48061 		mov	r1, #1024
 1038              	.LVL121:
 272:LCD/st7789.c  **** 	ST7789_Select();
 1039              		.loc 1 272 2 view .LVU190
 1040 002c 4046     		mov	r0, r8
 1041              	.LVL122:
 272:LCD/st7789.c  **** 	ST7789_Select();
 1042              		.loc 1 272 2 view .LVU191
ARM GAS  C:\usertemp\cchsqz8b.s 			page 26


 1043 002e FFF7FEFF 		bl	HAL_GPIO_WritePin
 1044              	.LVL123:
 273:LCD/st7789.c  **** 	ST7789_UnSelect();
 1045              		.loc 1 273 2 is_stmt 1 view .LVU192
 1046 0032 631C     		adds	r3, r4, #1
 1047 0034 7A1C     		adds	r2, r7, #1
 1048 0036 611E     		subs	r1, r4, #1
 1049 0038 0096     		str	r6, [sp]
 1050 003a 9BB2     		uxth	r3, r3
 1051 003c 92B2     		uxth	r2, r2
 1052 003e 89B2     		uxth	r1, r1
 1053 0040 2846     		mov	r0, r5
 1054 0042 FFF7FEFF 		bl	ST7789_Fill
 1055              	.LVL124:
 274:LCD/st7789.c  **** }
 1056              		.loc 1 274 2 view .LVU193
 1057 0046 0122     		movs	r2, #1
 1058 0048 4FF48061 		mov	r1, #1024
 1059 004c 4046     		mov	r0, r8
 1060 004e FFF7FEFF 		bl	HAL_GPIO_WritePin
 1061              	.LVL125:
 1062 0052 E3E7     		b	.L63
 1063              	.L68:
 1064              		.align	2
 1065              	.L67:
 1066 0054 000C0242 		.word	1107430400
 1067              		.cfi_endproc
 1068              	.LFE166:
 1070              		.section	.text.ST7789_DrawLine,"ax",%progbits
 1071              		.align	1
 1072              		.global	ST7789_DrawLine
 1073              		.syntax unified
 1074              		.thumb
 1075              		.thumb_func
 1077              	ST7789_DrawLine:
 1078              	.LVL126:
 1079              	.LFB167:
 276:LCD/st7789.c  **** 
 277:LCD/st7789.c  **** /**
 278:LCD/st7789.c  ****  * @brief Draw a line with single color
 279:LCD/st7789.c  ****  * @param x1&y1 -> coordinate of the start point
 280:LCD/st7789.c  ****  * @param x2&y2 -> coordinate of the end point
 281:LCD/st7789.c  ****  * @param color -> color of the line to Draw
 282:LCD/st7789.c  ****  * @return none
 283:LCD/st7789.c  ****  */
 284:LCD/st7789.c  **** void ST7789_DrawLine(uint16_t x0, uint16_t y0, uint16_t x1, uint16_t y1,
 285:LCD/st7789.c  ****         uint16_t color) {
 1080              		.loc 1 285 25 view -0
 1081              		.cfi_startproc
 1082              		@ args = 4, pretend = 0, frame = 8
 1083              		@ frame_needed = 0, uses_anonymous_args = 0
 1084              		.loc 1 285 25 is_stmt 0 view .LVU195
 1085 0000 2DE9F04F 		push	{r4, r5, r6, r7, r8, r9, r10, fp, lr}
 1086              	.LCFI30:
 1087              		.cfi_def_cfa_offset 36
 1088              		.cfi_offset 4, -36
 1089              		.cfi_offset 5, -32
ARM GAS  C:\usertemp\cchsqz8b.s 			page 27


 1090              		.cfi_offset 6, -28
 1091              		.cfi_offset 7, -24
 1092              		.cfi_offset 8, -20
 1093              		.cfi_offset 9, -16
 1094              		.cfi_offset 10, -12
 1095              		.cfi_offset 11, -8
 1096              		.cfi_offset 14, -4
 1097 0004 83B0     		sub	sp, sp, #12
 1098              	.LCFI31:
 1099              		.cfi_def_cfa_offset 48
 1100 0006 8B46     		mov	fp, r1
 1101 0008 1546     		mov	r5, r2
 1102 000a 1E46     		mov	r6, r3
 1103 000c BDF83080 		ldrh	r8, [sp, #48]
 286:LCD/st7789.c  **** 	uint16_t swap;
 1104              		.loc 1 286 2 is_stmt 1 view .LVU196
 287:LCD/st7789.c  ****     uint16_t steep = ABS(y1 - y0) > ABS(x1 - x0);
 1105              		.loc 1 287 5 view .LVU197
 1106              		.loc 1 287 22 is_stmt 0 view .LVU198
 1107 0010 5A1A     		subs	r2, r3, r1
 1108              	.LVL127:
 1109              		.loc 1 287 22 view .LVU199
 1110 0012 82EAE279 		eor	r9, r2, r2, asr #31
 1111 0016 A9EBE279 		sub	r9, r9, r2, asr #31
 1112              		.loc 1 287 37 view .LVU200
 1113 001a 291A     		subs	r1, r5, r0
 1114              	.LVL128:
 1115              		.loc 1 287 37 view .LVU201
 1116 001c 81EAE17A 		eor	r10, r1, r1, asr #31
 1117 0020 AAEBE17A 		sub	r10, r10, r1, asr #31
 1118              	.LVL129:
 288:LCD/st7789.c  ****     if (steep) {
 1119              		.loc 1 288 5 is_stmt 1 view .LVU202
 1120              		.loc 1 288 8 is_stmt 0 view .LVU203
 1121 0024 D145     		cmp	r9, r10
 1122 0026 04DC     		bgt	.L70
 1123 0028 2E46     		mov	r6, r5
 1124 002a 1D46     		mov	r5, r3
 1125              	.LVL130:
 1126              		.loc 1 288 8 view .LVU204
 1127 002c 5B46     		mov	r3, fp
 1128              	.LVL131:
 1129              		.loc 1 288 8 view .LVU205
 1130 002e 8346     		mov	fp, r0
 1131              	.LVL132:
 1132              		.loc 1 288 8 view .LVU206
 1133 0030 1846     		mov	r0, r3
 1134              	.LVL133:
 1135              	.L70:
 289:LCD/st7789.c  **** 		swap = x0;
 290:LCD/st7789.c  **** 		x0 = y0;
 291:LCD/st7789.c  **** 		y0 = swap;
 292:LCD/st7789.c  **** 
 293:LCD/st7789.c  **** 		swap = x1;
 294:LCD/st7789.c  **** 		x1 = y1;
 295:LCD/st7789.c  **** 		y1 = swap;
 296:LCD/st7789.c  ****         //_swap_int16_t(x0, y0);
ARM GAS  C:\usertemp\cchsqz8b.s 			page 28


 297:LCD/st7789.c  ****         //_swap_int16_t(x1, y1);
 298:LCD/st7789.c  ****     }
 299:LCD/st7789.c  **** 
 300:LCD/st7789.c  ****     if (x0 > x1) {
 1136              		.loc 1 300 5 is_stmt 1 view .LVU207
 1137              		.loc 1 300 8 is_stmt 0 view .LVU208
 1138 0032 B345     		cmp	fp, r6
 1139 0034 05D8     		bhi	.L71
 1140 0036 2B46     		mov	r3, r5
 1141 0038 0546     		mov	r5, r0
 1142              	.LVL134:
 1143              		.loc 1 300 8 view .LVU209
 1144 003a 1846     		mov	r0, r3
 1145              	.LVL135:
 1146              		.loc 1 300 8 view .LVU210
 1147 003c 3346     		mov	r3, r6
 1148              	.LVL136:
 1149              		.loc 1 300 8 view .LVU211
 1150 003e 5E46     		mov	r6, fp
 1151              	.LVL137:
 1152              		.loc 1 300 8 view .LVU212
 1153 0040 9B46     		mov	fp, r3
 1154              	.LVL138:
 1155              	.L71:
 301:LCD/st7789.c  **** 		swap = x0;
 302:LCD/st7789.c  **** 		x0 = x1;
 303:LCD/st7789.c  **** 		x1 = swap;
 304:LCD/st7789.c  **** 
 305:LCD/st7789.c  **** 		swap = y0;
 306:LCD/st7789.c  **** 		y0 = y1;
 307:LCD/st7789.c  **** 		y1 = swap;
 308:LCD/st7789.c  ****         //_swap_int16_t(x0, x1);
 309:LCD/st7789.c  ****         //_swap_int16_t(y0, y1);
 310:LCD/st7789.c  ****     }
 311:LCD/st7789.c  **** 
 312:LCD/st7789.c  ****     int16_t dx, dy;
 1156              		.loc 1 312 5 is_stmt 1 view .LVU213
 313:LCD/st7789.c  ****     dx = x1 - x0;
 1157              		.loc 1 313 5 view .LVU214
 1158              		.loc 1 313 13 is_stmt 0 view .LVU215
 1159 0042 ABEB0604 		sub	r4, fp, r6
 1160 0046 A3B2     		uxth	r3, r4
 1161 0048 0093     		str	r3, [sp]
 1162              	.LVL139:
 314:LCD/st7789.c  ****     dy = ABS(y1 - y0);
 1163              		.loc 1 314 5 is_stmt 1 view .LVU216
 1164              		.loc 1 314 10 is_stmt 0 view .LVU217
 1165 004a 471B     		subs	r7, r0, r5
 1166 004c 002F     		cmp	r7, #0
 1167 004e B8BF     		it	lt
 1168 0050 7F42     		rsblt	r7, r7, #0
 1169              	.LVL140:
 315:LCD/st7789.c  **** 
 316:LCD/st7789.c  ****     int16_t err = dx / 2;
 1170              		.loc 1 316 5 is_stmt 1 view .LVU218
 1171              		.loc 1 316 13 is_stmt 0 view .LVU219
 1172 0052 C4F3C033 		ubfx	r3, r4, #15, #1
ARM GAS  C:\usertemp\cchsqz8b.s 			page 29


 1173 0056 03FA84F4 		sxtah	r4, r3, r4
 1174              	.LVL141:
 1175              		.loc 1 316 13 view .LVU220
 1176 005a 6410     		asrs	r4, r4, #1
 1177              	.LVL142:
 317:LCD/st7789.c  ****     int16_t ystep;
 1178              		.loc 1 317 5 is_stmt 1 view .LVU221
 318:LCD/st7789.c  **** 
 319:LCD/st7789.c  ****     if (y0 < y1) {
 1179              		.loc 1 319 5 view .LVU222
 1180              		.loc 1 319 8 is_stmt 0 view .LVU223
 1181 005c 8542     		cmp	r5, r0
 1182 005e 20D3     		bcc	.L72
 320:LCD/st7789.c  ****         ystep = 1;
 321:LCD/st7789.c  ****     } else {
 322:LCD/st7789.c  ****         ystep = -1;
 1183              		.loc 1 322 15 view .LVU224
 1184 0060 4FF0FF33 		mov	r3, #-1
 1185 0064 0193     		str	r3, [sp, #4]
 1186 0066 0BE0     		b	.L77
 1187              	.LVL143:
 1188              	.L74:
 323:LCD/st7789.c  ****     }
 324:LCD/st7789.c  **** 
 325:LCD/st7789.c  ****     for (; x0<=x1; x0++) {
 326:LCD/st7789.c  ****         if (steep) {
 327:LCD/st7789.c  ****             ST7789_DrawPixel(y0, x0, color);
 328:LCD/st7789.c  ****         } else {
 329:LCD/st7789.c  ****             ST7789_DrawPixel(x0, y0, color);
 1189              		.loc 1 329 13 is_stmt 1 view .LVU225
 1190 0068 4246     		mov	r2, r8
 1191 006a 2946     		mov	r1, r5
 1192 006c 3046     		mov	r0, r6
 1193 006e FFF7FEFF 		bl	ST7789_DrawPixel
 1194              	.LVL144:
 1195              	.L75:
 330:LCD/st7789.c  ****         }
 331:LCD/st7789.c  ****         err -= dy;
 1196              		.loc 1 331 9 view .LVU226
 1197              		.loc 1 331 13 is_stmt 0 view .LVU227
 1198 0072 E41B     		subs	r4, r4, r7
 1199              	.LVL145:
 1200              		.loc 1 331 13 view .LVU228
 1201 0074 A3B2     		uxth	r3, r4
 1202 0076 24B2     		sxth	r4, r4
 1203              	.LVL146:
 332:LCD/st7789.c  ****         if (err < 0) {
 1204              		.loc 1 332 9 is_stmt 1 view .LVU229
 1205              		.loc 1 332 12 is_stmt 0 view .LVU230
 1206 0078 002C     		cmp	r4, #0
 1207 007a 0BDB     		blt	.L80
 1208              	.L76:
 325:LCD/st7789.c  ****         if (steep) {
 1209              		.loc 1 325 22 is_stmt 1 view .LVU231
 1210 007c 0136     		adds	r6, r6, #1
 1211              	.LVL147:
 325:LCD/st7789.c  ****         if (steep) {
ARM GAS  C:\usertemp\cchsqz8b.s 			page 30


 1212              		.loc 1 325 22 is_stmt 0 view .LVU232
 1213 007e B6B2     		uxth	r6, r6
 1214              	.LVL148:
 1215              	.L77:
 325:LCD/st7789.c  ****         if (steep) {
 1216              		.loc 1 325 14 is_stmt 1 discriminator 1 view .LVU233
 1217 0080 5E45     		cmp	r6, fp
 1218 0082 11D8     		bhi	.L81
 326:LCD/st7789.c  ****             ST7789_DrawPixel(y0, x0, color);
 1219              		.loc 1 326 9 view .LVU234
 326:LCD/st7789.c  ****             ST7789_DrawPixel(y0, x0, color);
 1220              		.loc 1 326 12 is_stmt 0 view .LVU235
 1221 0084 D145     		cmp	r9, r10
 1222 0086 EFDD     		ble	.L74
 327:LCD/st7789.c  ****         } else {
 1223              		.loc 1 327 13 is_stmt 1 view .LVU236
 1224 0088 4246     		mov	r2, r8
 1225 008a 3146     		mov	r1, r6
 1226 008c 2846     		mov	r0, r5
 1227 008e FFF7FEFF 		bl	ST7789_DrawPixel
 1228              	.LVL149:
 1229 0092 EEE7     		b	.L75
 1230              	.L80:
 333:LCD/st7789.c  ****             y0 += ystep;
 1231              		.loc 1 333 13 view .LVU237
 1232              		.loc 1 333 16 is_stmt 0 view .LVU238
 1233 0094 019A     		ldr	r2, [sp, #4]
 1234 0096 1544     		add	r5, r5, r2
 1235              	.LVL150:
 1236              		.loc 1 333 16 view .LVU239
 1237 0098 ADB2     		uxth	r5, r5
 1238              	.LVL151:
 334:LCD/st7789.c  ****             err += dx;
 1239              		.loc 1 334 13 is_stmt 1 view .LVU240
 1240              		.loc 1 334 17 is_stmt 0 view .LVU241
 1241 009a 009A     		ldr	r2, [sp]
 1242 009c 1344     		add	r3, r3, r2
 1243 009e 1CB2     		sxth	r4, r3
 1244              	.LVL152:
 1245              		.loc 1 334 17 view .LVU242
 1246 00a0 ECE7     		b	.L76
 1247              	.LVL153:
 1248              	.L72:
 320:LCD/st7789.c  ****     } else {
 1249              		.loc 1 320 15 view .LVU243
 1250 00a2 0123     		movs	r3, #1
 1251 00a4 0193     		str	r3, [sp, #4]
 1252 00a6 EBE7     		b	.L77
 1253              	.LVL154:
 1254              	.L81:
 335:LCD/st7789.c  ****         }
 336:LCD/st7789.c  ****     }
 337:LCD/st7789.c  **** }
 1255              		.loc 1 337 1 view .LVU244
 1256 00a8 03B0     		add	sp, sp, #12
 1257              	.LCFI32:
 1258              		.cfi_def_cfa_offset 36
ARM GAS  C:\usertemp\cchsqz8b.s 			page 31


 1259              	.LVL155:
 1260              		.loc 1 337 1 view .LVU245
 1261              		@ sp needed
 1262 00aa BDE8F08F 		pop	{r4, r5, r6, r7, r8, r9, r10, fp, pc}
 1263              		.loc 1 337 1 view .LVU246
 1264              		.cfi_endproc
 1265              	.LFE167:
 1267              		.section	.text.ST7789_DrawRectangle,"ax",%progbits
 1268              		.align	1
 1269              		.global	ST7789_DrawRectangle
 1270              		.syntax unified
 1271              		.thumb
 1272              		.thumb_func
 1274              	ST7789_DrawRectangle:
 1275              	.LVL156:
 1276              	.LFB168:
 338:LCD/st7789.c  **** 
 339:LCD/st7789.c  **** /**
 340:LCD/st7789.c  ****  * @brief Draw a Rectangle with single color
 341:LCD/st7789.c  ****  * @param xi&yi -> 2 coordinates of 2 top points.
 342:LCD/st7789.c  ****  * @param color -> color of the Rectangle line
 343:LCD/st7789.c  ****  * @return none
 344:LCD/st7789.c  ****  */
 345:LCD/st7789.c  **** void ST7789_DrawRectangle(uint16_t x1, uint16_t y1, uint16_t x2, uint16_t y2, uint16_t color)
 346:LCD/st7789.c  **** {
 1277              		.loc 1 346 1 is_stmt 1 view -0
 1278              		.cfi_startproc
 1279              		@ args = 4, pretend = 0, frame = 0
 1280              		@ frame_needed = 0, uses_anonymous_args = 0
 1281              		.loc 1 346 1 is_stmt 0 view .LVU248
 1282 0000 2DE9F043 		push	{r4, r5, r6, r7, r8, r9, lr}
 1283              	.LCFI33:
 1284              		.cfi_def_cfa_offset 28
 1285              		.cfi_offset 4, -28
 1286              		.cfi_offset 5, -24
 1287              		.cfi_offset 6, -20
 1288              		.cfi_offset 7, -16
 1289              		.cfi_offset 8, -12
 1290              		.cfi_offset 9, -8
 1291              		.cfi_offset 14, -4
 1292 0004 83B0     		sub	sp, sp, #12
 1293              	.LCFI34:
 1294              		.cfi_def_cfa_offset 40
 1295 0006 0746     		mov	r7, r0
 1296 0008 0D46     		mov	r5, r1
 1297 000a 1446     		mov	r4, r2
 1298 000c 1E46     		mov	r6, r3
 1299 000e BDF82880 		ldrh	r8, [sp, #40]
 347:LCD/st7789.c  **** 	ST7789_Select();
 1300              		.loc 1 347 2 is_stmt 1 view .LVU249
 1301 0012 DFF86090 		ldr	r9, .L84
 1302 0016 0022     		movs	r2, #0
 1303              	.LVL157:
 1304              		.loc 1 347 2 is_stmt 0 view .LVU250
 1305 0018 4FF48061 		mov	r1, #1024
 1306              	.LVL158:
 1307              		.loc 1 347 2 view .LVU251
ARM GAS  C:\usertemp\cchsqz8b.s 			page 32


 1308 001c 4846     		mov	r0, r9
 1309              	.LVL159:
 1310              		.loc 1 347 2 view .LVU252
 1311 001e FFF7FEFF 		bl	HAL_GPIO_WritePin
 1312              	.LVL160:
 348:LCD/st7789.c  **** 	ST7789_DrawLine(x1, y1, x2, y1, color);
 1313              		.loc 1 348 2 is_stmt 1 view .LVU253
 1314 0022 CDF80080 		str	r8, [sp]
 1315 0026 2B46     		mov	r3, r5
 1316 0028 2246     		mov	r2, r4
 1317 002a 2946     		mov	r1, r5
 1318 002c 3846     		mov	r0, r7
 1319 002e FFF7FEFF 		bl	ST7789_DrawLine
 1320              	.LVL161:
 349:LCD/st7789.c  **** 	ST7789_DrawLine(x1, y1, x1, y2, color);
 1321              		.loc 1 349 2 view .LVU254
 1322 0032 CDF80080 		str	r8, [sp]
 1323 0036 3346     		mov	r3, r6
 1324 0038 3A46     		mov	r2, r7
 1325 003a 2946     		mov	r1, r5
 1326 003c 3846     		mov	r0, r7
 1327 003e FFF7FEFF 		bl	ST7789_DrawLine
 1328              	.LVL162:
 350:LCD/st7789.c  **** 	ST7789_DrawLine(x1, y2, x2, y2, color);
 1329              		.loc 1 350 2 view .LVU255
 1330 0042 CDF80080 		str	r8, [sp]
 1331 0046 3346     		mov	r3, r6
 1332 0048 2246     		mov	r2, r4
 1333 004a 3146     		mov	r1, r6
 1334 004c 3846     		mov	r0, r7
 1335 004e FFF7FEFF 		bl	ST7789_DrawLine
 1336              	.LVL163:
 351:LCD/st7789.c  **** 	ST7789_DrawLine(x2, y1, x2, y2, color);
 1337              		.loc 1 351 2 view .LVU256
 1338 0052 CDF80080 		str	r8, [sp]
 1339 0056 3346     		mov	r3, r6
 1340 0058 2246     		mov	r2, r4
 1341 005a 2946     		mov	r1, r5
 1342 005c 2046     		mov	r0, r4
 1343 005e FFF7FEFF 		bl	ST7789_DrawLine
 1344              	.LVL164:
 352:LCD/st7789.c  **** 	ST7789_UnSelect();
 1345              		.loc 1 352 2 view .LVU257
 1346 0062 0122     		movs	r2, #1
 1347 0064 4FF48061 		mov	r1, #1024
 1348 0068 4846     		mov	r0, r9
 1349 006a FFF7FEFF 		bl	HAL_GPIO_WritePin
 1350              	.LVL165:
 353:LCD/st7789.c  **** }
 1351              		.loc 1 353 1 is_stmt 0 view .LVU258
 1352 006e 03B0     		add	sp, sp, #12
 1353              	.LCFI35:
 1354              		.cfi_def_cfa_offset 28
 1355              		@ sp needed
 1356 0070 BDE8F083 		pop	{r4, r5, r6, r7, r8, r9, pc}
 1357              	.LVL166:
 1358              	.L85:
ARM GAS  C:\usertemp\cchsqz8b.s 			page 33


 1359              		.loc 1 353 1 view .LVU259
 1360              		.align	2
 1361              	.L84:
 1362 0074 000C0242 		.word	1107430400
 1363              		.cfi_endproc
 1364              	.LFE168:
 1366              		.section	.text.ST7789_DrawCircle,"ax",%progbits
 1367              		.align	1
 1368              		.global	ST7789_DrawCircle
 1369              		.syntax unified
 1370              		.thumb
 1371              		.thumb_func
 1373              	ST7789_DrawCircle:
 1374              	.LVL167:
 1375              	.LFB169:
 354:LCD/st7789.c  **** 
 355:LCD/st7789.c  **** /** 
 356:LCD/st7789.c  ****  * @brief Draw a circle with single color
 357:LCD/st7789.c  ****  * @param x0&y0 -> coordinate of circle center
 358:LCD/st7789.c  ****  * @param r -> radius of circle
 359:LCD/st7789.c  ****  * @param color -> color of circle line
 360:LCD/st7789.c  ****  * @return  none
 361:LCD/st7789.c  ****  */
 362:LCD/st7789.c  **** void ST7789_DrawCircle(uint16_t x0, uint16_t y0, uint8_t r, uint16_t color)
 363:LCD/st7789.c  **** {
 1376              		.loc 1 363 1 is_stmt 1 view -0
 1377              		.cfi_startproc
 1378              		@ args = 0, pretend = 0, frame = 24
 1379              		@ frame_needed = 0, uses_anonymous_args = 0
 1380              		.loc 1 363 1 is_stmt 0 view .LVU261
 1381 0000 2DE9F04F 		push	{r4, r5, r6, r7, r8, r9, r10, fp, lr}
 1382              	.LCFI36:
 1383              		.cfi_def_cfa_offset 36
 1384              		.cfi_offset 4, -36
 1385              		.cfi_offset 5, -32
 1386              		.cfi_offset 6, -28
 1387              		.cfi_offset 7, -24
 1388              		.cfi_offset 8, -20
 1389              		.cfi_offset 9, -16
 1390              		.cfi_offset 10, -12
 1391              		.cfi_offset 11, -8
 1392              		.cfi_offset 14, -4
 1393 0004 87B0     		sub	sp, sp, #28
 1394              	.LCFI37:
 1395              		.cfi_def_cfa_offset 64
 1396 0006 8346     		mov	fp, r0
 1397 0008 8A46     		mov	r10, r1
 1398 000a 1446     		mov	r4, r2
 1399 000c 1E46     		mov	r6, r3
 364:LCD/st7789.c  **** 	int16_t f = 1 - r;
 1400              		.loc 1 364 2 is_stmt 1 view .LVU262
 1401              		.loc 1 364 10 is_stmt 0 view .LVU263
 1402 000e C2F10109 		rsb	r9, r2, #1
 1403              	.LVL168:
 365:LCD/st7789.c  **** 	int16_t ddF_x = 1;
 1404              		.loc 1 365 2 is_stmt 1 view .LVU264
 366:LCD/st7789.c  **** 	int16_t ddF_y = -2 * r;
ARM GAS  C:\usertemp\cchsqz8b.s 			page 34


 1405              		.loc 1 366 2 view .LVU265
 1406              		.loc 1 366 10 is_stmt 0 view .LVU266
 1407 0012 C2EBC233 		rsb	r3, r2, r2, lsl #15
 1408              	.LVL169:
 1409              		.loc 1 366 10 view .LVU267
 1410 0016 5B00     		lsls	r3, r3, #1
 1411 0018 1BB2     		sxth	r3, r3
 1412 001a 0593     		str	r3, [sp, #20]
 1413              	.LVL170:
 367:LCD/st7789.c  **** 	int16_t x = 0;
 1414              		.loc 1 367 2 is_stmt 1 view .LVU268
 368:LCD/st7789.c  **** 	int16_t y = r;
 1415              		.loc 1 368 2 view .LVU269
 1416              		.loc 1 368 10 is_stmt 0 view .LVU270
 1417 001c 13B2     		sxth	r3, r2
 1418 001e 0193     		str	r3, [sp, #4]
 1419              	.LVL171:
 369:LCD/st7789.c  **** 
 370:LCD/st7789.c  **** 	ST7789_Select();
 1420              		.loc 1 370 2 is_stmt 1 view .LVU271
 1421 0020 0022     		movs	r2, #0
 1422              	.LVL172:
 1423              		.loc 1 370 2 is_stmt 0 view .LVU272
 1424 0022 4FF48061 		mov	r1, #1024
 1425              	.LVL173:
 1426              		.loc 1 370 2 view .LVU273
 1427 0026 4A48     		ldr	r0, .L93
 1428              	.LVL174:
 1429              		.loc 1 370 2 view .LVU274
 1430 0028 FFF7FEFF 		bl	HAL_GPIO_WritePin
 1431              	.LVL175:
 371:LCD/st7789.c  **** 	ST7789_DrawPixel(x0, y0 + r, color);
 1432              		.loc 1 371 2 is_stmt 1 view .LVU275
 1433 002c 04EB0A01 		add	r1, r4, r10
 1434 0030 3246     		mov	r2, r6
 1435 0032 89B2     		uxth	r1, r1
 1436 0034 5846     		mov	r0, fp
 1437 0036 FFF7FEFF 		bl	ST7789_DrawPixel
 1438              	.LVL176:
 372:LCD/st7789.c  **** 	ST7789_DrawPixel(x0, y0 - r, color);
 1439              		.loc 1 372 2 view .LVU276
 1440 003a AAEB0401 		sub	r1, r10, r4
 1441 003e 3246     		mov	r2, r6
 1442 0040 89B2     		uxth	r1, r1
 1443 0042 5846     		mov	r0, fp
 1444 0044 FFF7FEFF 		bl	ST7789_DrawPixel
 1445              	.LVL177:
 373:LCD/st7789.c  **** 	ST7789_DrawPixel(x0 + r, y0, color);
 1446              		.loc 1 373 2 view .LVU277
 1447 0048 04EB0B00 		add	r0, r4, fp
 1448 004c 3246     		mov	r2, r6
 1449 004e 5146     		mov	r1, r10
 1450 0050 80B2     		uxth	r0, r0
 1451 0052 FFF7FEFF 		bl	ST7789_DrawPixel
 1452              	.LVL178:
 374:LCD/st7789.c  **** 	ST7789_DrawPixel(x0 - r, y0, color);
 1453              		.loc 1 374 2 view .LVU278
ARM GAS  C:\usertemp\cchsqz8b.s 			page 35


 1454 0056 ABEB0400 		sub	r0, fp, r4
 1455 005a 3246     		mov	r2, r6
 1456 005c 5146     		mov	r1, r10
 1457 005e 80B2     		uxth	r0, r0
 1458 0060 FFF7FEFF 		bl	ST7789_DrawPixel
 1459              	.LVL179:
 375:LCD/st7789.c  **** 
 376:LCD/st7789.c  **** 	while (x < y) {
 1460              		.loc 1 376 2 view .LVU279
 367:LCD/st7789.c  **** 	int16_t y = r;
 1461              		.loc 1 367 10 is_stmt 0 view .LVU280
 1462 0064 0023     		movs	r3, #0
 1463 0066 0293     		str	r3, [sp, #8]
 365:LCD/st7789.c  **** 	int16_t ddF_y = -2 * r;
 1464              		.loc 1 365 10 view .LVU281
 1465 0068 0123     		movs	r3, #1
 1466 006a 0393     		str	r3, [sp, #12]
 1467              		.loc 1 376 8 view .LVU282
 1468 006c 5EE0     		b	.L87
 1469              	.LVL180:
 1470              	.L92:
 377:LCD/st7789.c  **** 		if (f >= 0) {
 378:LCD/st7789.c  **** 			y--;
 1471              		.loc 1 378 4 is_stmt 1 view .LVU283
 1472              		.loc 1 378 5 is_stmt 0 view .LVU284
 1473 006e 019B     		ldr	r3, [sp, #4]
 1474 0070 013B     		subs	r3, r3, #1
 1475 0072 1BB2     		sxth	r3, r3
 1476 0074 0193     		str	r3, [sp, #4]
 1477              	.LVL181:
 379:LCD/st7789.c  **** 			ddF_y += 2;
 1478              		.loc 1 379 4 is_stmt 1 view .LVU285
 1479              		.loc 1 379 10 is_stmt 0 view .LVU286
 1480 0076 059B     		ldr	r3, [sp, #20]
 1481 0078 0233     		adds	r3, r3, #2
 1482 007a 1AB2     		sxth	r2, r3
 1483 007c 0592     		str	r2, [sp, #20]
 1484              	.LVL182:
 380:LCD/st7789.c  **** 			f += ddF_y;
 1485              		.loc 1 380 4 is_stmt 1 view .LVU287
 1486              		.loc 1 380 6 is_stmt 0 view .LVU288
 1487 007e 19FA83F3 		uxtah	r3, r9, r3
 1488 0082 0FFA83F9 		sxth	r9, r3
 1489              	.LVL183:
 1490              	.L88:
 381:LCD/st7789.c  **** 		}
 382:LCD/st7789.c  **** 		x++;
 1491              		.loc 1 382 3 is_stmt 1 view .LVU289
 1492              		.loc 1 382 4 is_stmt 0 view .LVU290
 1493 0086 029B     		ldr	r3, [sp, #8]
 1494 0088 0133     		adds	r3, r3, #1
 1495 008a 9DB2     		uxth	r5, r3
 1496 008c 1BB2     		sxth	r3, r3
 1497 008e 0293     		str	r3, [sp, #8]
 1498              	.LVL184:
 383:LCD/st7789.c  **** 		ddF_x += 2;
 1499              		.loc 1 383 3 is_stmt 1 view .LVU291
ARM GAS  C:\usertemp\cchsqz8b.s 			page 36


 1500              		.loc 1 383 9 is_stmt 0 view .LVU292
 1501 0090 039B     		ldr	r3, [sp, #12]
 1502 0092 0233     		adds	r3, r3, #2
 1503 0094 1AB2     		sxth	r2, r3
 1504 0096 0392     		str	r2, [sp, #12]
 1505              	.LVL185:
 384:LCD/st7789.c  **** 		f += ddF_x;
 1506              		.loc 1 384 3 is_stmt 1 view .LVU293
 1507              		.loc 1 384 5 is_stmt 0 view .LVU294
 1508 0098 19FA83F3 		uxtah	r3, r9, r3
 1509 009c 0FFA83F9 		sxth	r9, r3
 1510              	.LVL186:
 385:LCD/st7789.c  **** 
 386:LCD/st7789.c  **** 		ST7789_DrawPixel(x0 + x, y0 + y, color);
 1511              		.loc 1 386 3 is_stmt 1 view .LVU295
 1512 00a0 05EB0B03 		add	r3, r5, fp
 1513 00a4 9BB2     		uxth	r3, r3
 1514 00a6 BDF80440 		ldrh	r4, [sp, #4]
 1515 00aa 04EB0A08 		add	r8, r4, r10
 1516 00ae 1FFA88F8 		uxth	r8, r8
 1517 00b2 3246     		mov	r2, r6
 1518 00b4 4146     		mov	r1, r8
 1519 00b6 0493     		str	r3, [sp, #16]
 1520 00b8 1846     		mov	r0, r3
 1521 00ba FFF7FEFF 		bl	ST7789_DrawPixel
 1522              	.LVL187:
 387:LCD/st7789.c  **** 		ST7789_DrawPixel(x0 - x, y0 + y, color);
 1523              		.loc 1 387 3 view .LVU296
 1524 00be ABEB0507 		sub	r7, fp, r5
 1525 00c2 BFB2     		uxth	r7, r7
 1526 00c4 3246     		mov	r2, r6
 1527 00c6 4146     		mov	r1, r8
 1528 00c8 3846     		mov	r0, r7
 1529 00ca FFF7FEFF 		bl	ST7789_DrawPixel
 1530              	.LVL188:
 388:LCD/st7789.c  **** 		ST7789_DrawPixel(x0 + x, y0 - y, color);
 1531              		.loc 1 388 3 view .LVU297
 1532 00ce AAEB0408 		sub	r8, r10, r4
 1533 00d2 1FFA88F8 		uxth	r8, r8
 1534 00d6 3246     		mov	r2, r6
 1535 00d8 4146     		mov	r1, r8
 1536 00da 0498     		ldr	r0, [sp, #16]
 1537 00dc FFF7FEFF 		bl	ST7789_DrawPixel
 1538              	.LVL189:
 389:LCD/st7789.c  **** 		ST7789_DrawPixel(x0 - x, y0 - y, color);
 1539              		.loc 1 389 3 view .LVU298
 1540 00e0 3246     		mov	r2, r6
 1541 00e2 4146     		mov	r1, r8
 1542 00e4 3846     		mov	r0, r7
 1543 00e6 FFF7FEFF 		bl	ST7789_DrawPixel
 1544              	.LVL190:
 390:LCD/st7789.c  **** 
 391:LCD/st7789.c  **** 		ST7789_DrawPixel(x0 + y, y0 + x, color);
 1545              		.loc 1 391 3 view .LVU299
 1546 00ea 04EB0B07 		add	r7, r4, fp
 1547 00ee BFB2     		uxth	r7, r7
 1548 00f0 05EB0A08 		add	r8, r5, r10
ARM GAS  C:\usertemp\cchsqz8b.s 			page 37


 1549 00f4 1FFA88F8 		uxth	r8, r8
 1550 00f8 3246     		mov	r2, r6
 1551 00fa 4146     		mov	r1, r8
 1552 00fc 3846     		mov	r0, r7
 1553 00fe FFF7FEFF 		bl	ST7789_DrawPixel
 1554              	.LVL191:
 392:LCD/st7789.c  **** 		ST7789_DrawPixel(x0 - y, y0 + x, color);
 1555              		.loc 1 392 3 view .LVU300
 1556 0102 ABEB0404 		sub	r4, fp, r4
 1557 0106 A4B2     		uxth	r4, r4
 1558 0108 3246     		mov	r2, r6
 1559 010a 4146     		mov	r1, r8
 1560 010c 2046     		mov	r0, r4
 1561 010e FFF7FEFF 		bl	ST7789_DrawPixel
 1562              	.LVL192:
 393:LCD/st7789.c  **** 		ST7789_DrawPixel(x0 + y, y0 - x, color);
 1563              		.loc 1 393 3 view .LVU301
 1564 0112 AAEB0505 		sub	r5, r10, r5
 1565 0116 ADB2     		uxth	r5, r5
 1566 0118 3246     		mov	r2, r6
 1567 011a 2946     		mov	r1, r5
 1568 011c 3846     		mov	r0, r7
 1569 011e FFF7FEFF 		bl	ST7789_DrawPixel
 1570              	.LVL193:
 394:LCD/st7789.c  **** 		ST7789_DrawPixel(x0 - y, y0 - x, color);
 1571              		.loc 1 394 3 view .LVU302
 1572 0122 3246     		mov	r2, r6
 1573 0124 2946     		mov	r1, r5
 1574 0126 2046     		mov	r0, r4
 1575 0128 FFF7FEFF 		bl	ST7789_DrawPixel
 1576              	.LVL194:
 1577              	.L87:
 376:LCD/st7789.c  **** 		if (f >= 0) {
 1578              		.loc 1 376 11 view .LVU303
 1579 012c 029B     		ldr	r3, [sp, #8]
 1580 012e 019A     		ldr	r2, [sp, #4]
 1581 0130 9342     		cmp	r3, r2
 1582 0132 03DA     		bge	.L91
 377:LCD/st7789.c  **** 			y--;
 1583              		.loc 1 377 3 view .LVU304
 377:LCD/st7789.c  **** 			y--;
 1584              		.loc 1 377 6 is_stmt 0 view .LVU305
 1585 0134 B9F1000F 		cmp	r9, #0
 1586 0138 99DA     		bge	.L92
 1587 013a A4E7     		b	.L88
 1588              	.L91:
 395:LCD/st7789.c  **** 	}
 396:LCD/st7789.c  **** 	ST7789_UnSelect();
 1589              		.loc 1 396 2 is_stmt 1 view .LVU306
 1590 013c 0122     		movs	r2, #1
 1591 013e 4FF48061 		mov	r1, #1024
 1592 0142 0348     		ldr	r0, .L93
 1593 0144 FFF7FEFF 		bl	HAL_GPIO_WritePin
 1594              	.LVL195:
 397:LCD/st7789.c  **** }
 1595              		.loc 1 397 1 is_stmt 0 view .LVU307
 1596 0148 07B0     		add	sp, sp, #28
ARM GAS  C:\usertemp\cchsqz8b.s 			page 38


 1597              	.LCFI38:
 1598              		.cfi_def_cfa_offset 36
 1599              		@ sp needed
 1600 014a BDE8F08F 		pop	{r4, r5, r6, r7, r8, r9, r10, fp, pc}
 1601              	.LVL196:
 1602              	.L94:
 1603              		.loc 1 397 1 view .LVU308
 1604 014e 00BF     		.align	2
 1605              	.L93:
 1606 0150 000C0242 		.word	1107430400
 1607              		.cfi_endproc
 1608              	.LFE169:
 1610              		.section	.text.ST7789_DrawImage,"ax",%progbits
 1611              		.align	1
 1612              		.global	ST7789_DrawImage
 1613              		.syntax unified
 1614              		.thumb
 1615              		.thumb_func
 1617              	ST7789_DrawImage:
 1618              	.LVL197:
 1619              	.LFB170:
 398:LCD/st7789.c  **** 
 399:LCD/st7789.c  **** /**
 400:LCD/st7789.c  ****  * @brief Draw an Image on the screen
 401:LCD/st7789.c  ****  * @param x&y -> start point of the Image
 402:LCD/st7789.c  ****  * @param w&h -> width & height of the Image to Draw
 403:LCD/st7789.c  ****  * @param data -> pointer of the Image array
 404:LCD/st7789.c  ****  * @return none
 405:LCD/st7789.c  ****  */
 406:LCD/st7789.c  **** void ST7789_DrawImage(uint16_t x, uint16_t y, uint16_t w, uint16_t h, const uint16_t *data)
 407:LCD/st7789.c  **** {
 1620              		.loc 1 407 1 is_stmt 1 view -0
 1621              		.cfi_startproc
 1622              		@ args = 4, pretend = 0, frame = 0
 1623              		@ frame_needed = 0, uses_anonymous_args = 0
 408:LCD/st7789.c  **** 	if ((x >= ST7789_WIDTH) || (y >= ST7789_HEIGHT))
 1624              		.loc 1 408 2 view .LVU310
 1625              		.loc 1 408 5 is_stmt 0 view .LVU311
 1626 0000 EF28     		cmp	r0, #239
 1627 0002 32D8     		bhi	.L98
 407:LCD/st7789.c  **** 	if ((x >= ST7789_WIDTH) || (y >= ST7789_HEIGHT))
 1628              		.loc 1 407 1 view .LVU312
 1629 0004 2DE9F041 		push	{r4, r5, r6, r7, r8, lr}
 1630              	.LCFI39:
 1631              		.cfi_def_cfa_offset 24
 1632              		.cfi_offset 4, -24
 1633              		.cfi_offset 5, -20
 1634              		.cfi_offset 6, -16
 1635              		.cfi_offset 7, -12
 1636              		.cfi_offset 8, -8
 1637              		.cfi_offset 14, -4
 1638 0008 0446     		mov	r4, r0
 1639 000a 0D46     		mov	r5, r1
 1640 000c 1746     		mov	r7, r2
 1641 000e 1E46     		mov	r6, r3
 1642              		.loc 1 408 26 discriminator 1 view .LVU313
 1643 0010 B1F5A07F 		cmp	r1, #320
ARM GAS  C:\usertemp\cchsqz8b.s 			page 39


 1644 0014 06D2     		bcs	.L95
 409:LCD/st7789.c  **** 		return;
 410:LCD/st7789.c  **** 	if ((x + w - 1) >= ST7789_WIDTH)
 1645              		.loc 1 410 2 is_stmt 1 view .LVU314
 1646              		.loc 1 410 9 is_stmt 0 view .LVU315
 1647 0016 8318     		adds	r3, r0, r2
 1648              	.LVL198:
 1649              		.loc 1 410 5 view .LVU316
 1650 0018 F02B     		cmp	r3, #240
 1651 001a 03DC     		bgt	.L95
 411:LCD/st7789.c  **** 		return;
 412:LCD/st7789.c  **** 	if ((y + h - 1) >= ST7789_HEIGHT)
 1652              		.loc 1 412 2 is_stmt 1 view .LVU317
 1653              		.loc 1 412 9 is_stmt 0 view .LVU318
 1654 001c 8B19     		adds	r3, r1, r6
 1655              		.loc 1 412 5 view .LVU319
 1656 001e B3F5A07F 		cmp	r3, #320
 1657 0022 01DD     		ble	.L101
 1658              	.LVL199:
 1659              	.L95:
 413:LCD/st7789.c  **** 		return;
 414:LCD/st7789.c  **** 
 415:LCD/st7789.c  **** 	ST7789_Select();
 416:LCD/st7789.c  **** 	ST7789_SetAddressWindow(x, y, x + w - 1, y + h - 1);
 417:LCD/st7789.c  **** 	ST7789_WriteData((uint8_t *)data, sizeof(uint16_t) * w * h);
 418:LCD/st7789.c  **** 	ST7789_UnSelect();
 419:LCD/st7789.c  **** }
 1660              		.loc 1 419 1 view .LVU320
 1661 0024 BDE8F081 		pop	{r4, r5, r6, r7, r8, pc}
 1662              	.LVL200:
 1663              	.L101:
 415:LCD/st7789.c  **** 	ST7789_SetAddressWindow(x, y, x + w - 1, y + h - 1);
 1664              		.loc 1 415 2 is_stmt 1 view .LVU321
 1665 0028 DFF84080 		ldr	r8, .L102
 1666 002c 0022     		movs	r2, #0
 1667              	.LVL201:
 415:LCD/st7789.c  **** 	ST7789_SetAddressWindow(x, y, x + w - 1, y + h - 1);
 1668              		.loc 1 415 2 is_stmt 0 view .LVU322
 1669 002e 4FF48061 		mov	r1, #1024
 1670              	.LVL202:
 415:LCD/st7789.c  **** 	ST7789_SetAddressWindow(x, y, x + w - 1, y + h - 1);
 1671              		.loc 1 415 2 view .LVU323
 1672 0032 4046     		mov	r0, r8
 1673              	.LVL203:
 415:LCD/st7789.c  **** 	ST7789_SetAddressWindow(x, y, x + w - 1, y + h - 1);
 1674              		.loc 1 415 2 view .LVU324
 1675 0034 FFF7FEFF 		bl	HAL_GPIO_WritePin
 1676              	.LVL204:
 416:LCD/st7789.c  **** 	ST7789_WriteData((uint8_t *)data, sizeof(uint16_t) * w * h);
 1677              		.loc 1 416 2 is_stmt 1 view .LVU325
 416:LCD/st7789.c  **** 	ST7789_WriteData((uint8_t *)data, sizeof(uint16_t) * w * h);
 1678              		.loc 1 416 34 is_stmt 0 view .LVU326
 1679 0038 E219     		adds	r2, r4, r7
 1680 003a 92B2     		uxth	r2, r2
 416:LCD/st7789.c  **** 	ST7789_WriteData((uint8_t *)data, sizeof(uint16_t) * w * h);
 1681              		.loc 1 416 45 view .LVU327
 1682 003c AB19     		adds	r3, r5, r6
ARM GAS  C:\usertemp\cchsqz8b.s 			page 40


 1683 003e 9BB2     		uxth	r3, r3
 416:LCD/st7789.c  **** 	ST7789_WriteData((uint8_t *)data, sizeof(uint16_t) * w * h);
 1684              		.loc 1 416 2 view .LVU328
 1685 0040 013B     		subs	r3, r3, #1
 1686 0042 013A     		subs	r2, r2, #1
 1687 0044 9BB2     		uxth	r3, r3
 1688 0046 92B2     		uxth	r2, r2
 1689 0048 2946     		mov	r1, r5
 1690 004a 2046     		mov	r0, r4
 1691 004c FFF7FEFF 		bl	ST7789_SetAddressWindow
 1692              	.LVL205:
 417:LCD/st7789.c  **** 	ST7789_UnSelect();
 1693              		.loc 1 417 2 is_stmt 1 view .LVU329
 417:LCD/st7789.c  **** 	ST7789_UnSelect();
 1694              		.loc 1 417 57 is_stmt 0 view .LVU330
 1695 0050 06FB07F1 		mul	r1, r6, r7
 417:LCD/st7789.c  **** 	ST7789_UnSelect();
 1696              		.loc 1 417 2 view .LVU331
 1697 0054 4900     		lsls	r1, r1, #1
 1698 0056 0698     		ldr	r0, [sp, #24]
 1699 0058 FFF7FEFF 		bl	ST7789_WriteData
 1700              	.LVL206:
 418:LCD/st7789.c  **** }
 1701              		.loc 1 418 2 is_stmt 1 view .LVU332
 1702 005c 0122     		movs	r2, #1
 1703 005e 4FF48061 		mov	r1, #1024
 1704 0062 4046     		mov	r0, r8
 1705 0064 FFF7FEFF 		bl	HAL_GPIO_WritePin
 1706              	.LVL207:
 1707 0068 DCE7     		b	.L95
 1708              	.LVL208:
 1709              	.L98:
 1710              	.LCFI40:
 1711              		.cfi_def_cfa_offset 0
 1712              		.cfi_restore 4
 1713              		.cfi_restore 5
 1714              		.cfi_restore 6
 1715              		.cfi_restore 7
 1716              		.cfi_restore 8
 1717              		.cfi_restore 14
 418:LCD/st7789.c  **** }
 1718              		.loc 1 418 2 is_stmt 0 view .LVU333
 1719 006a 7047     		bx	lr
 1720              	.L103:
 1721              		.align	2
 1722              	.L102:
 1723 006c 000C0242 		.word	1107430400
 1724              		.cfi_endproc
 1725              	.LFE170:
 1727              		.section	.text.ST7789_InvertColors,"ax",%progbits
 1728              		.align	1
 1729              		.global	ST7789_InvertColors
 1730              		.syntax unified
 1731              		.thumb
 1732              		.thumb_func
 1734              	ST7789_InvertColors:
 1735              	.LVL209:
ARM GAS  C:\usertemp\cchsqz8b.s 			page 41


 1736              	.LFB171:
 420:LCD/st7789.c  **** 
 421:LCD/st7789.c  **** /**
 422:LCD/st7789.c  ****  * @brief Invert Fullscreen color
 423:LCD/st7789.c  ****  * @param invert -> Whether to invert
 424:LCD/st7789.c  ****  * @return none
 425:LCD/st7789.c  ****  */
 426:LCD/st7789.c  **** void ST7789_InvertColors(uint8_t invert)
 427:LCD/st7789.c  **** {
 1737              		.loc 1 427 1 is_stmt 1 view -0
 1738              		.cfi_startproc
 1739              		@ args = 0, pretend = 0, frame = 0
 1740              		@ frame_needed = 0, uses_anonymous_args = 0
 1741              		.loc 1 427 1 is_stmt 0 view .LVU335
 1742 0000 10B5     		push	{r4, lr}
 1743              	.LCFI41:
 1744              		.cfi_def_cfa_offset 8
 1745              		.cfi_offset 4, -8
 1746              		.cfi_offset 14, -4
 1747 0002 0446     		mov	r4, r0
 428:LCD/st7789.c  **** 	ST7789_Select();
 1748              		.loc 1 428 2 is_stmt 1 view .LVU336
 1749 0004 0022     		movs	r2, #0
 1750 0006 4FF48061 		mov	r1, #1024
 1751 000a 0848     		ldr	r0, .L108
 1752              	.LVL210:
 1753              		.loc 1 428 2 is_stmt 0 view .LVU337
 1754 000c FFF7FEFF 		bl	HAL_GPIO_WritePin
 1755              	.LVL211:
 429:LCD/st7789.c  **** 	ST7789_WriteCommand(invert ? 0x21 /* INVON */ : 0x20 /* INVOFF */);
 1756              		.loc 1 429 2 is_stmt 1 view .LVU338
 1757 0010 4CB1     		cbz	r4, .L106
 1758              		.loc 1 429 2 is_stmt 0 discriminator 1 view .LVU339
 1759 0012 2120     		movs	r0, #33
 1760              	.L105:
 1761              		.loc 1 429 2 discriminator 4 view .LVU340
 1762 0014 FFF7FEFF 		bl	ST7789_WriteCommand
 1763              	.LVL212:
 430:LCD/st7789.c  **** 	ST7789_UnSelect();
 1764              		.loc 1 430 2 is_stmt 1 view .LVU341
 1765 0018 0122     		movs	r2, #1
 1766 001a 4FF48061 		mov	r1, #1024
 1767 001e 0348     		ldr	r0, .L108
 1768 0020 FFF7FEFF 		bl	HAL_GPIO_WritePin
 1769              	.LVL213:
 431:LCD/st7789.c  **** }
 1770              		.loc 1 431 1 is_stmt 0 view .LVU342
 1771 0024 10BD     		pop	{r4, pc}
 1772              	.LVL214:
 1773              	.L106:
 429:LCD/st7789.c  **** 	ST7789_WriteCommand(invert ? 0x21 /* INVON */ : 0x20 /* INVOFF */);
 1774              		.loc 1 429 2 discriminator 2 view .LVU343
 1775 0026 2020     		movs	r0, #32
 1776 0028 F4E7     		b	.L105
 1777              	.L109:
 1778 002a 00BF     		.align	2
 1779              	.L108:
ARM GAS  C:\usertemp\cchsqz8b.s 			page 42


 1780 002c 000C0242 		.word	1107430400
 1781              		.cfi_endproc
 1782              	.LFE171:
 1784              		.section	.text.ST7789_WriteChar,"ax",%progbits
 1785              		.align	1
 1786              		.global	ST7789_WriteChar
 1787              		.syntax unified
 1788              		.thumb
 1789              		.thumb_func
 1791              	ST7789_WriteChar:
 1792              	.LVL215:
 1793              	.LFB172:
 432:LCD/st7789.c  **** 
 433:LCD/st7789.c  **** /** 
 434:LCD/st7789.c  ****  * @brief Write a char
 435:LCD/st7789.c  ****  * @param  x&y -> cursor of the start point.
 436:LCD/st7789.c  ****  * @param ch -> char to write
 437:LCD/st7789.c  ****  * @param font -> fontstyle of the string
 438:LCD/st7789.c  ****  * @param color -> color of the char
 439:LCD/st7789.c  ****  * @param bgcolor -> background color of the char
 440:LCD/st7789.c  ****  * @return  none
 441:LCD/st7789.c  ****  */
 442:LCD/st7789.c  **** void ST7789_WriteChar(uint16_t x, uint16_t y, char ch, FontDef font, uint16_t color, uint16_t bgcol
 443:LCD/st7789.c  **** {
 1794              		.loc 1 443 1 is_stmt 1 view -0
 1795              		.cfi_startproc
 1796              		@ args = 20, pretend = 8, frame = 8
 1797              		@ frame_needed = 0, uses_anonymous_args = 0
 1798              		.loc 1 443 1 is_stmt 0 view .LVU345
 1799 0000 82B0     		sub	sp, sp, #8
 1800              	.LCFI42:
 1801              		.cfi_def_cfa_offset 8
 1802 0002 2DE9F04F 		push	{r4, r5, r6, r7, r8, r9, r10, fp, lr}
 1803              	.LCFI43:
 1804              		.cfi_def_cfa_offset 44
 1805              		.cfi_offset 4, -44
 1806              		.cfi_offset 5, -40
 1807              		.cfi_offset 6, -36
 1808              		.cfi_offset 7, -32
 1809              		.cfi_offset 8, -28
 1810              		.cfi_offset 9, -24
 1811              		.cfi_offset 10, -20
 1812              		.cfi_offset 11, -16
 1813              		.cfi_offset 14, -12
 1814 0006 83B0     		sub	sp, sp, #12
 1815              	.LCFI44:
 1816              		.cfi_def_cfa_offset 56
 1817 0008 0446     		mov	r4, r0
 1818 000a 0E46     		mov	r6, r1
 1819 000c 9346     		mov	fp, r2
 1820 000e 0D93     		str	r3, [sp, #52]
 1821 0010 BDF83C80 		ldrh	r8, [sp, #60]
 1822 0014 BDF84070 		ldrh	r7, [sp, #64]
 444:LCD/st7789.c  **** 	uint32_t i, b, j;
 1823              		.loc 1 444 2 is_stmt 1 view .LVU346
 445:LCD/st7789.c  **** 	ST7789_Select();
 1824              		.loc 1 445 2 view .LVU347
ARM GAS  C:\usertemp\cchsqz8b.s 			page 43


 1825 0018 0022     		movs	r2, #0
 1826              	.LVL216:
 1827              		.loc 1 445 2 is_stmt 0 view .LVU348
 1828 001a 4FF48061 		mov	r1, #1024
 1829              	.LVL217:
 1830              		.loc 1 445 2 view .LVU349
 1831 001e 2548     		ldr	r0, .L120
 1832              	.LVL218:
 1833              		.loc 1 445 2 view .LVU350
 1834 0020 FFF7FEFF 		bl	HAL_GPIO_WritePin
 1835              	.LVL219:
 446:LCD/st7789.c  **** 	ST7789_SetAddressWindow(x, y, x + font.width - 1, y + font.height - 1);
 1836              		.loc 1 446 2 is_stmt 1 view .LVU351
 1837              		.loc 1 446 40 is_stmt 0 view .LVU352
 1838 0024 9DF83450 		ldrb	r5, [sp, #52]	@ zero_extendqisi2
 1839              		.loc 1 446 34 view .LVU353
 1840 0028 2A19     		adds	r2, r5, r4
 1841 002a 92B2     		uxth	r2, r2
 1842              		.loc 1 446 60 view .LVU354
 1843 002c 9DF835A0 		ldrb	r10, [sp, #53]	@ zero_extendqisi2
 1844              		.loc 1 446 54 view .LVU355
 1845 0030 0AEB0603 		add	r3, r10, r6
 1846 0034 9BB2     		uxth	r3, r3
 1847              		.loc 1 446 2 view .LVU356
 1848 0036 013B     		subs	r3, r3, #1
 1849 0038 013A     		subs	r2, r2, #1
 1850 003a 9BB2     		uxth	r3, r3
 1851 003c 92B2     		uxth	r2, r2
 1852 003e 3146     		mov	r1, r6
 1853 0040 2046     		mov	r0, r4
 1854 0042 FFF7FEFF 		bl	ST7789_SetAddressWindow
 1855              	.LVL220:
 447:LCD/st7789.c  **** 
 448:LCD/st7789.c  **** 	for (i = 0; i < font.height; i++) {
 1856              		.loc 1 448 2 is_stmt 1 view .LVU357
 1857              		.loc 1 448 9 is_stmt 0 view .LVU358
 1858 0046 4FF00009 		mov	r9, #0
 1859              		.loc 1 448 2 view .LVU359
 1860 004a 1DE0     		b	.L111
 1861              	.LVL221:
 1862              	.L113:
 1863              	.LBB10:
 449:LCD/st7789.c  **** 		b = font.data[(ch - 32) * font.height + i];
 450:LCD/st7789.c  **** 		for (j = 0; j < font.width; j++) {
 451:LCD/st7789.c  **** 			if ((b << j) & 0x8000) {
 452:LCD/st7789.c  **** 				uint8_t data[] = {color >> 8, color & 0xFF};
 453:LCD/st7789.c  **** 				ST7789_WriteData(data, sizeof(data));
 454:LCD/st7789.c  **** 			}
 455:LCD/st7789.c  **** 			else {
 456:LCD/st7789.c  **** 				uint8_t data[] = {bgcolor >> 8, bgcolor & 0xFF};
 1864              		.loc 1 456 5 is_stmt 1 view .LVU360
 1865              		.loc 1 456 13 is_stmt 0 view .LVU361
 1866 004c 3B0A     		lsrs	r3, r7, #8
 1867 004e 8DF80430 		strb	r3, [sp, #4]
 1868 0052 8DF80570 		strb	r7, [sp, #5]
 457:LCD/st7789.c  **** 				ST7789_WriteData(data, sizeof(data));
 1869              		.loc 1 457 5 is_stmt 1 view .LVU362
ARM GAS  C:\usertemp\cchsqz8b.s 			page 44


 1870 0056 0221     		movs	r1, #2
 1871 0058 01A8     		add	r0, sp, #4
 1872 005a FFF7FEFF 		bl	ST7789_WriteData
 1873              	.LVL222:
 1874              	.L114:
 1875              		.loc 1 457 5 is_stmt 0 view .LVU363
 1876              	.LBE10:
 450:LCD/st7789.c  **** 			if ((b << j) & 0x8000) {
 1877              		.loc 1 450 32 is_stmt 1 discriminator 2 view .LVU364
 1878 005e 0134     		adds	r4, r4, #1
 1879              	.LVL223:
 1880              	.L112:
 450:LCD/st7789.c  **** 			if ((b << j) & 0x8000) {
 1881              		.loc 1 450 17 discriminator 1 view .LVU365
 1882 0060 A542     		cmp	r5, r4
 1883 0062 0FD9     		bls	.L118
 451:LCD/st7789.c  **** 				uint8_t data[] = {color >> 8, color & 0xFF};
 1884              		.loc 1 451 4 view .LVU366
 451:LCD/st7789.c  **** 				uint8_t data[] = {color >> 8, color & 0xFF};
 1885              		.loc 1 451 11 is_stmt 0 view .LVU367
 1886 0064 06FA04F3 		lsl	r3, r6, r4
 451:LCD/st7789.c  **** 				uint8_t data[] = {color >> 8, color & 0xFF};
 1887              		.loc 1 451 7 view .LVU368
 1888 0068 13F4004F 		tst	r3, #32768
 1889 006c EED0     		beq	.L113
 1890              	.LBB11:
 452:LCD/st7789.c  **** 				ST7789_WriteData(data, sizeof(data));
 1891              		.loc 1 452 5 is_stmt 1 view .LVU369
 452:LCD/st7789.c  **** 				ST7789_WriteData(data, sizeof(data));
 1892              		.loc 1 452 13 is_stmt 0 view .LVU370
 1893 006e 4FEA1823 		lsr	r3, r8, #8
 1894 0072 8DF80430 		strb	r3, [sp, #4]
 1895 0076 8DF80580 		strb	r8, [sp, #5]
 453:LCD/st7789.c  **** 			}
 1896              		.loc 1 453 5 is_stmt 1 view .LVU371
 1897 007a 0221     		movs	r1, #2
 1898 007c 01A8     		add	r0, sp, #4
 1899 007e FFF7FEFF 		bl	ST7789_WriteData
 1900              	.LVL224:
 1901              	.LBE11:
 1902 0082 ECE7     		b	.L114
 1903              	.L118:
 448:LCD/st7789.c  **** 		b = font.data[(ch - 32) * font.height + i];
 1904              		.loc 1 448 32 discriminator 2 view .LVU372
 1905 0084 09F10109 		add	r9, r9, #1
 1906              	.LVL225:
 1907              	.L111:
 448:LCD/st7789.c  **** 		b = font.data[(ch - 32) * font.height + i];
 1908              		.loc 1 448 16 discriminator 1 view .LVU373
 1909 0088 CA45     		cmp	r10, r9
 1910 008a 08D9     		bls	.L119
 449:LCD/st7789.c  **** 		for (j = 0; j < font.width; j++) {
 1911              		.loc 1 449 3 view .LVU374
 449:LCD/st7789.c  **** 		for (j = 0; j < font.width; j++) {
 1912              		.loc 1 449 21 is_stmt 0 view .LVU375
 1913 008c ABF12003 		sub	r3, fp, #32
 449:LCD/st7789.c  **** 		for (j = 0; j < font.width; j++) {
ARM GAS  C:\usertemp\cchsqz8b.s 			page 45


 1914              		.loc 1 449 41 view .LVU376
 1915 0090 0AFB0393 		mla	r3, r10, r3, r9
 449:LCD/st7789.c  **** 		for (j = 0; j < font.width; j++) {
 1916              		.loc 1 449 16 view .LVU377
 1917 0094 0E9A     		ldr	r2, [sp, #56]
 1918 0096 32F81360 		ldrh	r6, [r2, r3, lsl #1]
 1919              	.LVL226:
 450:LCD/st7789.c  **** 			if ((b << j) & 0x8000) {
 1920              		.loc 1 450 3 is_stmt 1 view .LVU378
 450:LCD/st7789.c  **** 			if ((b << j) & 0x8000) {
 1921              		.loc 1 450 10 is_stmt 0 view .LVU379
 1922 009a 0024     		movs	r4, #0
 450:LCD/st7789.c  **** 			if ((b << j) & 0x8000) {
 1923              		.loc 1 450 3 view .LVU380
 1924 009c E0E7     		b	.L112
 1925              	.LVL227:
 1926              	.L119:
 458:LCD/st7789.c  **** 			}
 459:LCD/st7789.c  **** 		}
 460:LCD/st7789.c  **** 	}
 461:LCD/st7789.c  **** 	ST7789_UnSelect();
 1927              		.loc 1 461 2 is_stmt 1 view .LVU381
 1928 009e 0122     		movs	r2, #1
 1929 00a0 4FF48061 		mov	r1, #1024
 1930 00a4 0348     		ldr	r0, .L120
 1931 00a6 FFF7FEFF 		bl	HAL_GPIO_WritePin
 1932              	.LVL228:
 462:LCD/st7789.c  **** }
 1933              		.loc 1 462 1 is_stmt 0 view .LVU382
 1934 00aa 03B0     		add	sp, sp, #12
 1935              	.LCFI45:
 1936              		.cfi_def_cfa_offset 44
 1937              		@ sp needed
 1938 00ac BDE8F04F 		pop	{r4, r5, r6, r7, r8, r9, r10, fp, lr}
 1939              	.LCFI46:
 1940              		.cfi_restore 14
 1941              		.cfi_restore 11
 1942              		.cfi_restore 10
 1943              		.cfi_restore 9
 1944              		.cfi_restore 8
 1945              		.cfi_restore 7
 1946              		.cfi_restore 6
 1947              		.cfi_restore 5
 1948              		.cfi_restore 4
 1949              		.cfi_def_cfa_offset 8
 1950              	.LVL229:
 1951              		.loc 1 462 1 view .LVU383
 1952 00b0 02B0     		add	sp, sp, #8
 1953              	.LCFI47:
 1954              		.cfi_def_cfa_offset 0
 1955 00b2 7047     		bx	lr
 1956              	.L121:
 1957              		.align	2
 1958              	.L120:
 1959 00b4 000C0242 		.word	1107430400
 1960              		.cfi_endproc
 1961              	.LFE172:
ARM GAS  C:\usertemp\cchsqz8b.s 			page 46


 1963              		.section	.text.ST7789_WriteString,"ax",%progbits
 1964              		.align	1
 1965              		.global	ST7789_WriteString
 1966              		.syntax unified
 1967              		.thumb
 1968              		.thumb_func
 1970              	ST7789_WriteString:
 1971              	.LVL230:
 1972              	.LFB173:
 463:LCD/st7789.c  **** 
 464:LCD/st7789.c  **** /** 
 465:LCD/st7789.c  ****  * @brief Write a string 
 466:LCD/st7789.c  ****  * @param  x&y -> cursor of the start point.
 467:LCD/st7789.c  ****  * @param str -> string to write
 468:LCD/st7789.c  ****  * @param font -> fontstyle of the string
 469:LCD/st7789.c  ****  * @param color -> color of the string
 470:LCD/st7789.c  ****  * @param bgcolor -> background color of the string
 471:LCD/st7789.c  ****  * @return  none
 472:LCD/st7789.c  ****  */
 473:LCD/st7789.c  **** void ST7789_WriteString(uint16_t x, uint16_t y, const char *str, FontDef font, uint16_t color, uint
 474:LCD/st7789.c  **** {
 1973              		.loc 1 474 1 is_stmt 1 view -0
 1974              		.cfi_startproc
 1975              		@ args = 20, pretend = 8, frame = 0
 1976              		@ frame_needed = 0, uses_anonymous_args = 0
 1977              		.loc 1 474 1 is_stmt 0 view .LVU385
 1978 0000 82B0     		sub	sp, sp, #8
 1979              	.LCFI48:
 1980              		.cfi_def_cfa_offset 8
 1981 0002 2DE9F043 		push	{r4, r5, r6, r7, r8, r9, lr}
 1982              	.LCFI49:
 1983              		.cfi_def_cfa_offset 36
 1984              		.cfi_offset 4, -36
 1985              		.cfi_offset 5, -32
 1986              		.cfi_offset 6, -28
 1987              		.cfi_offset 7, -24
 1988              		.cfi_offset 8, -20
 1989              		.cfi_offset 9, -16
 1990              		.cfi_offset 14, -12
 1991 0006 85B0     		sub	sp, sp, #20
 1992              	.LCFI50:
 1993              		.cfi_def_cfa_offset 56
 1994 0008 0646     		mov	r6, r0
 1995 000a 0D46     		mov	r5, r1
 1996 000c 1746     		mov	r7, r2
 1997 000e 0D93     		str	r3, [sp, #52]
 1998 0010 BDF83C90 		ldrh	r9, [sp, #60]
 1999 0014 BDF84080 		ldrh	r8, [sp, #64]
 475:LCD/st7789.c  **** 	ST7789_Select();
 2000              		.loc 1 475 2 is_stmt 1 view .LVU386
 2001 0018 0022     		movs	r2, #0
 2002              	.LVL231:
 2003              		.loc 1 475 2 is_stmt 0 view .LVU387
 2004 001a 4FF48061 		mov	r1, #1024
 2005              	.LVL232:
 2006              		.loc 1 475 2 view .LVU388
 2007 001e 1948     		ldr	r0, .L131
ARM GAS  C:\usertemp\cchsqz8b.s 			page 47


 2008              	.LVL233:
 2009              		.loc 1 475 2 view .LVU389
 2010 0020 FFF7FEFF 		bl	HAL_GPIO_WritePin
 2011              	.LVL234:
 476:LCD/st7789.c  **** 	while (*str) {
 2012              		.loc 1 476 2 is_stmt 1 view .LVU390
 2013              		.loc 1 476 8 is_stmt 0 view .LVU391
 2014 0024 10E0     		b	.L123
 2015              	.LVL235:
 2016              	.L130:
 477:LCD/st7789.c  **** 		if (x + font.width >= ST7789_WIDTH) {
 478:LCD/st7789.c  **** 			x = 0;
 479:LCD/st7789.c  **** 			y += font.height;
 480:LCD/st7789.c  **** 			if (y + font.height >= ST7789_HEIGHT) {
 481:LCD/st7789.c  **** 				break;
 482:LCD/st7789.c  **** 			}
 483:LCD/st7789.c  **** 
 484:LCD/st7789.c  **** 			if (*str == ' ') {
 485:LCD/st7789.c  **** 				// skip spaces in the beginning of the new line
 486:LCD/st7789.c  **** 				str++;
 2017              		.loc 1 486 5 is_stmt 1 view .LVU392
 2018              		.loc 1 486 8 is_stmt 0 view .LVU393
 2019 0026 0137     		adds	r7, r7, #1
 2020              	.LVL236:
 487:LCD/st7789.c  **** 				continue;
 2021              		.loc 1 487 5 is_stmt 1 view .LVU394
 478:LCD/st7789.c  **** 			y += font.height;
 2022              		.loc 1 478 6 is_stmt 0 view .LVU395
 2023 0028 0026     		movs	r6, #0
 2024              		.loc 1 487 5 view .LVU396
 2025 002a 0DE0     		b	.L123
 2026              	.LVL237:
 2027              	.L124:
 488:LCD/st7789.c  **** 			}
 489:LCD/st7789.c  **** 		}
 490:LCD/st7789.c  **** 		ST7789_WriteChar(x, y, *str, font, color, bgcolor);
 2028              		.loc 1 490 3 is_stmt 1 view .LVU397
 2029 002c CDF80880 		str	r8, [sp, #8]
 2030 0030 CDF80490 		str	r9, [sp, #4]
 2031 0034 0E9B     		ldr	r3, [sp, #56]
 2032 0036 0093     		str	r3, [sp]
 2033 0038 0D9B     		ldr	r3, [sp, #52]
 2034 003a 2946     		mov	r1, r5
 2035 003c 3046     		mov	r0, r6
 2036 003e FFF7FEFF 		bl	ST7789_WriteChar
 2037              	.LVL238:
 491:LCD/st7789.c  **** 		x += font.width;
 2038              		.loc 1 491 3 view .LVU398
 2039              		.loc 1 491 5 is_stmt 0 view .LVU399
 2040 0042 3444     		add	r4, r4, r6
 2041 0044 A6B2     		uxth	r6, r4
 2042              	.LVL239:
 492:LCD/st7789.c  **** 		str++;
 2043              		.loc 1 492 3 is_stmt 1 view .LVU400
 2044              		.loc 1 492 6 is_stmt 0 view .LVU401
 2045 0046 0137     		adds	r7, r7, #1
 2046              	.LVL240:
ARM GAS  C:\usertemp\cchsqz8b.s 			page 48


 2047              	.L123:
 476:LCD/st7789.c  **** 		if (x + font.width >= ST7789_WIDTH) {
 2048              		.loc 1 476 9 is_stmt 1 view .LVU402
 2049 0048 3A78     		ldrb	r2, [r7]	@ zero_extendqisi2
 2050 004a 82B1     		cbz	r2, .L125
 477:LCD/st7789.c  **** 			x = 0;
 2051              		.loc 1 477 3 view .LVU403
 477:LCD/st7789.c  **** 			x = 0;
 2052              		.loc 1 477 15 is_stmt 0 view .LVU404
 2053 004c 9DF83440 		ldrb	r4, [sp, #52]	@ zero_extendqisi2
 477:LCD/st7789.c  **** 			x = 0;
 2054              		.loc 1 477 9 view .LVU405
 2055 0050 3319     		adds	r3, r6, r4
 477:LCD/st7789.c  **** 			x = 0;
 2056              		.loc 1 477 6 view .LVU406
 2057 0052 EF2B     		cmp	r3, #239
 2058 0054 EADD     		ble	.L124
 478:LCD/st7789.c  **** 			y += font.height;
 2059              		.loc 1 478 4 is_stmt 1 view .LVU407
 2060              	.LVL241:
 479:LCD/st7789.c  **** 			if (y + font.height >= ST7789_HEIGHT) {
 2061              		.loc 1 479 4 view .LVU408
 479:LCD/st7789.c  **** 			if (y + font.height >= ST7789_HEIGHT) {
 2062              		.loc 1 479 13 is_stmt 0 view .LVU409
 2063 0056 9DF83530 		ldrb	r3, [sp, #53]	@ zero_extendqisi2
 479:LCD/st7789.c  **** 			if (y + font.height >= ST7789_HEIGHT) {
 2064              		.loc 1 479 6 view .LVU410
 2065 005a 1D44     		add	r5, r5, r3
 2066              	.LVL242:
 479:LCD/st7789.c  **** 			if (y + font.height >= ST7789_HEIGHT) {
 2067              		.loc 1 479 6 view .LVU411
 2068 005c ADB2     		uxth	r5, r5
 2069              	.LVL243:
 480:LCD/st7789.c  **** 				break;
 2070              		.loc 1 480 4 is_stmt 1 view .LVU412
 480:LCD/st7789.c  **** 				break;
 2071              		.loc 1 480 10 is_stmt 0 view .LVU413
 2072 005e 2B44     		add	r3, r3, r5
 480:LCD/st7789.c  **** 				break;
 2073              		.loc 1 480 7 view .LVU414
 2074 0060 B3F5A07F 		cmp	r3, #320
 2075 0064 03DA     		bge	.L125
 484:LCD/st7789.c  **** 				// skip spaces in the beginning of the new line
 2076              		.loc 1 484 4 is_stmt 1 view .LVU415
 484:LCD/st7789.c  **** 				// skip spaces in the beginning of the new line
 2077              		.loc 1 484 7 is_stmt 0 view .LVU416
 2078 0066 202A     		cmp	r2, #32
 2079 0068 DDD0     		beq	.L130
 478:LCD/st7789.c  **** 			y += font.height;
 2080              		.loc 1 478 6 view .LVU417
 2081 006a 0026     		movs	r6, #0
 2082 006c DEE7     		b	.L124
 2083              	.LVL244:
 2084              	.L125:
 493:LCD/st7789.c  **** 	}
 494:LCD/st7789.c  **** 	ST7789_UnSelect();
 2085              		.loc 1 494 2 is_stmt 1 view .LVU418
ARM GAS  C:\usertemp\cchsqz8b.s 			page 49


 2086 006e 0122     		movs	r2, #1
 2087 0070 4FF48061 		mov	r1, #1024
 2088 0074 0348     		ldr	r0, .L131
 2089 0076 FFF7FEFF 		bl	HAL_GPIO_WritePin
 2090              	.LVL245:
 495:LCD/st7789.c  **** }
 2091              		.loc 1 495 1 is_stmt 0 view .LVU419
 2092 007a 05B0     		add	sp, sp, #20
 2093              	.LCFI51:
 2094              		.cfi_def_cfa_offset 36
 2095              		@ sp needed
 2096 007c BDE8F043 		pop	{r4, r5, r6, r7, r8, r9, lr}
 2097              	.LCFI52:
 2098              		.cfi_restore 14
 2099              		.cfi_restore 9
 2100              		.cfi_restore 8
 2101              		.cfi_restore 7
 2102              		.cfi_restore 6
 2103              		.cfi_restore 5
 2104              		.cfi_restore 4
 2105              		.cfi_def_cfa_offset 8
 2106              	.LVL246:
 2107              		.loc 1 495 1 view .LVU420
 2108 0080 02B0     		add	sp, sp, #8
 2109              	.LCFI53:
 2110              		.cfi_def_cfa_offset 0
 2111 0082 7047     		bx	lr
 2112              	.L132:
 2113              		.align	2
 2114              	.L131:
 2115 0084 000C0242 		.word	1107430400
 2116              		.cfi_endproc
 2117              	.LFE173:
 2119              		.section	.text.ST7789_DrawFilledRectangle,"ax",%progbits
 2120              		.align	1
 2121              		.global	ST7789_DrawFilledRectangle
 2122              		.syntax unified
 2123              		.thumb
 2124              		.thumb_func
 2126              	ST7789_DrawFilledRectangle:
 2127              	.LVL247:
 2128              	.LFB174:
 496:LCD/st7789.c  **** 
 497:LCD/st7789.c  **** /** 
 498:LCD/st7789.c  ****  * @brief Draw a filled Rectangle with single color
 499:LCD/st7789.c  ****  * @param  x&y -> coordinates of the starting point
 500:LCD/st7789.c  ****  * @param w&h -> width & height of the Rectangle
 501:LCD/st7789.c  ****  * @param color -> color of the Rectangle
 502:LCD/st7789.c  ****  * @return  none
 503:LCD/st7789.c  ****  */
 504:LCD/st7789.c  **** void ST7789_DrawFilledRectangle(uint16_t x, uint16_t y, uint16_t w, uint16_t h, uint16_t color)
 505:LCD/st7789.c  **** {
 2129              		.loc 1 505 1 is_stmt 1 view -0
 2130              		.cfi_startproc
 2131              		@ args = 4, pretend = 0, frame = 0
 2132              		@ frame_needed = 0, uses_anonymous_args = 0
 2133              		.loc 1 505 1 is_stmt 0 view .LVU422
ARM GAS  C:\usertemp\cchsqz8b.s 			page 50


 2134 0000 2DE9F043 		push	{r4, r5, r6, r7, r8, r9, lr}
 2135              	.LCFI54:
 2136              		.cfi_def_cfa_offset 28
 2137              		.cfi_offset 4, -28
 2138              		.cfi_offset 5, -24
 2139              		.cfi_offset 6, -20
 2140              		.cfi_offset 7, -16
 2141              		.cfi_offset 8, -12
 2142              		.cfi_offset 9, -8
 2143              		.cfi_offset 14, -4
 2144 0004 83B0     		sub	sp, sp, #12
 2145              	.LCFI55:
 2146              		.cfi_def_cfa_offset 40
 2147 0006 0546     		mov	r5, r0
 2148 0008 0F46     		mov	r7, r1
 2149 000a 9046     		mov	r8, r2
 2150 000c 1E46     		mov	r6, r3
 2151 000e BDF82890 		ldrh	r9, [sp, #40]
 506:LCD/st7789.c  **** 	ST7789_Select();
 2152              		.loc 1 506 2 is_stmt 1 view .LVU423
 2153 0012 0022     		movs	r2, #0
 2154              	.LVL248:
 2155              		.loc 1 506 2 is_stmt 0 view .LVU424
 2156 0014 4FF48061 		mov	r1, #1024
 2157              	.LVL249:
 2158              		.loc 1 506 2 view .LVU425
 2159 0018 1848     		ldr	r0, .L140
 2160              	.LVL250:
 2161              		.loc 1 506 2 view .LVU426
 2162 001a FFF7FEFF 		bl	HAL_GPIO_WritePin
 2163              	.LVL251:
 507:LCD/st7789.c  **** 	uint8_t i;
 2164              		.loc 1 507 2 is_stmt 1 view .LVU427
 508:LCD/st7789.c  **** 
 509:LCD/st7789.c  **** 	/* Check input parameters */
 510:LCD/st7789.c  **** 	if (x >= ST7789_WIDTH ||
 2165              		.loc 1 510 2 view .LVU428
 2166              		.loc 1 510 5 is_stmt 0 view .LVU429
 2167 001e EF2D     		cmp	r5, #239
 2168 0020 28D8     		bhi	.L133
 2169              		.loc 1 510 24 discriminator 1 view .LVU430
 2170 0022 B7F5A07F 		cmp	r7, #320
 2171 0026 25D2     		bcs	.L133
 511:LCD/st7789.c  **** 		y >= ST7789_HEIGHT) {
 512:LCD/st7789.c  **** 		/* Return error */
 513:LCD/st7789.c  **** 		return;
 514:LCD/st7789.c  **** 	}
 515:LCD/st7789.c  **** 
 516:LCD/st7789.c  **** 	/* Check width and height */
 517:LCD/st7789.c  **** 	if ((x + w) >= ST7789_WIDTH) {
 2172              		.loc 1 517 2 is_stmt 1 view .LVU431
 2173              		.loc 1 517 9 is_stmt 0 view .LVU432
 2174 0028 05EB0803 		add	r3, r5, r8
 2175              		.loc 1 517 5 view .LVU433
 2176 002c EF2B     		cmp	r3, #239
 2177 002e 03DD     		ble	.L135
 518:LCD/st7789.c  **** 		w = ST7789_WIDTH - x;
ARM GAS  C:\usertemp\cchsqz8b.s 			page 51


 2178              		.loc 1 518 3 is_stmt 1 view .LVU434
 2179              		.loc 1 518 5 is_stmt 0 view .LVU435
 2180 0030 C5F1F008 		rsb	r8, r5, #240
 2181              	.LVL252:
 2182              		.loc 1 518 5 view .LVU436
 2183 0034 1FFA88F8 		uxth	r8, r8
 2184              	.LVL253:
 2185              	.L135:
 519:LCD/st7789.c  **** 	}
 520:LCD/st7789.c  **** 	if ((y + h) >= ST7789_HEIGHT) {
 2186              		.loc 1 520 2 is_stmt 1 view .LVU437
 2187              		.loc 1 520 9 is_stmt 0 view .LVU438
 2188 0038 BB19     		adds	r3, r7, r6
 2189              		.loc 1 520 5 view .LVU439
 2190 003a B3F5A07F 		cmp	r3, #320
 2191 003e 02DB     		blt	.L136
 521:LCD/st7789.c  **** 		h = ST7789_HEIGHT - y;
 2192              		.loc 1 521 3 is_stmt 1 view .LVU440
 2193              		.loc 1 521 5 is_stmt 0 view .LVU441
 2194 0040 C7F5A076 		rsb	r6, r7, #320
 2195              	.LVL254:
 2196              		.loc 1 521 5 view .LVU442
 2197 0044 B6B2     		uxth	r6, r6
 2198              	.LVL255:
 2199              	.L136:
 522:LCD/st7789.c  **** 	}
 523:LCD/st7789.c  **** 
 524:LCD/st7789.c  **** 	/* Draw lines */
 525:LCD/st7789.c  **** 	for (i = 0; i <= h; i++) {
 2200              		.loc 1 525 2 is_stmt 1 view .LVU443
 2201              		.loc 1 525 9 is_stmt 0 view .LVU444
 2202 0046 0024     		movs	r4, #0
 2203              		.loc 1 525 2 view .LVU445
 2204 0048 0CE0     		b	.L137
 2205              	.LVL256:
 2206              	.L138:
 526:LCD/st7789.c  **** 		/* Draw lines */
 527:LCD/st7789.c  **** 		ST7789_DrawLine(x, y + i, x + w, y + i, color);
 2207              		.loc 1 527 3 is_stmt 1 view .LVU446
 2208 004a E119     		adds	r1, r4, r7
 2209 004c 89B2     		uxth	r1, r1
 2210 004e 08EB0502 		add	r2, r8, r5
 2211 0052 CDF80090 		str	r9, [sp]
 2212 0056 0B46     		mov	r3, r1
 2213 0058 92B2     		uxth	r2, r2
 2214 005a 2846     		mov	r0, r5
 2215 005c FFF7FEFF 		bl	ST7789_DrawLine
 2216              	.LVL257:
 525:LCD/st7789.c  **** 		/* Draw lines */
 2217              		.loc 1 525 23 discriminator 3 view .LVU447
 2218 0060 0134     		adds	r4, r4, #1
 2219              	.LVL258:
 525:LCD/st7789.c  **** 		/* Draw lines */
 2220              		.loc 1 525 23 is_stmt 0 discriminator 3 view .LVU448
 2221 0062 E4B2     		uxtb	r4, r4
 2222              	.LVL259:
 2223              	.L137:
ARM GAS  C:\usertemp\cchsqz8b.s 			page 52


 525:LCD/st7789.c  **** 		/* Draw lines */
 2224              		.loc 1 525 16 is_stmt 1 discriminator 1 view .LVU449
 2225 0064 B442     		cmp	r4, r6
 2226 0066 F0D9     		bls	.L138
 528:LCD/st7789.c  **** 	}
 529:LCD/st7789.c  **** 	ST7789_UnSelect();
 2227              		.loc 1 529 2 view .LVU450
 2228 0068 0122     		movs	r2, #1
 2229 006a 4FF48061 		mov	r1, #1024
 2230 006e 0348     		ldr	r0, .L140
 2231 0070 FFF7FEFF 		bl	HAL_GPIO_WritePin
 2232              	.LVL260:
 2233              	.L133:
 530:LCD/st7789.c  **** }
 2234              		.loc 1 530 1 is_stmt 0 view .LVU451
 2235 0074 03B0     		add	sp, sp, #12
 2236              	.LCFI56:
 2237              		.cfi_def_cfa_offset 28
 2238              		@ sp needed
 2239 0076 BDE8F083 		pop	{r4, r5, r6, r7, r8, r9, pc}
 2240              	.LVL261:
 2241              	.L141:
 2242              		.loc 1 530 1 view .LVU452
 2243 007a 00BF     		.align	2
 2244              	.L140:
 2245 007c 000C0242 		.word	1107430400
 2246              		.cfi_endproc
 2247              	.LFE174:
 2249              		.section	.text.ST7789_DrawTriangle,"ax",%progbits
 2250              		.align	1
 2251              		.global	ST7789_DrawTriangle
 2252              		.syntax unified
 2253              		.thumb
 2254              		.thumb_func
 2256              	ST7789_DrawTriangle:
 2257              	.LVL262:
 2258              	.LFB175:
 531:LCD/st7789.c  **** 
 532:LCD/st7789.c  **** /** 
 533:LCD/st7789.c  ****  * @brief Draw a Triangle with single color
 534:LCD/st7789.c  ****  * @param  xi&yi -> 3 coordinates of 3 top points.
 535:LCD/st7789.c  ****  * @param color ->color of the lines
 536:LCD/st7789.c  ****  * @return  none
 537:LCD/st7789.c  ****  */
 538:LCD/st7789.c  **** void ST7789_DrawTriangle(uint16_t x1, uint16_t y1, uint16_t x2, uint16_t y2, uint16_t x3, uint16_t 
 539:LCD/st7789.c  **** {
 2259              		.loc 1 539 1 is_stmt 1 view -0
 2260              		.cfi_startproc
 2261              		@ args = 12, pretend = 0, frame = 0
 2262              		@ frame_needed = 0, uses_anonymous_args = 0
 2263              		.loc 1 539 1 is_stmt 0 view .LVU454
 2264 0000 2DE9F04F 		push	{r4, r5, r6, r7, r8, r9, r10, fp, lr}
 2265              	.LCFI57:
 2266              		.cfi_def_cfa_offset 36
 2267              		.cfi_offset 4, -36
 2268              		.cfi_offset 5, -32
 2269              		.cfi_offset 6, -28
ARM GAS  C:\usertemp\cchsqz8b.s 			page 53


 2270              		.cfi_offset 7, -24
 2271              		.cfi_offset 8, -20
 2272              		.cfi_offset 9, -16
 2273              		.cfi_offset 10, -12
 2274              		.cfi_offset 11, -8
 2275              		.cfi_offset 14, -4
 2276 0004 83B0     		sub	sp, sp, #12
 2277              	.LCFI58:
 2278              		.cfi_def_cfa_offset 48
 2279 0006 0446     		mov	r4, r0
 2280 0008 0D46     		mov	r5, r1
 2281 000a 1646     		mov	r6, r2
 2282 000c 1F46     		mov	r7, r3
 2283 000e BDF830A0 		ldrh	r10, [sp, #48]
 2284 0012 BDF834B0 		ldrh	fp, [sp, #52]
 2285 0016 BDF83880 		ldrh	r8, [sp, #56]
 540:LCD/st7789.c  **** 	ST7789_Select();
 2286              		.loc 1 540 2 is_stmt 1 view .LVU455
 2287 001a DFF85090 		ldr	r9, .L144
 2288 001e 0022     		movs	r2, #0
 2289              	.LVL263:
 2290              		.loc 1 540 2 is_stmt 0 view .LVU456
 2291 0020 4FF48061 		mov	r1, #1024
 2292              	.LVL264:
 2293              		.loc 1 540 2 view .LVU457
 2294 0024 4846     		mov	r0, r9
 2295              	.LVL265:
 2296              		.loc 1 540 2 view .LVU458
 2297 0026 FFF7FEFF 		bl	HAL_GPIO_WritePin
 2298              	.LVL266:
 541:LCD/st7789.c  **** 	/* Draw lines */
 542:LCD/st7789.c  **** 	ST7789_DrawLine(x1, y1, x2, y2, color);
 2299              		.loc 1 542 2 is_stmt 1 view .LVU459
 2300 002a CDF80080 		str	r8, [sp]
 2301 002e 3B46     		mov	r3, r7
 2302 0030 3246     		mov	r2, r6
 2303 0032 2946     		mov	r1, r5
 2304 0034 2046     		mov	r0, r4
 2305 0036 FFF7FEFF 		bl	ST7789_DrawLine
 2306              	.LVL267:
 543:LCD/st7789.c  **** 	ST7789_DrawLine(x2, y2, x3, y3, color);
 2307              		.loc 1 543 2 view .LVU460
 2308 003a CDF80080 		str	r8, [sp]
 2309 003e 5B46     		mov	r3, fp
 2310 0040 5246     		mov	r2, r10
 2311 0042 3946     		mov	r1, r7
 2312 0044 3046     		mov	r0, r6
 2313 0046 FFF7FEFF 		bl	ST7789_DrawLine
 2314              	.LVL268:
 544:LCD/st7789.c  **** 	ST7789_DrawLine(x3, y3, x1, y1, color);
 2315              		.loc 1 544 2 view .LVU461
 2316 004a CDF80080 		str	r8, [sp]
 2317 004e 2B46     		mov	r3, r5
 2318 0050 2246     		mov	r2, r4
 2319 0052 5946     		mov	r1, fp
 2320 0054 5046     		mov	r0, r10
 2321 0056 FFF7FEFF 		bl	ST7789_DrawLine
ARM GAS  C:\usertemp\cchsqz8b.s 			page 54


 2322              	.LVL269:
 545:LCD/st7789.c  **** 	ST7789_UnSelect();
 2323              		.loc 1 545 2 view .LVU462
 2324 005a 0122     		movs	r2, #1
 2325 005c 4FF48061 		mov	r1, #1024
 2326 0060 4846     		mov	r0, r9
 2327 0062 FFF7FEFF 		bl	HAL_GPIO_WritePin
 2328              	.LVL270:
 546:LCD/st7789.c  **** }
 2329              		.loc 1 546 1 is_stmt 0 view .LVU463
 2330 0066 03B0     		add	sp, sp, #12
 2331              	.LCFI59:
 2332              		.cfi_def_cfa_offset 36
 2333              		@ sp needed
 2334 0068 BDE8F08F 		pop	{r4, r5, r6, r7, r8, r9, r10, fp, pc}
 2335              	.LVL271:
 2336              	.L145:
 2337              		.loc 1 546 1 view .LVU464
 2338              		.align	2
 2339              	.L144:
 2340 006c 000C0242 		.word	1107430400
 2341              		.cfi_endproc
 2342              	.LFE175:
 2344              		.section	.text.ST7789_DrawFilledTriangle,"ax",%progbits
 2345              		.align	1
 2346              		.global	ST7789_DrawFilledTriangle
 2347              		.syntax unified
 2348              		.thumb
 2349              		.thumb_func
 2351              	ST7789_DrawFilledTriangle:
 2352              	.LVL272:
 2353              	.LFB176:
 547:LCD/st7789.c  **** 
 548:LCD/st7789.c  **** /** 
 549:LCD/st7789.c  ****  * @brief Draw a filled Triangle with single color
 550:LCD/st7789.c  ****  * @param  xi&yi -> 3 coordinates of 3 top points.
 551:LCD/st7789.c  ****  * @param color ->color of the triangle
 552:LCD/st7789.c  ****  * @return  none
 553:LCD/st7789.c  ****  */
 554:LCD/st7789.c  **** void ST7789_DrawFilledTriangle(uint16_t x1, uint16_t y1, uint16_t x2, uint16_t y2, uint16_t x3, uin
 555:LCD/st7789.c  **** {
 2354              		.loc 1 555 1 is_stmt 1 view -0
 2355              		.cfi_startproc
 2356              		@ args = 12, pretend = 0, frame = 32
 2357              		@ frame_needed = 0, uses_anonymous_args = 0
 2358              		.loc 1 555 1 is_stmt 0 view .LVU466
 2359 0000 2DE9F04F 		push	{r4, r5, r6, r7, r8, r9, r10, fp, lr}
 2360              	.LCFI60:
 2361              		.cfi_def_cfa_offset 36
 2362              		.cfi_offset 4, -36
 2363              		.cfi_offset 5, -32
 2364              		.cfi_offset 6, -28
 2365              		.cfi_offset 7, -24
 2366              		.cfi_offset 8, -20
 2367              		.cfi_offset 9, -16
 2368              		.cfi_offset 10, -12
 2369              		.cfi_offset 11, -8
ARM GAS  C:\usertemp\cchsqz8b.s 			page 55


 2370              		.cfi_offset 14, -4
 2371 0004 8BB0     		sub	sp, sp, #44
 2372              	.LCFI61:
 2373              		.cfi_def_cfa_offset 80
 2374 0006 0746     		mov	r7, r0
 2375 0008 0D46     		mov	r5, r1
 2376 000a 9146     		mov	r9, r2
 2377 000c 9846     		mov	r8, r3
 2378 000e BDF85030 		ldrh	r3, [sp, #80]
 2379              	.LVL273:
 2380              		.loc 1 555 1 view .LVU467
 2381 0012 0593     		str	r3, [sp, #20]
 2382 0014 BDF85430 		ldrh	r3, [sp, #84]
 2383 0018 0693     		str	r3, [sp, #24]
 2384 001a BDF85830 		ldrh	r3, [sp, #88]
 2385 001e 0793     		str	r3, [sp, #28]
 556:LCD/st7789.c  **** 	ST7789_Select();
 2386              		.loc 1 556 2 is_stmt 1 view .LVU468
 2387 0020 0022     		movs	r2, #0
 2388              	.LVL274:
 2389              		.loc 1 556 2 is_stmt 0 view .LVU469
 2390 0022 4FF48061 		mov	r1, #1024
 2391              	.LVL275:
 2392              		.loc 1 556 2 view .LVU470
 2393 0026 3848     		ldr	r0, .L158
 2394              	.LVL276:
 2395              		.loc 1 556 2 view .LVU471
 2396 0028 FFF7FEFF 		bl	HAL_GPIO_WritePin
 2397              	.LVL277:
 557:LCD/st7789.c  **** 	int16_t deltax = 0, deltay = 0, x = 0, y = 0, xinc1 = 0, xinc2 = 0,
 2398              		.loc 1 557 2 is_stmt 1 view .LVU472
 558:LCD/st7789.c  **** 			yinc1 = 0, yinc2 = 0, den = 0, num = 0, numadd = 0, numpixels = 0,
 559:LCD/st7789.c  **** 			curpixel = 0;
 560:LCD/st7789.c  **** 
 561:LCD/st7789.c  **** 	deltax = ABS(x2 - x1);
 2399              		.loc 1 561 2 view .LVU473
 2400              		.loc 1 561 11 is_stmt 0 view .LVU474
 2401 002c A9EB070A 		sub	r10, r9, r7
 2402 0030 BAF1000F 		cmp	r10, #0
 2403 0034 B8BF     		it	lt
 2404 0036 CAF1000A 		rsblt	r10, r10, #0
 2405              		.loc 1 561 9 view .LVU475
 2406 003a 0FFA8AFA 		sxth	r10, r10
 2407              	.LVL278:
 562:LCD/st7789.c  **** 	deltay = ABS(y2 - y1);
 2408              		.loc 1 562 2 is_stmt 1 view .LVU476
 2409              		.loc 1 562 11 is_stmt 0 view .LVU477
 2410 003e A8EB0502 		sub	r2, r8, r5
 2411 0042 002A     		cmp	r2, #0
 2412 0044 B8BF     		it	lt
 2413 0046 5242     		rsblt	r2, r2, #0
 2414              		.loc 1 562 9 view .LVU478
 2415 0048 0FFA82FB 		sxth	fp, r2
 2416              	.LVL279:
 563:LCD/st7789.c  **** 	x = x1;
 2417              		.loc 1 563 2 is_stmt 1 view .LVU479
 2418              		.loc 1 563 4 is_stmt 0 view .LVU480
ARM GAS  C:\usertemp\cchsqz8b.s 			page 56


 2419 004c 3CB2     		sxth	r4, r7
 2420              	.LVL280:
 564:LCD/st7789.c  **** 	y = y1;
 2421              		.loc 1 564 2 is_stmt 1 view .LVU481
 2422              		.loc 1 564 4 is_stmt 0 view .LVU482
 2423 004e 2EB2     		sxth	r6, r5
 2424              	.LVL281:
 565:LCD/st7789.c  **** 
 566:LCD/st7789.c  **** 	if (x2 >= x1) {
 2425              		.loc 1 566 2 is_stmt 1 view .LVU483
 2426              		.loc 1 566 5 is_stmt 0 view .LVU484
 2427 0050 B945     		cmp	r9, r7
 2428 0052 13D3     		bcc	.L154
 567:LCD/st7789.c  **** 		xinc1 = 1;
 2429              		.loc 1 567 9 view .LVU485
 2430 0054 0123     		movs	r3, #1
 2431 0056 0893     		str	r3, [sp, #32]
 2432              	.L147:
 2433              	.LVL282:
 568:LCD/st7789.c  **** 		xinc2 = 1;
 569:LCD/st7789.c  **** 	}
 570:LCD/st7789.c  **** 	else {
 571:LCD/st7789.c  **** 		xinc1 = -1;
 572:LCD/st7789.c  **** 		xinc2 = -1;
 573:LCD/st7789.c  **** 	}
 574:LCD/st7789.c  **** 
 575:LCD/st7789.c  **** 	if (y2 >= y1) {
 2434              		.loc 1 575 2 is_stmt 1 view .LVU486
 2435              		.loc 1 575 5 is_stmt 0 view .LVU487
 2436 0058 A845     		cmp	r8, r5
 2437 005a 13D3     		bcc	.L155
 576:LCD/st7789.c  **** 		yinc1 = 1;
 2438              		.loc 1 576 9 view .LVU488
 2439 005c 0123     		movs	r3, #1
 2440 005e 0993     		str	r3, [sp, #36]
 2441              	.L148:
 2442              	.LVL283:
 577:LCD/st7789.c  **** 		yinc2 = 1;
 578:LCD/st7789.c  **** 	}
 579:LCD/st7789.c  **** 	else {
 580:LCD/st7789.c  **** 		yinc1 = -1;
 581:LCD/st7789.c  **** 		yinc2 = -1;
 582:LCD/st7789.c  **** 	}
 583:LCD/st7789.c  **** 
 584:LCD/st7789.c  **** 	if (deltax >= deltay) {
 2443              		.loc 1 584 2 is_stmt 1 view .LVU489
 2444              		.loc 1 584 5 is_stmt 0 view .LVU490
 2445 0060 DA45     		cmp	r10, fp
 2446 0062 13DB     		blt	.L149
 585:LCD/st7789.c  **** 		xinc1 = 0;
 2447              		.loc 1 585 3 is_stmt 1 view .LVU491
 2448              	.LVL284:
 586:LCD/st7789.c  **** 		yinc2 = 0;
 2449              		.loc 1 586 3 view .LVU492
 587:LCD/st7789.c  **** 		den = deltax;
 2450              		.loc 1 587 3 view .LVU493
 588:LCD/st7789.c  **** 		num = deltax / 2;
ARM GAS  C:\usertemp\cchsqz8b.s 			page 57


 2451              		.loc 1 588 3 view .LVU494
 2452              		.loc 1 588 7 is_stmt 0 view .LVU495
 2453 0064 0AEBDA78 		add	r8, r10, r10, lsr #31
 2454              	.LVL285:
 2455              		.loc 1 588 7 view .LVU496
 2456 0068 48F34F08 		sbfx	r8, r8, #1, #16
 2457              	.LVL286:
 589:LCD/st7789.c  **** 		numadd = deltay;
 2458              		.loc 1 589 3 is_stmt 1 view .LVU497
 590:LCD/st7789.c  **** 		numpixels = deltax;
 2459              		.loc 1 590 3 view .LVU498
 2460              		.loc 1 590 3 is_stmt 0 view .LVU499
 2461 006c 089B     		ldr	r3, [sp, #32]
 2462 006e 0393     		str	r3, [sp, #12]
 586:LCD/st7789.c  **** 		den = deltax;
 2463              		.loc 1 586 9 view .LVU500
 2464 0070 0023     		movs	r3, #0
 2465 0072 0893     		str	r3, [sp, #32]
 2466              	.LVL287:
 585:LCD/st7789.c  **** 		yinc2 = 0;
 2467              		.loc 1 585 9 view .LVU501
 2468 0074 0493     		str	r3, [sp, #16]
 2469              	.LVL288:
 2470              	.L150:
 591:LCD/st7789.c  **** 	}
 592:LCD/st7789.c  **** 	else {
 593:LCD/st7789.c  **** 		xinc2 = 0;
 594:LCD/st7789.c  **** 		yinc1 = 0;
 595:LCD/st7789.c  **** 		den = deltay;
 596:LCD/st7789.c  **** 		num = deltay / 2;
 597:LCD/st7789.c  **** 		numadd = deltax;
 598:LCD/st7789.c  **** 		numpixels = deltay;
 599:LCD/st7789.c  **** 	}
 600:LCD/st7789.c  **** 
 601:LCD/st7789.c  **** 	for (curpixel = 0; curpixel <= numpixels; curpixel++) {
 2471              		.loc 1 601 2 is_stmt 1 view .LVU502
 2472              		.loc 1 601 16 is_stmt 0 view .LVU503
 2473 0076 4FF00009 		mov	r9, #0
 2474              	.LVL289:
 2475              		.loc 1 601 2 view .LVU504
 2476 007a 1EE0     		b	.L151
 2477              	.LVL290:
 2478              	.L154:
 571:LCD/st7789.c  **** 		xinc2 = -1;
 2479              		.loc 1 571 9 view .LVU505
 2480 007c 4FF0FF33 		mov	r3, #-1
 2481 0080 0893     		str	r3, [sp, #32]
 2482 0082 E9E7     		b	.L147
 2483              	.LVL291:
 2484              	.L155:
 580:LCD/st7789.c  **** 		yinc2 = -1;
 2485              		.loc 1 580 9 view .LVU506
 2486 0084 4FF0FF33 		mov	r3, #-1
 2487 0088 0993     		str	r3, [sp, #36]
 2488 008a E9E7     		b	.L148
 2489              	.LVL292:
 2490              	.L149:
ARM GAS  C:\usertemp\cchsqz8b.s 			page 58


 593:LCD/st7789.c  **** 		yinc1 = 0;
 2491              		.loc 1 593 3 is_stmt 1 view .LVU507
 594:LCD/st7789.c  **** 		den = deltay;
 2492              		.loc 1 594 3 view .LVU508
 595:LCD/st7789.c  **** 		num = deltay / 2;
 2493              		.loc 1 595 3 view .LVU509
 596:LCD/st7789.c  **** 		numadd = deltax;
 2494              		.loc 1 596 3 view .LVU510
 596:LCD/st7789.c  **** 		numadd = deltax;
 2495              		.loc 1 596 7 is_stmt 0 view .LVU511
 2496 008c 0BEBDB78 		add	r8, fp, fp, lsr #31
 2497 0090 48F34F08 		sbfx	r8, r8, #1, #16
 2498              	.LVL293:
 597:LCD/st7789.c  **** 		numpixels = deltay;
 2499              		.loc 1 597 3 is_stmt 1 view .LVU512
 598:LCD/st7789.c  **** 	}
 2500              		.loc 1 598 3 view .LVU513
 596:LCD/st7789.c  **** 		numadd = deltax;
 2501              		.loc 1 596 7 is_stmt 0 view .LVU514
 2502 0094 5346     		mov	r3, r10
 595:LCD/st7789.c  **** 		num = deltay / 2;
 2503              		.loc 1 595 7 view .LVU515
 2504 0096 DA46     		mov	r10, fp
 2505              	.LVL294:
 597:LCD/st7789.c  **** 		numpixels = deltay;
 2506              		.loc 1 597 10 view .LVU516
 2507 0098 9B46     		mov	fp, r3
 2508              	.LVL295:
 596:LCD/st7789.c  **** 		numadd = deltax;
 2509              		.loc 1 596 7 view .LVU517
 2510 009a 099B     		ldr	r3, [sp, #36]
 2511              	.LVL296:
 596:LCD/st7789.c  **** 		numadd = deltax;
 2512              		.loc 1 596 7 view .LVU518
 2513 009c 0493     		str	r3, [sp, #16]
 594:LCD/st7789.c  **** 		den = deltay;
 2514              		.loc 1 594 9 view .LVU519
 2515 009e 0023     		movs	r3, #0
 2516 00a0 0993     		str	r3, [sp, #36]
 2517              	.LVL297:
 593:LCD/st7789.c  **** 		yinc1 = 0;
 2518              		.loc 1 593 9 view .LVU520
 2519 00a2 0393     		str	r3, [sp, #12]
 2520 00a4 E7E7     		b	.L150
 2521              	.LVL298:
 2522              	.L152:
 602:LCD/st7789.c  **** 		ST7789_DrawLine(x, y, x3, y3, color);
 603:LCD/st7789.c  **** 
 604:LCD/st7789.c  **** 		num += numadd;
 605:LCD/st7789.c  **** 		if (num >= den) {
 606:LCD/st7789.c  **** 			num -= den;
 607:LCD/st7789.c  **** 			x += xinc1;
 608:LCD/st7789.c  **** 			y += yinc1;
 609:LCD/st7789.c  **** 		}
 610:LCD/st7789.c  **** 		x += xinc2;
 2523              		.loc 1 610 3 is_stmt 1 view .LVU521
 2524              		.loc 1 610 5 is_stmt 0 view .LVU522
ARM GAS  C:\usertemp\cchsqz8b.s 			page 59


 2525 00a6 039B     		ldr	r3, [sp, #12]
 2526 00a8 1C44     		add	r4, r4, r3
 2527              	.LVL299:
 2528              		.loc 1 610 5 view .LVU523
 2529 00aa 24B2     		sxth	r4, r4
 2530              	.LVL300:
 611:LCD/st7789.c  **** 		y += yinc2;
 2531              		.loc 1 611 3 is_stmt 1 view .LVU524
 2532              		.loc 1 611 5 is_stmt 0 view .LVU525
 2533 00ac 049B     		ldr	r3, [sp, #16]
 2534 00ae 1E44     		add	r6, r6, r3
 2535              	.LVL301:
 2536              		.loc 1 611 5 view .LVU526
 2537 00b0 36B2     		sxth	r6, r6
 2538              	.LVL302:
 601:LCD/st7789.c  **** 		ST7789_DrawLine(x, y, x3, y3, color);
 2539              		.loc 1 601 52 is_stmt 1 discriminator 2 view .LVU527
 2540 00b2 09F10109 		add	r9, r9, #1
 2541              	.LVL303:
 601:LCD/st7789.c  **** 		ST7789_DrawLine(x, y, x3, y3, color);
 2542              		.loc 1 601 52 is_stmt 0 discriminator 2 view .LVU528
 2543 00b6 0FFA89F9 		sxth	r9, r9
 2544              	.LVL304:
 2545              	.L151:
 601:LCD/st7789.c  **** 		ST7789_DrawLine(x, y, x3, y3, color);
 2546              		.loc 1 601 30 is_stmt 1 discriminator 1 view .LVU529
 2547 00ba CA45     		cmp	r10, r9
 2548 00bc 1BDB     		blt	.L157
 602:LCD/st7789.c  **** 		ST7789_DrawLine(x, y, x3, y3, color);
 2549              		.loc 1 602 3 view .LVU530
 2550 00be A7B2     		uxth	r7, r4
 2551 00c0 B5B2     		uxth	r5, r6
 2552 00c2 079B     		ldr	r3, [sp, #28]
 2553 00c4 0093     		str	r3, [sp]
 2554 00c6 069B     		ldr	r3, [sp, #24]
 2555 00c8 059A     		ldr	r2, [sp, #20]
 2556 00ca 2946     		mov	r1, r5
 2557 00cc 3846     		mov	r0, r7
 2558 00ce FFF7FEFF 		bl	ST7789_DrawLine
 2559              	.LVL305:
 604:LCD/st7789.c  **** 		if (num >= den) {
 2560              		.loc 1 604 3 view .LVU531
 604:LCD/st7789.c  **** 		if (num >= den) {
 2561              		.loc 1 604 7 is_stmt 0 view .LVU532
 2562 00d2 D844     		add	r8, r8, fp
 2563              	.LVL306:
 604:LCD/st7789.c  **** 		if (num >= den) {
 2564              		.loc 1 604 7 view .LVU533
 2565 00d4 1FFA88F3 		uxth	r3, r8
 2566 00d8 0FFA88F8 		sxth	r8, r8
 2567              	.LVL307:
 605:LCD/st7789.c  **** 			num -= den;
 2568              		.loc 1 605 3 is_stmt 1 view .LVU534
 605:LCD/st7789.c  **** 			num -= den;
 2569              		.loc 1 605 6 is_stmt 0 view .LVU535
 2570 00dc C245     		cmp	r10, r8
 2571 00de E2DC     		bgt	.L152
ARM GAS  C:\usertemp\cchsqz8b.s 			page 60


 606:LCD/st7789.c  **** 			x += xinc1;
 2572              		.loc 1 606 4 is_stmt 1 view .LVU536
 606:LCD/st7789.c  **** 			x += xinc1;
 2573              		.loc 1 606 8 is_stmt 0 view .LVU537
 2574 00e0 A3EB0A03 		sub	r3, r3, r10
 2575 00e4 0FFA83F8 		sxth	r8, r3
 2576              	.LVL308:
 607:LCD/st7789.c  **** 			y += yinc1;
 2577              		.loc 1 607 4 is_stmt 1 view .LVU538
 607:LCD/st7789.c  **** 			y += yinc1;
 2578              		.loc 1 607 6 is_stmt 0 view .LVU539
 2579 00e8 089B     		ldr	r3, [sp, #32]
 2580 00ea 1F44     		add	r7, r7, r3
 2581 00ec 3CB2     		sxth	r4, r7
 2582              	.LVL309:
 608:LCD/st7789.c  **** 		}
 2583              		.loc 1 608 4 is_stmt 1 view .LVU540
 608:LCD/st7789.c  **** 		}
 2584              		.loc 1 608 6 is_stmt 0 view .LVU541
 2585 00ee 099B     		ldr	r3, [sp, #36]
 2586 00f0 1D44     		add	r5, r5, r3
 2587 00f2 2EB2     		sxth	r6, r5
 2588              	.LVL310:
 608:LCD/st7789.c  **** 		}
 2589              		.loc 1 608 6 view .LVU542
 2590 00f4 D7E7     		b	.L152
 2591              	.L157:
 612:LCD/st7789.c  **** 	}
 613:LCD/st7789.c  **** 	ST7789_UnSelect();
 2592              		.loc 1 613 2 is_stmt 1 view .LVU543
 2593 00f6 0122     		movs	r2, #1
 2594 00f8 4FF48061 		mov	r1, #1024
 2595 00fc 0248     		ldr	r0, .L158
 2596 00fe FFF7FEFF 		bl	HAL_GPIO_WritePin
 2597              	.LVL311:
 614:LCD/st7789.c  **** }
 2598              		.loc 1 614 1 is_stmt 0 view .LVU544
 2599 0102 0BB0     		add	sp, sp, #44
 2600              	.LCFI62:
 2601              		.cfi_def_cfa_offset 36
 2602              		@ sp needed
 2603 0104 BDE8F08F 		pop	{r4, r5, r6, r7, r8, r9, r10, fp, pc}
 2604              	.LVL312:
 2605              	.L159:
 2606              		.loc 1 614 1 view .LVU545
 2607              		.align	2
 2608              	.L158:
 2609 0108 000C0242 		.word	1107430400
 2610              		.cfi_endproc
 2611              	.LFE176:
 2613              		.section	.text.ST7789_DrawFilledCircle,"ax",%progbits
 2614              		.align	1
 2615              		.global	ST7789_DrawFilledCircle
 2616              		.syntax unified
 2617              		.thumb
 2618              		.thumb_func
 2620              	ST7789_DrawFilledCircle:
ARM GAS  C:\usertemp\cchsqz8b.s 			page 61


 2621              	.LVL313:
 2622              	.LFB177:
 615:LCD/st7789.c  **** 
 616:LCD/st7789.c  **** /** 
 617:LCD/st7789.c  ****  * @brief Draw a Filled circle with single color
 618:LCD/st7789.c  ****  * @param x0&y0 -> coordinate of circle center
 619:LCD/st7789.c  ****  * @param r -> radius of circle
 620:LCD/st7789.c  ****  * @param color -> color of circle
 621:LCD/st7789.c  ****  * @return  none
 622:LCD/st7789.c  ****  */
 623:LCD/st7789.c  **** void ST7789_DrawFilledCircle(int16_t x0, int16_t y0, int16_t r, uint16_t color)
 624:LCD/st7789.c  **** {
 2623              		.loc 1 624 1 is_stmt 1 view -0
 2624              		.cfi_startproc
 2625              		@ args = 0, pretend = 0, frame = 16
 2626              		@ frame_needed = 0, uses_anonymous_args = 0
 2627              		.loc 1 624 1 is_stmt 0 view .LVU547
 2628 0000 2DE9F04F 		push	{r4, r5, r6, r7, r8, r9, r10, fp, lr}
 2629              	.LCFI63:
 2630              		.cfi_def_cfa_offset 36
 2631              		.cfi_offset 4, -36
 2632              		.cfi_offset 5, -32
 2633              		.cfi_offset 6, -28
 2634              		.cfi_offset 7, -24
 2635              		.cfi_offset 8, -20
 2636              		.cfi_offset 9, -16
 2637              		.cfi_offset 10, -12
 2638              		.cfi_offset 11, -8
 2639              		.cfi_offset 14, -4
 2640 0004 87B0     		sub	sp, sp, #28
 2641              	.LCFI64:
 2642              		.cfi_def_cfa_offset 64
 2643 0006 8046     		mov	r8, r0
 2644 0008 0F46     		mov	r7, r1
 2645 000a 1446     		mov	r4, r2
 2646 000c 0292     		str	r2, [sp, #8]
 2647 000e 9B46     		mov	fp, r3
 625:LCD/st7789.c  **** 	ST7789_Select();
 2648              		.loc 1 625 2 is_stmt 1 view .LVU548
 2649 0010 0022     		movs	r2, #0
 2650              	.LVL314:
 2651              		.loc 1 625 2 is_stmt 0 view .LVU549
 2652 0012 4FF48061 		mov	r1, #1024
 2653              	.LVL315:
 2654              		.loc 1 625 2 view .LVU550
 2655 0016 4A48     		ldr	r0, .L167
 2656              	.LVL316:
 2657              		.loc 1 625 2 view .LVU551
 2658 0018 FFF7FEFF 		bl	HAL_GPIO_WritePin
 2659              	.LVL317:
 626:LCD/st7789.c  **** 	int16_t f = 1 - r;
 2660              		.loc 1 626 2 is_stmt 1 view .LVU552
 2661              		.loc 1 626 16 is_stmt 0 view .LVU553
 2662 001c A5B2     		uxth	r5, r4
 2663 001e C5F10104 		rsb	r4, r5, #1
 2664              	.LVL318:
 2665              		.loc 1 626 10 view .LVU554
ARM GAS  C:\usertemp\cchsqz8b.s 			page 62


 2666 0022 24B2     		sxth	r4, r4
 2667              	.LVL319:
 627:LCD/st7789.c  **** 	int16_t ddF_x = 1;
 2668              		.loc 1 627 2 is_stmt 1 view .LVU555
 628:LCD/st7789.c  **** 	int16_t ddF_y = -2 * r;
 2669              		.loc 1 628 2 view .LVU556
 2670              		.loc 1 628 21 is_stmt 0 view .LVU557
 2671 0024 C5EBC533 		rsb	r3, r5, r5, lsl #15
 2672 0028 5B00     		lsls	r3, r3, #1
 2673              		.loc 1 628 10 view .LVU558
 2674 002a 1BB2     		sxth	r3, r3
 2675 002c 0593     		str	r3, [sp, #20]
 2676              	.LVL320:
 629:LCD/st7789.c  **** 	int16_t x = 0;
 2677              		.loc 1 629 2 is_stmt 1 view .LVU559
 630:LCD/st7789.c  **** 	int16_t y = r;
 2678              		.loc 1 630 2 view .LVU560
 631:LCD/st7789.c  **** 
 632:LCD/st7789.c  **** 	ST7789_DrawPixel(x0, y0 + r, color);
 2679              		.loc 1 632 2 view .LVU561
 2680 002e 1FFA88F8 		uxth	r8, r8
 2681              	.LVL321:
 2682              		.loc 1 632 2 is_stmt 0 view .LVU562
 2683 0032 BFB2     		uxth	r7, r7
 2684              	.LVL322:
 2685              		.loc 1 632 2 view .LVU563
 2686 0034 E919     		adds	r1, r5, r7
 2687 0036 5A46     		mov	r2, fp
 2688 0038 89B2     		uxth	r1, r1
 2689 003a 4046     		mov	r0, r8
 2690 003c FFF7FEFF 		bl	ST7789_DrawPixel
 2691              	.LVL323:
 633:LCD/st7789.c  **** 	ST7789_DrawPixel(x0, y0 - r, color);
 2692              		.loc 1 633 2 is_stmt 1 view .LVU564
 2693 0040 791B     		subs	r1, r7, r5
 2694 0042 5A46     		mov	r2, fp
 2695 0044 89B2     		uxth	r1, r1
 2696 0046 4046     		mov	r0, r8
 2697 0048 FFF7FEFF 		bl	ST7789_DrawPixel
 2698              	.LVL324:
 634:LCD/st7789.c  **** 	ST7789_DrawPixel(x0 + r, y0, color);
 2699              		.loc 1 634 2 view .LVU565
 2700 004c 05EB0806 		add	r6, r5, r8
 2701 0050 B6B2     		uxth	r6, r6
 2702 0052 5A46     		mov	r2, fp
 2703 0054 3946     		mov	r1, r7
 2704 0056 3046     		mov	r0, r6
 2705 0058 FFF7FEFF 		bl	ST7789_DrawPixel
 2706              	.LVL325:
 635:LCD/st7789.c  **** 	ST7789_DrawPixel(x0 - r, y0, color);
 2707              		.loc 1 635 2 view .LVU566
 2708 005c A8EB0505 		sub	r5, r8, r5
 2709 0060 ADB2     		uxth	r5, r5
 2710 0062 5A46     		mov	r2, fp
 2711 0064 3946     		mov	r1, r7
 2712 0066 2846     		mov	r0, r5
 2713 0068 FFF7FEFF 		bl	ST7789_DrawPixel
ARM GAS  C:\usertemp\cchsqz8b.s 			page 63


 2714              	.LVL326:
 636:LCD/st7789.c  **** 	ST7789_DrawLine(x0 - r, y0, x0 + r, y0, color);
 2715              		.loc 1 636 2 view .LVU567
 2716 006c CDF800B0 		str	fp, [sp]
 2717 0070 3B46     		mov	r3, r7
 2718 0072 3246     		mov	r2, r6
 2719 0074 3946     		mov	r1, r7
 2720 0076 2846     		mov	r0, r5
 2721 0078 FFF7FEFF 		bl	ST7789_DrawLine
 2722              	.LVL327:
 637:LCD/st7789.c  **** 
 638:LCD/st7789.c  **** 	while (x < y) {
 2723              		.loc 1 638 2 view .LVU568
 629:LCD/st7789.c  **** 	int16_t y = r;
 2724              		.loc 1 629 10 is_stmt 0 view .LVU569
 2725 007c 0023     		movs	r3, #0
 2726 007e 0393     		str	r3, [sp, #12]
 627:LCD/st7789.c  **** 	int16_t ddF_y = -2 * r;
 2727              		.loc 1 627 10 view .LVU570
 2728 0080 0123     		movs	r3, #1
 2729 0082 0493     		str	r3, [sp, #16]
 2730              		.loc 1 638 8 view .LVU571
 2731 0084 4BE0     		b	.L161
 2732              	.LVL328:
 2733              	.L166:
 639:LCD/st7789.c  **** 		if (f >= 0) {
 640:LCD/st7789.c  **** 			y--;
 2734              		.loc 1 640 4 is_stmt 1 view .LVU572
 2735              		.loc 1 640 5 is_stmt 0 view .LVU573
 2736 0086 029B     		ldr	r3, [sp, #8]
 2737 0088 013B     		subs	r3, r3, #1
 2738 008a 1BB2     		sxth	r3, r3
 2739 008c 0293     		str	r3, [sp, #8]
 2740              	.LVL329:
 641:LCD/st7789.c  **** 			ddF_y += 2;
 2741              		.loc 1 641 4 is_stmt 1 view .LVU574
 2742              		.loc 1 641 10 is_stmt 0 view .LVU575
 2743 008e 059B     		ldr	r3, [sp, #20]
 2744 0090 0233     		adds	r3, r3, #2
 2745 0092 1AB2     		sxth	r2, r3
 2746 0094 0592     		str	r2, [sp, #20]
 2747              	.LVL330:
 642:LCD/st7789.c  **** 			f += ddF_y;
 2748              		.loc 1 642 4 is_stmt 1 view .LVU576
 2749              		.loc 1 642 6 is_stmt 0 view .LVU577
 2750 0096 14FA83F3 		uxtah	r3, r4, r3
 2751 009a 1CB2     		sxth	r4, r3
 2752              	.LVL331:
 2753              	.L162:
 643:LCD/st7789.c  **** 		}
 644:LCD/st7789.c  **** 		x++;
 2754              		.loc 1 644 3 is_stmt 1 view .LVU578
 2755              		.loc 1 644 4 is_stmt 0 view .LVU579
 2756 009c 039B     		ldr	r3, [sp, #12]
 2757 009e 0133     		adds	r3, r3, #1
 2758 00a0 9DB2     		uxth	r5, r3
 2759 00a2 1BB2     		sxth	r3, r3
ARM GAS  C:\usertemp\cchsqz8b.s 			page 64


 2760 00a4 0393     		str	r3, [sp, #12]
 2761              	.LVL332:
 645:LCD/st7789.c  **** 		ddF_x += 2;
 2762              		.loc 1 645 3 is_stmt 1 view .LVU580
 2763              		.loc 1 645 9 is_stmt 0 view .LVU581
 2764 00a6 049B     		ldr	r3, [sp, #16]
 2765 00a8 0233     		adds	r3, r3, #2
 2766 00aa 1AB2     		sxth	r2, r3
 2767 00ac 0492     		str	r2, [sp, #16]
 2768              	.LVL333:
 646:LCD/st7789.c  **** 		f += ddF_x;
 2769              		.loc 1 646 3 is_stmt 1 view .LVU582
 2770              		.loc 1 646 5 is_stmt 0 view .LVU583
 2771 00ae 14FA83F3 		uxtah	r3, r4, r3
 2772 00b2 1CB2     		sxth	r4, r3
 2773              	.LVL334:
 647:LCD/st7789.c  **** 
 648:LCD/st7789.c  **** 		ST7789_DrawLine(x0 - x, y0 + y, x0 + x, y0 + y, color);
 2774              		.loc 1 648 3 is_stmt 1 view .LVU584
 2775 00b4 A8EB050A 		sub	r10, r8, r5
 2776 00b8 1FFA8AFA 		uxth	r10, r10
 2777 00bc BDF80860 		ldrh	r6, [sp, #8]
 2778 00c0 B919     		adds	r1, r7, r6
 2779 00c2 89B2     		uxth	r1, r1
 2780 00c4 08EB0509 		add	r9, r8, r5
 2781 00c8 1FFA89F9 		uxth	r9, r9
 2782 00cc CDF800B0 		str	fp, [sp]
 2783 00d0 0B46     		mov	r3, r1
 2784 00d2 4A46     		mov	r2, r9
 2785 00d4 5046     		mov	r0, r10
 2786 00d6 FFF7FEFF 		bl	ST7789_DrawLine
 2787              	.LVL335:
 649:LCD/st7789.c  **** 		ST7789_DrawLine(x0 + x, y0 - y, x0 - x, y0 - y, color);
 2788              		.loc 1 649 3 view .LVU585
 2789 00da B91B     		subs	r1, r7, r6
 2790 00dc 89B2     		uxth	r1, r1
 2791 00de CDF800B0 		str	fp, [sp]
 2792 00e2 0B46     		mov	r3, r1
 2793 00e4 5246     		mov	r2, r10
 2794 00e6 4846     		mov	r0, r9
 2795 00e8 FFF7FEFF 		bl	ST7789_DrawLine
 2796              	.LVL336:
 650:LCD/st7789.c  **** 
 651:LCD/st7789.c  **** 		ST7789_DrawLine(x0 + y, y0 + x, x0 - y, y0 + x, color);
 2797              		.loc 1 651 3 view .LVU586
 2798 00ec 08EB0609 		add	r9, r8, r6
 2799 00f0 1FFA89F9 		uxth	r9, r9
 2800 00f4 7919     		adds	r1, r7, r5
 2801 00f6 89B2     		uxth	r1, r1
 2802 00f8 A8EB0606 		sub	r6, r8, r6
 2803 00fc B6B2     		uxth	r6, r6
 2804 00fe CDF800B0 		str	fp, [sp]
 2805 0102 0B46     		mov	r3, r1
 2806 0104 3246     		mov	r2, r6
 2807 0106 4846     		mov	r0, r9
 2808 0108 FFF7FEFF 		bl	ST7789_DrawLine
 2809              	.LVL337:
ARM GAS  C:\usertemp\cchsqz8b.s 			page 65


 652:LCD/st7789.c  **** 		ST7789_DrawLine(x0 + y, y0 - x, x0 - y, y0 - x, color);
 2810              		.loc 1 652 3 view .LVU587
 2811 010c 791B     		subs	r1, r7, r5
 2812 010e 89B2     		uxth	r1, r1
 2813 0110 CDF800B0 		str	fp, [sp]
 2814 0114 0B46     		mov	r3, r1
 2815 0116 3246     		mov	r2, r6
 2816 0118 4846     		mov	r0, r9
 2817 011a FFF7FEFF 		bl	ST7789_DrawLine
 2818              	.LVL338:
 2819              	.L161:
 638:LCD/st7789.c  **** 		if (f >= 0) {
 2820              		.loc 1 638 11 view .LVU588
 2821 011e 039B     		ldr	r3, [sp, #12]
 2822 0120 029A     		ldr	r2, [sp, #8]
 2823 0122 9342     		cmp	r3, r2
 2824 0124 02DA     		bge	.L165
 639:LCD/st7789.c  **** 			y--;
 2825              		.loc 1 639 3 view .LVU589
 639:LCD/st7789.c  **** 			y--;
 2826              		.loc 1 639 6 is_stmt 0 view .LVU590
 2827 0126 002C     		cmp	r4, #0
 2828 0128 ADDA     		bge	.L166
 2829 012a B7E7     		b	.L162
 2830              	.L165:
 653:LCD/st7789.c  **** 	}
 654:LCD/st7789.c  **** 	ST7789_UnSelect();
 2831              		.loc 1 654 2 is_stmt 1 view .LVU591
 2832 012c 0122     		movs	r2, #1
 2833 012e 4FF48061 		mov	r1, #1024
 2834 0132 0348     		ldr	r0, .L167
 2835 0134 FFF7FEFF 		bl	HAL_GPIO_WritePin
 2836              	.LVL339:
 655:LCD/st7789.c  **** }
 2837              		.loc 1 655 1 is_stmt 0 view .LVU592
 2838 0138 07B0     		add	sp, sp, #28
 2839              	.LCFI65:
 2840              		.cfi_def_cfa_offset 36
 2841              		@ sp needed
 2842 013a BDE8F08F 		pop	{r4, r5, r6, r7, r8, r9, r10, fp, pc}
 2843              	.LVL340:
 2844              	.L168:
 2845              		.loc 1 655 1 view .LVU593
 2846 013e 00BF     		.align	2
 2847              	.L167:
 2848 0140 000C0242 		.word	1107430400
 2849              		.cfi_endproc
 2850              	.LFE177:
 2852              		.section	.text.ST7789_TearEffect,"ax",%progbits
 2853              		.align	1
 2854              		.global	ST7789_TearEffect
 2855              		.syntax unified
 2856              		.thumb
 2857              		.thumb_func
 2859              	ST7789_TearEffect:
 2860              	.LVL341:
 2861              	.LFB178:
ARM GAS  C:\usertemp\cchsqz8b.s 			page 66


 656:LCD/st7789.c  **** 
 657:LCD/st7789.c  **** 
 658:LCD/st7789.c  **** /**
 659:LCD/st7789.c  ****  * @brief Open/Close tearing effect line
 660:LCD/st7789.c  ****  * @param tear -> Whether to tear
 661:LCD/st7789.c  ****  * @return none
 662:LCD/st7789.c  ****  */
 663:LCD/st7789.c  **** void ST7789_TearEffect(uint8_t tear)
 664:LCD/st7789.c  **** {
 2862              		.loc 1 664 1 is_stmt 1 view -0
 2863              		.cfi_startproc
 2864              		@ args = 0, pretend = 0, frame = 0
 2865              		@ frame_needed = 0, uses_anonymous_args = 0
 2866              		.loc 1 664 1 is_stmt 0 view .LVU595
 2867 0000 10B5     		push	{r4, lr}
 2868              	.LCFI66:
 2869              		.cfi_def_cfa_offset 8
 2870              		.cfi_offset 4, -8
 2871              		.cfi_offset 14, -4
 2872 0002 0446     		mov	r4, r0
 665:LCD/st7789.c  **** 	ST7789_Select();
 2873              		.loc 1 665 2 is_stmt 1 view .LVU596
 2874 0004 0022     		movs	r2, #0
 2875 0006 4FF48061 		mov	r1, #1024
 2876 000a 0848     		ldr	r0, .L173
 2877              	.LVL342:
 2878              		.loc 1 665 2 is_stmt 0 view .LVU597
 2879 000c FFF7FEFF 		bl	HAL_GPIO_WritePin
 2880              	.LVL343:
 666:LCD/st7789.c  **** 	ST7789_WriteCommand(tear ? 0x35 /* TEON */ : 0x34 /* TEOFF */);
 2881              		.loc 1 666 2 is_stmt 1 view .LVU598
 2882 0010 4CB1     		cbz	r4, .L171
 2883              		.loc 1 666 2 is_stmt 0 discriminator 1 view .LVU599
 2884 0012 3520     		movs	r0, #53
 2885              	.L170:
 2886              		.loc 1 666 2 discriminator 4 view .LVU600
 2887 0014 FFF7FEFF 		bl	ST7789_WriteCommand
 2888              	.LVL344:
 667:LCD/st7789.c  **** 	ST7789_UnSelect();
 2889              		.loc 1 667 2 is_stmt 1 view .LVU601
 2890 0018 0122     		movs	r2, #1
 2891 001a 4FF48061 		mov	r1, #1024
 2892 001e 0348     		ldr	r0, .L173
 2893 0020 FFF7FEFF 		bl	HAL_GPIO_WritePin
 2894              	.LVL345:
 668:LCD/st7789.c  **** }
 2895              		.loc 1 668 1 is_stmt 0 view .LVU602
 2896 0024 10BD     		pop	{r4, pc}
 2897              	.LVL346:
 2898              	.L171:
 666:LCD/st7789.c  **** 	ST7789_WriteCommand(tear ? 0x35 /* TEON */ : 0x34 /* TEOFF */);
 2899              		.loc 1 666 2 discriminator 2 view .LVU603
 2900 0026 3420     		movs	r0, #52
 2901 0028 F4E7     		b	.L170
 2902              	.L174:
 2903 002a 00BF     		.align	2
 2904              	.L173:
ARM GAS  C:\usertemp\cchsqz8b.s 			page 67


 2905 002c 000C0242 		.word	1107430400
 2906              		.cfi_endproc
 2907              	.LFE178:
 2909              		.section	.rodata.ST7789_Test.str1.4,"aMS",%progbits,1
 2910              		.align	2
 2911              	.LC3:
 2912 0000 53706565 		.ascii	"Speed Test\000"
 2912      64205465 
 2912      737400
 2913 000b 00       		.align	2
 2914              	.LC4:
 2915 000c 466F6E74 		.ascii	"Font test.\000"
 2915      20746573 
 2915      742E00
 2916 0017 00       		.align	2
 2917              	.LC5:
 2918 0018 48656C6C 		.ascii	"Hello Steve!\000"
 2918      6F205374 
 2918      65766521 
 2918      00
 2919 0025 000000   		.align	2
 2920              	.LC6:
 2921 0028 52656374 		.ascii	"Rect./Line.\000"
 2921      2E2F4C69 
 2921      6E652E00 
 2922              		.align	2
 2923              	.LC7:
 2924 0034 46696C6C 		.ascii	"Filled Rect.\000"
 2924      65642052 
 2924      6563742E 
 2924      00
 2925 0041 000000   		.align	2
 2926              	.LC8:
 2927 0044 43697263 		.ascii	"Circle.\000"
 2927      6C652E00 
 2928              		.align	2
 2929              	.LC9:
 2930 004c 46696C6C 		.ascii	"Filled Cir.\000"
 2930      65642043 
 2930      69722E00 
 2931              		.align	2
 2932              	.LC10:
 2933 0058 54726961 		.ascii	"Triangle\000"
 2933      6E676C65 
 2933      00
 2934 0061 000000   		.align	2
 2935              	.LC11:
 2936 0064 46696C6C 		.ascii	"Filled Tri\000"
 2936      65642054 
 2936      726900
 2937              		.section	.text.ST7789_Test,"ax",%progbits
 2938              		.align	1
 2939              		.global	ST7789_Test
 2940              		.syntax unified
 2941              		.thumb
 2942              		.thumb_func
 2944              	ST7789_Test:
ARM GAS  C:\usertemp\cchsqz8b.s 			page 68


 2945              	.LFB179:
 669:LCD/st7789.c  **** 
 670:LCD/st7789.c  **** 
 671:LCD/st7789.c  **** /** 
 672:LCD/st7789.c  ****  * @brief A Simple test function for ST7789
 673:LCD/st7789.c  ****  * @param  none
 674:LCD/st7789.c  ****  * @return  none
 675:LCD/st7789.c  ****  */
 676:LCD/st7789.c  **** void ST7789_Test(void)
 677:LCD/st7789.c  **** {
 2946              		.loc 1 677 1 is_stmt 1 view -0
 2947              		.cfi_startproc
 2948              		@ args = 0, pretend = 0, frame = 0
 2949              		@ frame_needed = 0, uses_anonymous_args = 0
 2950 0000 2DE9F047 		push	{r4, r5, r6, r7, r8, r9, r10, lr}
 2951              	.LCFI67:
 2952              		.cfi_def_cfa_offset 32
 2953              		.cfi_offset 4, -32
 2954              		.cfi_offset 5, -28
 2955              		.cfi_offset 6, -24
 2956              		.cfi_offset 7, -20
 2957              		.cfi_offset 8, -16
 2958              		.cfi_offset 9, -12
 2959              		.cfi_offset 10, -8
 2960              		.cfi_offset 14, -4
 2961 0004 84B0     		sub	sp, sp, #16
 2962              	.LCFI68:
 2963              		.cfi_def_cfa_offset 48
 678:LCD/st7789.c  **** 	ST7789_Fill_Color(WHITE);
 2964              		.loc 1 678 2 view .LVU605
 2965 0006 4FF6FF70 		movw	r0, #65535
 2966 000a FFF7FEFF 		bl	ST7789_Fill_Color
 2967              	.LVL347:
 679:LCD/st7789.c  **** 	HAL_Delay(1000);
 2968              		.loc 1 679 2 view .LVU606
 2969 000e 4FF47A70 		mov	r0, #1000
 2970 0012 FFF7FEFF 		bl	HAL_Delay
 2971              	.LVL348:
 680:LCD/st7789.c  **** 	ST7789_WriteString(10, 20, "Speed Test", Font_11x18, RED, WHITE);
 2972              		.loc 1 680 2 view .LVU607
 2973 0016 AD4C     		ldr	r4, .L177
 2974 0018 4FF6FF75 		movw	r5, #65535
 2975 001c 0295     		str	r5, [sp, #8]
 2976 001e 4FF47846 		mov	r6, #63488
 2977 0022 0196     		str	r6, [sp, #4]
 2978 0024 6368     		ldr	r3, [r4, #4]
 2979 0026 0093     		str	r3, [sp]
 2980 0028 2368     		ldr	r3, [r4]
 2981 002a A94A     		ldr	r2, .L177+4
 2982 002c 1421     		movs	r1, #20
 2983 002e 0A20     		movs	r0, #10
 2984 0030 FFF7FEFF 		bl	ST7789_WriteString
 2985              	.LVL349:
 681:LCD/st7789.c  **** 	HAL_Delay(1000);
 2986              		.loc 1 681 2 view .LVU608
 2987 0034 4FF47A70 		mov	r0, #1000
 2988 0038 FFF7FEFF 		bl	HAL_Delay
ARM GAS  C:\usertemp\cchsqz8b.s 			page 69


 2989              	.LVL350:
 682:LCD/st7789.c  **** 	ST7789_Fill_Color(CYAN);
 2990              		.loc 1 682 2 view .LVU609
 2991 003c 47F6FF70 		movw	r0, #32767
 2992 0040 FFF7FEFF 		bl	ST7789_Fill_Color
 2993              	.LVL351:
 683:LCD/st7789.c  ****     HAL_Delay(500);
 2994              		.loc 1 683 5 view .LVU610
 2995 0044 4FF4FA70 		mov	r0, #500
 2996 0048 FFF7FEFF 		bl	HAL_Delay
 2997              	.LVL352:
 684:LCD/st7789.c  **** 	ST7789_Fill_Color(RED);
 2998              		.loc 1 684 2 view .LVU611
 2999 004c 3046     		mov	r0, r6
 3000 004e FFF7FEFF 		bl	ST7789_Fill_Color
 3001              	.LVL353:
 685:LCD/st7789.c  ****     HAL_Delay(500);
 3002              		.loc 1 685 5 view .LVU612
 3003 0052 4FF4FA70 		mov	r0, #500
 3004 0056 FFF7FEFF 		bl	HAL_Delay
 3005              	.LVL354:
 686:LCD/st7789.c  **** 	ST7789_Fill_Color(BLUE);
 3006              		.loc 1 686 2 view .LVU613
 3007 005a 1F20     		movs	r0, #31
 3008 005c FFF7FEFF 		bl	ST7789_Fill_Color
 3009              	.LVL355:
 687:LCD/st7789.c  ****     HAL_Delay(500);
 3010              		.loc 1 687 5 view .LVU614
 3011 0060 4FF4FA70 		mov	r0, #500
 3012 0064 FFF7FEFF 		bl	HAL_Delay
 3013              	.LVL356:
 688:LCD/st7789.c  **** 	ST7789_Fill_Color(GREEN);
 3014              		.loc 1 688 2 view .LVU615
 3015 0068 4FF4FC60 		mov	r0, #2016
 3016 006c FFF7FEFF 		bl	ST7789_Fill_Color
 3017              	.LVL357:
 689:LCD/st7789.c  ****     HAL_Delay(500);
 3018              		.loc 1 689 5 view .LVU616
 3019 0070 4FF4FA70 		mov	r0, #500
 3020 0074 FFF7FEFF 		bl	HAL_Delay
 3021              	.LVL358:
 690:LCD/st7789.c  **** 	ST7789_Fill_Color(YELLOW);
 3022              		.loc 1 690 2 view .LVU617
 3023 0078 4FF6E070 		movw	r0, #65504
 3024 007c FFF7FEFF 		bl	ST7789_Fill_Color
 3025              	.LVL359:
 691:LCD/st7789.c  ****     HAL_Delay(500);
 3026              		.loc 1 691 5 view .LVU618
 3027 0080 4FF4FA70 		mov	r0, #500
 3028 0084 FFF7FEFF 		bl	HAL_Delay
 3029              	.LVL360:
 692:LCD/st7789.c  **** 	ST7789_Fill_Color(BROWN);
 3030              		.loc 1 692 2 view .LVU619
 3031 0088 4BF64040 		movw	r0, #48192
 3032 008c FFF7FEFF 		bl	ST7789_Fill_Color
 3033              	.LVL361:
 693:LCD/st7789.c  ****     HAL_Delay(500);
ARM GAS  C:\usertemp\cchsqz8b.s 			page 70


 3034              		.loc 1 693 5 view .LVU620
 3035 0090 4FF4FA70 		mov	r0, #500
 3036 0094 FFF7FEFF 		bl	HAL_Delay
 3037              	.LVL362:
 694:LCD/st7789.c  **** 	ST7789_Fill_Color(DARKBLUE);
 3038              		.loc 1 694 2 view .LVU621
 3039 0098 40F2CF10 		movw	r0, #463
 3040 009c FFF7FEFF 		bl	ST7789_Fill_Color
 3041              	.LVL363:
 695:LCD/st7789.c  ****     HAL_Delay(500);
 3042              		.loc 1 695 5 view .LVU622
 3043 00a0 4FF4FA70 		mov	r0, #500
 3044 00a4 FFF7FEFF 		bl	HAL_Delay
 3045              	.LVL364:
 696:LCD/st7789.c  **** 	ST7789_Fill_Color(MAGENTA);
 3046              		.loc 1 696 2 view .LVU623
 3047 00a8 4FF61F00 		movw	r0, #63519
 3048 00ac FFF7FEFF 		bl	ST7789_Fill_Color
 3049              	.LVL365:
 697:LCD/st7789.c  ****     HAL_Delay(500);
 3050              		.loc 1 697 5 view .LVU624
 3051 00b0 4FF4FA70 		mov	r0, #500
 3052 00b4 FFF7FEFF 		bl	HAL_Delay
 3053              	.LVL366:
 698:LCD/st7789.c  **** 	ST7789_Fill_Color(LIGHTGREEN);
 3054              		.loc 1 698 2 view .LVU625
 3055 00b8 48F21F40 		movw	r0, #33823
 3056 00bc FFF7FEFF 		bl	ST7789_Fill_Color
 3057              	.LVL367:
 699:LCD/st7789.c  ****     HAL_Delay(500);
 3058              		.loc 1 699 5 view .LVU626
 3059 00c0 4FF4FA70 		mov	r0, #500
 3060 00c4 FFF7FEFF 		bl	HAL_Delay
 3061              	.LVL368:
 700:LCD/st7789.c  **** 	ST7789_Fill_Color(LGRAY);
 3062              		.loc 1 700 2 view .LVU627
 3063 00c8 4CF21860 		movw	r0, #50712
 3064 00cc FFF7FEFF 		bl	ST7789_Fill_Color
 3065              	.LVL369:
 701:LCD/st7789.c  ****     HAL_Delay(500);
 3066              		.loc 1 701 5 view .LVU628
 3067 00d0 4FF4FA70 		mov	r0, #500
 3068 00d4 FFF7FEFF 		bl	HAL_Delay
 3069              	.LVL370:
 702:LCD/st7789.c  **** 	ST7789_Fill_Color(LBBLUE);
 3070              		.loc 1 702 2 view .LVU629
 3071 00d8 42F61230 		movw	r0, #11026
 3072 00dc FFF7FEFF 		bl	ST7789_Fill_Color
 3073              	.LVL371:
 703:LCD/st7789.c  ****     HAL_Delay(500);
 3074              		.loc 1 703 5 view .LVU630
 3075 00e0 4FF4FA70 		mov	r0, #500
 3076 00e4 FFF7FEFF 		bl	HAL_Delay
 3077              	.LVL372:
 704:LCD/st7789.c  **** 	ST7789_Fill_Color(WHITE);
 3078              		.loc 1 704 2 view .LVU631
 3079 00e8 2846     		mov	r0, r5
ARM GAS  C:\usertemp\cchsqz8b.s 			page 71


 3080 00ea FFF7FEFF 		bl	ST7789_Fill_Color
 3081              	.LVL373:
 705:LCD/st7789.c  **** 	HAL_Delay(500);
 3082              		.loc 1 705 2 view .LVU632
 3083 00ee 4FF4FA70 		mov	r0, #500
 3084 00f2 FFF7FEFF 		bl	HAL_Delay
 3085              	.LVL374:
 706:LCD/st7789.c  **** 
 707:LCD/st7789.c  **** 	ST7789_WriteString(10, 10, "Font test.", Font_16x26, GBLUE, WHITE);
 3086              		.loc 1 707 2 view .LVU633
 3087 00f6 774F     		ldr	r7, .L177+8
 3088 00f8 0295     		str	r5, [sp, #8]
 3089 00fa 40F2FF73 		movw	r3, #2047
 3090 00fe 0193     		str	r3, [sp, #4]
 3091 0100 7B68     		ldr	r3, [r7, #4]
 3092 0102 0093     		str	r3, [sp]
 3093 0104 3B68     		ldr	r3, [r7]
 3094 0106 744A     		ldr	r2, .L177+12
 3095 0108 0A21     		movs	r1, #10
 3096 010a 0846     		mov	r0, r1
 3097 010c FFF7FEFF 		bl	ST7789_WriteString
 3098              	.LVL375:
 708:LCD/st7789.c  **** 	ST7789_WriteString(10, 50, "Hello Steve!", Font_7x10, RED, WHITE);
 3099              		.loc 1 708 2 view .LVU634
 3100 0110 724B     		ldr	r3, .L177+16
 3101 0112 DFF8E891 		ldr	r9, .L177+48
 3102 0116 0295     		str	r5, [sp, #8]
 3103 0118 0196     		str	r6, [sp, #4]
 3104 011a 5A68     		ldr	r2, [r3, #4]
 3105 011c 0092     		str	r2, [sp]
 3106 011e 1B68     		ldr	r3, [r3]
 3107 0120 4A46     		mov	r2, r9
 3108 0122 3221     		movs	r1, #50
 3109 0124 0A20     		movs	r0, #10
 3110 0126 FFF7FEFF 		bl	ST7789_WriteString
 3111              	.LVL376:
 709:LCD/st7789.c  **** 	ST7789_WriteString(10, 75, "Hello Steve!", Font_11x18, YELLOW, WHITE);
 3112              		.loc 1 709 2 view .LVU635
 3113 012a 0295     		str	r5, [sp, #8]
 3114 012c 4FF6E078 		movw	r8, #65504
 3115 0130 CDF80480 		str	r8, [sp, #4]
 3116 0134 6368     		ldr	r3, [r4, #4]
 3117 0136 0093     		str	r3, [sp]
 3118 0138 2368     		ldr	r3, [r4]
 3119 013a 4A46     		mov	r2, r9
 3120 013c 4B21     		movs	r1, #75
 3121 013e 0A20     		movs	r0, #10
 3122 0140 FFF7FEFF 		bl	ST7789_WriteString
 3123              	.LVL377:
 710:LCD/st7789.c  **** 	ST7789_WriteString(10, 100, "Hello Steve!", Font_16x26, MAGENTA, WHITE);
 3124              		.loc 1 710 2 view .LVU636
 3125 0144 0295     		str	r5, [sp, #8]
 3126 0146 4FF61F03 		movw	r3, #63519
 3127 014a 0193     		str	r3, [sp, #4]
 3128 014c 7B68     		ldr	r3, [r7, #4]
 3129 014e 0093     		str	r3, [sp]
 3130 0150 3B68     		ldr	r3, [r7]
ARM GAS  C:\usertemp\cchsqz8b.s 			page 72


 3131 0152 4A46     		mov	r2, r9
 3132 0154 6421     		movs	r1, #100
 3133 0156 0A20     		movs	r0, #10
 3134 0158 FFF7FEFF 		bl	ST7789_WriteString
 3135              	.LVL378:
 711:LCD/st7789.c  **** 	HAL_Delay(1000);
 3136              		.loc 1 711 2 view .LVU637
 3137 015c 4FF47A70 		mov	r0, #1000
 3138 0160 FFF7FEFF 		bl	HAL_Delay
 3139              	.LVL379:
 712:LCD/st7789.c  **** 
 713:LCD/st7789.c  **** 	ST7789_Fill_Color(RED);
 3140              		.loc 1 713 2 view .LVU638
 3141 0164 3046     		mov	r0, r6
 3142 0166 FFF7FEFF 		bl	ST7789_Fill_Color
 3143              	.LVL380:
 714:LCD/st7789.c  **** 	ST7789_WriteString(10, 10, "Rect./Line.", Font_11x18, YELLOW, BLACK);
 3144              		.loc 1 714 2 view .LVU639
 3145 016a 0027     		movs	r7, #0
 3146 016c 0297     		str	r7, [sp, #8]
 3147 016e CDF80480 		str	r8, [sp, #4]
 3148 0172 6368     		ldr	r3, [r4, #4]
 3149 0174 0093     		str	r3, [sp]
 3150 0176 2368     		ldr	r3, [r4]
 3151 0178 594A     		ldr	r2, .L177+20
 3152 017a 0A21     		movs	r1, #10
 3153 017c 0846     		mov	r0, r1
 3154 017e FFF7FEFF 		bl	ST7789_WriteString
 3155              	.LVL381:
 715:LCD/st7789.c  **** 	ST7789_DrawRectangle(30, 30, 100, 100, WHITE);
 3156              		.loc 1 715 2 view .LVU640
 3157 0182 0095     		str	r5, [sp]
 3158 0184 6423     		movs	r3, #100
 3159 0186 1A46     		mov	r2, r3
 3160 0188 1E21     		movs	r1, #30
 3161 018a 0846     		mov	r0, r1
 3162 018c FFF7FEFF 		bl	ST7789_DrawRectangle
 3163              	.LVL382:
 716:LCD/st7789.c  **** 	HAL_Delay(1000);
 3164              		.loc 1 716 2 view .LVU641
 3165 0190 4FF47A70 		mov	r0, #1000
 3166 0194 FFF7FEFF 		bl	HAL_Delay
 3167              	.LVL383:
 717:LCD/st7789.c  **** 
 718:LCD/st7789.c  **** 	ST7789_Fill_Color(RED);
 3168              		.loc 1 718 2 view .LVU642
 3169 0198 3046     		mov	r0, r6
 3170 019a FFF7FEFF 		bl	ST7789_Fill_Color
 3171              	.LVL384:
 719:LCD/st7789.c  **** 	ST7789_WriteString(10, 10, "Filled Rect.", Font_11x18, YELLOW, BLACK);
 3172              		.loc 1 719 2 view .LVU643
 3173 019e 0297     		str	r7, [sp, #8]
 3174 01a0 CDF80480 		str	r8, [sp, #4]
 3175 01a4 6368     		ldr	r3, [r4, #4]
 3176 01a6 0093     		str	r3, [sp]
 3177 01a8 2368     		ldr	r3, [r4]
 3178 01aa 4E4A     		ldr	r2, .L177+24
ARM GAS  C:\usertemp\cchsqz8b.s 			page 73


 3179 01ac 0A21     		movs	r1, #10
 3180 01ae 0846     		mov	r0, r1
 3181 01b0 FFF7FEFF 		bl	ST7789_WriteString
 3182              	.LVL385:
 720:LCD/st7789.c  **** 	ST7789_DrawFilledRectangle(30, 30, 50, 50, WHITE);
 3183              		.loc 1 720 2 view .LVU644
 3184 01b4 0095     		str	r5, [sp]
 3185 01b6 3223     		movs	r3, #50
 3186 01b8 1A46     		mov	r2, r3
 3187 01ba 1E21     		movs	r1, #30
 3188 01bc 0846     		mov	r0, r1
 3189 01be FFF7FEFF 		bl	ST7789_DrawFilledRectangle
 3190              	.LVL386:
 721:LCD/st7789.c  **** 	HAL_Delay(1000);
 3191              		.loc 1 721 2 view .LVU645
 3192 01c2 4FF47A70 		mov	r0, #1000
 3193 01c6 FFF7FEFF 		bl	HAL_Delay
 3194              	.LVL387:
 722:LCD/st7789.c  **** 
 723:LCD/st7789.c  **** 	ST7789_Fill_Color(RED);
 3195              		.loc 1 723 2 view .LVU646
 3196 01ca 3046     		mov	r0, r6
 3197 01cc FFF7FEFF 		bl	ST7789_Fill_Color
 3198              	.LVL388:
 724:LCD/st7789.c  **** 	ST7789_WriteString(10, 10, "Circle.", Font_11x18, YELLOW, BLACK);
 3199              		.loc 1 724 2 view .LVU647
 3200 01d0 0297     		str	r7, [sp, #8]
 3201 01d2 CDF80480 		str	r8, [sp, #4]
 3202 01d6 6368     		ldr	r3, [r4, #4]
 3203 01d8 0093     		str	r3, [sp]
 3204 01da 2368     		ldr	r3, [r4]
 3205 01dc 424A     		ldr	r2, .L177+28
 3206 01de 0A21     		movs	r1, #10
 3207 01e0 0846     		mov	r0, r1
 3208 01e2 FFF7FEFF 		bl	ST7789_WriteString
 3209              	.LVL389:
 725:LCD/st7789.c  **** 	ST7789_DrawCircle(60, 60, 25, WHITE);
 3210              		.loc 1 725 2 view .LVU648
 3211 01e6 2B46     		mov	r3, r5
 3212 01e8 1922     		movs	r2, #25
 3213 01ea 3C21     		movs	r1, #60
 3214 01ec 0846     		mov	r0, r1
 3215 01ee FFF7FEFF 		bl	ST7789_DrawCircle
 3216              	.LVL390:
 726:LCD/st7789.c  **** 	HAL_Delay(1000);
 3217              		.loc 1 726 2 view .LVU649
 3218 01f2 4FF47A70 		mov	r0, #1000
 3219 01f6 FFF7FEFF 		bl	HAL_Delay
 3220              	.LVL391:
 727:LCD/st7789.c  **** 
 728:LCD/st7789.c  **** 	ST7789_Fill_Color(RED);
 3221              		.loc 1 728 2 view .LVU650
 3222 01fa 3046     		mov	r0, r6
 3223 01fc FFF7FEFF 		bl	ST7789_Fill_Color
 3224              	.LVL392:
 729:LCD/st7789.c  **** 	ST7789_WriteString(10, 10, "Filled Cir.", Font_11x18, YELLOW, BLACK);
 3225              		.loc 1 729 2 view .LVU651
ARM GAS  C:\usertemp\cchsqz8b.s 			page 74


 3226 0200 0297     		str	r7, [sp, #8]
 3227 0202 CDF80480 		str	r8, [sp, #4]
 3228 0206 6368     		ldr	r3, [r4, #4]
 3229 0208 0093     		str	r3, [sp]
 3230 020a 2368     		ldr	r3, [r4]
 3231 020c 374A     		ldr	r2, .L177+32
 3232 020e 0A21     		movs	r1, #10
 3233 0210 0846     		mov	r0, r1
 3234 0212 FFF7FEFF 		bl	ST7789_WriteString
 3235              	.LVL393:
 730:LCD/st7789.c  **** 	ST7789_DrawFilledCircle(60, 60, 25, WHITE);
 3236              		.loc 1 730 2 view .LVU652
 3237 0216 2B46     		mov	r3, r5
 3238 0218 1922     		movs	r2, #25
 3239 021a 3C21     		movs	r1, #60
 3240 021c 0846     		mov	r0, r1
 3241 021e FFF7FEFF 		bl	ST7789_DrawFilledCircle
 3242              	.LVL394:
 731:LCD/st7789.c  **** 	HAL_Delay(1000);
 3243              		.loc 1 731 2 view .LVU653
 3244 0222 4FF47A70 		mov	r0, #1000
 3245 0226 FFF7FEFF 		bl	HAL_Delay
 3246              	.LVL395:
 732:LCD/st7789.c  **** 
 733:LCD/st7789.c  **** 	ST7789_Fill_Color(RED);
 3247              		.loc 1 733 2 view .LVU654
 3248 022a 3046     		mov	r0, r6
 3249 022c FFF7FEFF 		bl	ST7789_Fill_Color
 3250              	.LVL396:
 734:LCD/st7789.c  **** 	ST7789_WriteString(10, 10, "Triangle", Font_11x18, YELLOW, BLACK);
 3251              		.loc 1 734 2 view .LVU655
 3252 0230 0297     		str	r7, [sp, #8]
 3253 0232 CDF80480 		str	r8, [sp, #4]
 3254 0236 6368     		ldr	r3, [r4, #4]
 3255 0238 0093     		str	r3, [sp]
 3256 023a 2368     		ldr	r3, [r4]
 3257 023c 2C4A     		ldr	r2, .L177+36
 3258 023e 0A21     		movs	r1, #10
 3259 0240 0846     		mov	r0, r1
 3260 0242 FFF7FEFF 		bl	ST7789_WriteString
 3261              	.LVL397:
 735:LCD/st7789.c  **** 	ST7789_DrawTriangle(30, 30, 30, 70, 60, 40, WHITE);
 3262              		.loc 1 735 2 view .LVU656
 3263 0246 0295     		str	r5, [sp, #8]
 3264 0248 4FF0280A 		mov	r10, #40
 3265 024c CDF804A0 		str	r10, [sp, #4]
 3266 0250 4FF03C09 		mov	r9, #60
 3267 0254 CDF80090 		str	r9, [sp]
 3268 0258 4623     		movs	r3, #70
 3269 025a 1E22     		movs	r2, #30
 3270 025c 1146     		mov	r1, r2
 3271 025e 1046     		mov	r0, r2
 3272 0260 FFF7FEFF 		bl	ST7789_DrawTriangle
 3273              	.LVL398:
 736:LCD/st7789.c  **** 	HAL_Delay(1000);
 3274              		.loc 1 736 2 view .LVU657
 3275 0264 4FF47A70 		mov	r0, #1000
ARM GAS  C:\usertemp\cchsqz8b.s 			page 75


 3276 0268 FFF7FEFF 		bl	HAL_Delay
 3277              	.LVL399:
 737:LCD/st7789.c  **** 
 738:LCD/st7789.c  **** 	ST7789_Fill_Color(RED);
 3278              		.loc 1 738 2 view .LVU658
 3279 026c 3046     		mov	r0, r6
 3280 026e FFF7FEFF 		bl	ST7789_Fill_Color
 3281              	.LVL400:
 739:LCD/st7789.c  **** 	ST7789_WriteString(10, 10, "Filled Tri", Font_11x18, YELLOW, BLACK);
 3282              		.loc 1 739 2 view .LVU659
 3283 0272 0297     		str	r7, [sp, #8]
 3284 0274 CDF80480 		str	r8, [sp, #4]
 3285 0278 6368     		ldr	r3, [r4, #4]
 3286 027a 0093     		str	r3, [sp]
 3287 027c 2368     		ldr	r3, [r4]
 3288 027e 1D4A     		ldr	r2, .L177+40
 3289 0280 0A21     		movs	r1, #10
 3290 0282 0846     		mov	r0, r1
 3291 0284 FFF7FEFF 		bl	ST7789_WriteString
 3292              	.LVL401:
 740:LCD/st7789.c  **** 	ST7789_DrawFilledTriangle(30, 30, 30, 70, 60, 40, WHITE);
 3293              		.loc 1 740 2 view .LVU660
 3294 0288 0295     		str	r5, [sp, #8]
 3295 028a CDF804A0 		str	r10, [sp, #4]
 3296 028e CDF80090 		str	r9, [sp]
 3297 0292 4623     		movs	r3, #70
 3298 0294 1E22     		movs	r2, #30
 3299 0296 1146     		mov	r1, r2
 3300 0298 1046     		mov	r0, r2
 3301 029a FFF7FEFF 		bl	ST7789_DrawFilledTriangle
 3302              	.LVL402:
 741:LCD/st7789.c  **** 	HAL_Delay(1000);
 3303              		.loc 1 741 2 view .LVU661
 3304 029e 4FF47A70 		mov	r0, #1000
 3305 02a2 FFF7FEFF 		bl	HAL_Delay
 3306              	.LVL403:
 742:LCD/st7789.c  **** 
 743:LCD/st7789.c  **** 	//	If FLASH cannot storage anymore datas, please delete codes below.
 744:LCD/st7789.c  **** 	ST7789_Fill_Color(WHITE);
 3307              		.loc 1 744 2 view .LVU662
 3308 02a6 2846     		mov	r0, r5
 3309 02a8 FFF7FEFF 		bl	ST7789_Fill_Color
 3310              	.LVL404:
 745:LCD/st7789.c  **** 	ST7789_DrawImage(0, 0, 128, 128, (uint16_t *)saber);
 3311              		.loc 1 745 2 view .LVU663
 3312 02ac 124B     		ldr	r3, .L177+44
 3313 02ae 0093     		str	r3, [sp]
 3314 02b0 8023     		movs	r3, #128
 3315 02b2 1A46     		mov	r2, r3
 3316 02b4 3946     		mov	r1, r7
 3317 02b6 3846     		mov	r0, r7
 3318 02b8 FFF7FEFF 		bl	ST7789_DrawImage
 3319              	.LVL405:
 746:LCD/st7789.c  **** 	HAL_Delay(3000);
 3320              		.loc 1 746 2 view .LVU664
 3321 02bc 40F6B830 		movw	r0, #3000
 3322 02c0 FFF7FEFF 		bl	HAL_Delay
ARM GAS  C:\usertemp\cchsqz8b.s 			page 76


 3323              	.LVL406:
 747:LCD/st7789.c  **** }...
 3324              		.loc 1 747 1 is_stmt 0 view .LVU665
 3325 02c4 04B0     		add	sp, sp, #16
 3326              	.LCFI69:
 3327              		.cfi_def_cfa_offset 32
 3328              		@ sp needed
 3329 02c6 BDE8F087 		pop	{r4, r5, r6, r7, r8, r9, r10, pc}
 3330              	.L178:
 3331 02ca 00BF     		.align	2
 3332              	.L177:
 3333 02cc 00000000 		.word	Font_11x18
 3334 02d0 00000000 		.word	.LC3
 3335 02d4 00000000 		.word	Font_16x26
 3336 02d8 0C000000 		.word	.LC4
 3337 02dc 00000000 		.word	Font_7x10
 3338 02e0 28000000 		.word	.LC6
 3339 02e4 34000000 		.word	.LC7
 3340 02e8 44000000 		.word	.LC8
 3341 02ec 4C000000 		.word	.LC9
 3342 02f0 58000000 		.word	.LC10
 3343 02f4 64000000 		.word	.LC11
 3344 02f8 00000000 		.word	saber
 3345 02fc 18000000 		.word	.LC5
 3346              		.cfi_endproc
 3347              	.LFE179:
 3349              		.section	.rodata
 3350              		.align	2
 3351              		.set	.LANCHOR0,. + 0
 3352              	.LC0:
 3353 0000 0C0C0033 		.ascii	"\014\014\00033"
 3353      33
 3354              		.text
 3355              	.Letext0:
 3356              		.file 2 "D:/armtoolchain/arm-gnu-toolchain-13.3.rel1-mingw-w64-i686-arm-none-eabi/arm-none-eabi/in
 3357              		.file 3 "D:/armtoolchain/arm-gnu-toolchain-13.3.rel1-mingw-w64-i686-arm-none-eabi/arm-none-eabi/in
 3358              		.file 4 "LCD/fonts.h"
 3359              		.file 5 "Drivers/CMSIS/Device/ST/STM32U5xx/Include/stm32u575xx.h"
 3360              		.file 6 "D:/armtoolchain/arm-gnu-toolchain-13.3.rel1-mingw-w64-i686-arm-none-eabi/lib/gcc/arm-none
 3361              		.file 7 "Drivers/STM32U5xx_HAL_Driver/Inc/stm32u5xx_hal_def.h"
 3362              		.file 8 "Drivers/STM32U5xx_HAL_Driver/Inc/stm32u5xx_hal_gpio.h"
 3363              		.file 9 "Drivers/STM32U5xx_HAL_Driver/Inc/stm32u5xx_hal_dma.h"
 3364              		.file 10 "Drivers/STM32U5xx_HAL_Driver/Inc/stm32u5xx_hal_dma_ex.h"
 3365              		.file 11 "Drivers/STM32U5xx_HAL_Driver/Inc/stm32u5xx_hal_spi.h"
 3366              		.file 12 "LCD/st7789.h"
 3367              		.file 13 "Drivers/STM32U5xx_HAL_Driver/Inc/stm32u5xx_hal.h"
ARM GAS  C:\usertemp\cchsqz8b.s 			page 77

