ARM GAS  C:\usertemp\ccMMWJQW.s 			page 1


   1              		.cpu cortex-m33
   2              		.arch armv8-m.main
   3              		.fpu fpv4-sp-d16
   4              		.arch_extension dsp
   5              		.eabi_attribute 27, 1
   6              		.eabi_attribute 28, 1
   7              		.eabi_attribute 20, 1
   8              		.eabi_attribute 21, 1
   9              		.eabi_attribute 23, 3
  10              		.eabi_attribute 24, 1
  11              		.eabi_attribute 25, 1
  12              		.eabi_attribute 26, 1
  13              		.eabi_attribute 30, 1
  14              		.eabi_attribute 34, 1
  15              		.eabi_attribute 18, 4
  16              		.file	"stm32u5xx_hal_dcmi.c"
  17              		.text
  18              	.Ltext0:
  19              		.cfi_sections	.debug_frame
  20              		.file 1 "Drivers/STM32U5xx_HAL_Driver/Src/stm32u5xx_hal_dcmi.c"
  21              		.section	.text.DCMI_DMAXferCplt,"ax",%progbits
  22              		.align	1
  23              		.syntax unified
  24              		.thumb
  25              		.thumb_func
  27              	DCMI_DMAXferCplt:
  28              	.LVL0:
  29              	.LFB176:
   1:Drivers/STM32U5xx_HAL_Driver/Src/stm32u5xx_hal_dcmi.c **** /**
   2:Drivers/STM32U5xx_HAL_Driver/Src/stm32u5xx_hal_dcmi.c ****   ******************************************************************************
   3:Drivers/STM32U5xx_HAL_Driver/Src/stm32u5xx_hal_dcmi.c ****   * @file    stm32u5xx_hal_dcmi.c
   4:Drivers/STM32U5xx_HAL_Driver/Src/stm32u5xx_hal_dcmi.c ****   * @author  MCD Application Team
   5:Drivers/STM32U5xx_HAL_Driver/Src/stm32u5xx_hal_dcmi.c ****   * @brief   DCMI HAL module driver
   6:Drivers/STM32U5xx_HAL_Driver/Src/stm32u5xx_hal_dcmi.c ****   *          This file provides firmware functions to manage the following
   7:Drivers/STM32U5xx_HAL_Driver/Src/stm32u5xx_hal_dcmi.c ****   *          functionalities of the Digital Camera Interface (DCMI) peripheral:
   8:Drivers/STM32U5xx_HAL_Driver/Src/stm32u5xx_hal_dcmi.c ****   *           + Initialization and de-initialization functions
   9:Drivers/STM32U5xx_HAL_Driver/Src/stm32u5xx_hal_dcmi.c ****   *           + IO operation functions
  10:Drivers/STM32U5xx_HAL_Driver/Src/stm32u5xx_hal_dcmi.c ****   *           + Peripheral Control functions
  11:Drivers/STM32U5xx_HAL_Driver/Src/stm32u5xx_hal_dcmi.c ****   *           + Peripheral State and Error functions
  12:Drivers/STM32U5xx_HAL_Driver/Src/stm32u5xx_hal_dcmi.c ****   *
  13:Drivers/STM32U5xx_HAL_Driver/Src/stm32u5xx_hal_dcmi.c ****   ******************************************************************************
  14:Drivers/STM32U5xx_HAL_Driver/Src/stm32u5xx_hal_dcmi.c ****   * @attention
  15:Drivers/STM32U5xx_HAL_Driver/Src/stm32u5xx_hal_dcmi.c ****   *
  16:Drivers/STM32U5xx_HAL_Driver/Src/stm32u5xx_hal_dcmi.c ****   * Copyright (c) 2021 STMicroelectronics.
  17:Drivers/STM32U5xx_HAL_Driver/Src/stm32u5xx_hal_dcmi.c ****   * All rights reserved.
  18:Drivers/STM32U5xx_HAL_Driver/Src/stm32u5xx_hal_dcmi.c ****   *
  19:Drivers/STM32U5xx_HAL_Driver/Src/stm32u5xx_hal_dcmi.c ****   * This software is licensed under terms that can be found in the LICENSE file
  20:Drivers/STM32U5xx_HAL_Driver/Src/stm32u5xx_hal_dcmi.c ****   * in the root directory of this software component.
  21:Drivers/STM32U5xx_HAL_Driver/Src/stm32u5xx_hal_dcmi.c ****   * If no LICENSE file comes with this software, it is provided AS-IS.
  22:Drivers/STM32U5xx_HAL_Driver/Src/stm32u5xx_hal_dcmi.c ****   *
  23:Drivers/STM32U5xx_HAL_Driver/Src/stm32u5xx_hal_dcmi.c ****   ******************************************************************************
  24:Drivers/STM32U5xx_HAL_Driver/Src/stm32u5xx_hal_dcmi.c ****   @verbatim
  25:Drivers/STM32U5xx_HAL_Driver/Src/stm32u5xx_hal_dcmi.c ****   ==============================================================================
  26:Drivers/STM32U5xx_HAL_Driver/Src/stm32u5xx_hal_dcmi.c ****                         ##### How to use this driver #####
  27:Drivers/STM32U5xx_HAL_Driver/Src/stm32u5xx_hal_dcmi.c ****   ==============================================================================
  28:Drivers/STM32U5xx_HAL_Driver/Src/stm32u5xx_hal_dcmi.c ****   [..]
  29:Drivers/STM32U5xx_HAL_Driver/Src/stm32u5xx_hal_dcmi.c ****       The sequence below describes how to use this driver to capture image
ARM GAS  C:\usertemp\ccMMWJQW.s 			page 2


  30:Drivers/STM32U5xx_HAL_Driver/Src/stm32u5xx_hal_dcmi.c ****       from a camera module connected to the DCMI Interface.
  31:Drivers/STM32U5xx_HAL_Driver/Src/stm32u5xx_hal_dcmi.c ****       This sequence does not take into account the configuration of the
  32:Drivers/STM32U5xx_HAL_Driver/Src/stm32u5xx_hal_dcmi.c ****       camera module, which should be made before to configure and enable
  33:Drivers/STM32U5xx_HAL_Driver/Src/stm32u5xx_hal_dcmi.c ****       the DCMI to capture images.
  34:Drivers/STM32U5xx_HAL_Driver/Src/stm32u5xx_hal_dcmi.c **** 
  35:Drivers/STM32U5xx_HAL_Driver/Src/stm32u5xx_hal_dcmi.c ****     (#) Program the required configuration through following parameters:
  36:Drivers/STM32U5xx_HAL_Driver/Src/stm32u5xx_hal_dcmi.c ****         horizontal and vertical polarity, pixel clock polarity, Capture Rate,
  37:Drivers/STM32U5xx_HAL_Driver/Src/stm32u5xx_hal_dcmi.c ****         Synchronization Mode, code of the frame delimiter and data width
  38:Drivers/STM32U5xx_HAL_Driver/Src/stm32u5xx_hal_dcmi.c ****         using HAL_DCMI_Init() function.
  39:Drivers/STM32U5xx_HAL_Driver/Src/stm32u5xx_hal_dcmi.c **** 
  40:Drivers/STM32U5xx_HAL_Driver/Src/stm32u5xx_hal_dcmi.c ****     (#) Configure the selected DMA stream to transfer Data from DCMI DR
  41:Drivers/STM32U5xx_HAL_Driver/Src/stm32u5xx_hal_dcmi.c ****         register to the destination memory buffer.
  42:Drivers/STM32U5xx_HAL_Driver/Src/stm32u5xx_hal_dcmi.c **** 
  43:Drivers/STM32U5xx_HAL_Driver/Src/stm32u5xx_hal_dcmi.c ****     (#) Program the required configuration through following parameters:
  44:Drivers/STM32U5xx_HAL_Driver/Src/stm32u5xx_hal_dcmi.c ****         DCMI mode, destination memory Buffer address and the data length
  45:Drivers/STM32U5xx_HAL_Driver/Src/stm32u5xx_hal_dcmi.c ****         and enable capture using HAL_DCMI_Start_DMA() function.
  46:Drivers/STM32U5xx_HAL_Driver/Src/stm32u5xx_hal_dcmi.c **** 
  47:Drivers/STM32U5xx_HAL_Driver/Src/stm32u5xx_hal_dcmi.c ****     (#) Optionally, configure and Enable the CROP feature to select a rectangular
  48:Drivers/STM32U5xx_HAL_Driver/Src/stm32u5xx_hal_dcmi.c ****         window from the received image using HAL_DCMI_ConfigCrop()
  49:Drivers/STM32U5xx_HAL_Driver/Src/stm32u5xx_hal_dcmi.c ****         and HAL_DCMI_EnableCrop() functions
  50:Drivers/STM32U5xx_HAL_Driver/Src/stm32u5xx_hal_dcmi.c **** 
  51:Drivers/STM32U5xx_HAL_Driver/Src/stm32u5xx_hal_dcmi.c ****     (#) The capture can be stopped using HAL_DCMI_Stop() function.
  52:Drivers/STM32U5xx_HAL_Driver/Src/stm32u5xx_hal_dcmi.c **** 
  53:Drivers/STM32U5xx_HAL_Driver/Src/stm32u5xx_hal_dcmi.c ****     (#) To control DCMI state you can use the function HAL_DCMI_GetState().
  54:Drivers/STM32U5xx_HAL_Driver/Src/stm32u5xx_hal_dcmi.c **** 
  55:Drivers/STM32U5xx_HAL_Driver/Src/stm32u5xx_hal_dcmi.c ****      *** DCMI HAL driver macros list ***
  56:Drivers/STM32U5xx_HAL_Driver/Src/stm32u5xx_hal_dcmi.c ****      =============================================
  57:Drivers/STM32U5xx_HAL_Driver/Src/stm32u5xx_hal_dcmi.c ****      [..]
  58:Drivers/STM32U5xx_HAL_Driver/Src/stm32u5xx_hal_dcmi.c ****        Below the list of most used macros in DCMI HAL driver.
  59:Drivers/STM32U5xx_HAL_Driver/Src/stm32u5xx_hal_dcmi.c **** 
  60:Drivers/STM32U5xx_HAL_Driver/Src/stm32u5xx_hal_dcmi.c ****       (+) __HAL_DCMI_ENABLE: Enable the DCMI peripheral.
  61:Drivers/STM32U5xx_HAL_Driver/Src/stm32u5xx_hal_dcmi.c ****       (+) __HAL_DCMI_DISABLE: Disable the DCMI peripheral.
  62:Drivers/STM32U5xx_HAL_Driver/Src/stm32u5xx_hal_dcmi.c ****       (+) __HAL_DCMI_GET_FLAG: Get the DCMI pending flags.
  63:Drivers/STM32U5xx_HAL_Driver/Src/stm32u5xx_hal_dcmi.c ****       (+) __HAL_DCMI_CLEAR_FLAG: Clear the DCMI pending flags.
  64:Drivers/STM32U5xx_HAL_Driver/Src/stm32u5xx_hal_dcmi.c ****       (+) __HAL_DCMI_ENABLE_IT: Enable the specified DCMI interrupts.
  65:Drivers/STM32U5xx_HAL_Driver/Src/stm32u5xx_hal_dcmi.c ****       (+) __HAL_DCMI_DISABLE_IT: Disable the specified DCMI interrupts.
  66:Drivers/STM32U5xx_HAL_Driver/Src/stm32u5xx_hal_dcmi.c ****       (+) __HAL_DCMI_GET_IT_SOURCE: Check whether the specified DCMI interrupt has occurred or not.
  67:Drivers/STM32U5xx_HAL_Driver/Src/stm32u5xx_hal_dcmi.c **** 
  68:Drivers/STM32U5xx_HAL_Driver/Src/stm32u5xx_hal_dcmi.c ****      [..]
  69:Drivers/STM32U5xx_HAL_Driver/Src/stm32u5xx_hal_dcmi.c ****        (@) You can refer to the DCMI HAL driver header file for more useful macros
  70:Drivers/STM32U5xx_HAL_Driver/Src/stm32u5xx_hal_dcmi.c **** 
  71:Drivers/STM32U5xx_HAL_Driver/Src/stm32u5xx_hal_dcmi.c ****     *** Callback registration ***
  72:Drivers/STM32U5xx_HAL_Driver/Src/stm32u5xx_hal_dcmi.c ****     =============================
  73:Drivers/STM32U5xx_HAL_Driver/Src/stm32u5xx_hal_dcmi.c **** 
  74:Drivers/STM32U5xx_HAL_Driver/Src/stm32u5xx_hal_dcmi.c ****     The compilation define USE_HAL_DCMI_REGISTER_CALLBACKS when set to 1
  75:Drivers/STM32U5xx_HAL_Driver/Src/stm32u5xx_hal_dcmi.c ****     allows the user to configure dynamically the driver callbacks.
  76:Drivers/STM32U5xx_HAL_Driver/Src/stm32u5xx_hal_dcmi.c ****     Use functions HAL_DCMI_RegisterCallback() to register a user callback.
  77:Drivers/STM32U5xx_HAL_Driver/Src/stm32u5xx_hal_dcmi.c **** 
  78:Drivers/STM32U5xx_HAL_Driver/Src/stm32u5xx_hal_dcmi.c ****     Function HAL_DCMI_RegisterCallback() allows to register following callbacks:
  79:Drivers/STM32U5xx_HAL_Driver/Src/stm32u5xx_hal_dcmi.c ****       (+) FrameEventCallback : callback for DCMI Frame Event.
  80:Drivers/STM32U5xx_HAL_Driver/Src/stm32u5xx_hal_dcmi.c ****       (+) VsyncEventCallback : callback for DCMI Vsync Event.
  81:Drivers/STM32U5xx_HAL_Driver/Src/stm32u5xx_hal_dcmi.c ****       (+) LineEventCallback  : callback for DCMI Line Event.
  82:Drivers/STM32U5xx_HAL_Driver/Src/stm32u5xx_hal_dcmi.c ****       (+) ErrorCallback      : callback for DCMI error detection.
  83:Drivers/STM32U5xx_HAL_Driver/Src/stm32u5xx_hal_dcmi.c ****       (+) MspInitCallback    : callback for DCMI MspInit.
  84:Drivers/STM32U5xx_HAL_Driver/Src/stm32u5xx_hal_dcmi.c ****       (+) MspDeInitCallback  : callback for DCMI MspDeInit.
  85:Drivers/STM32U5xx_HAL_Driver/Src/stm32u5xx_hal_dcmi.c ****     This function takes as parameters the HAL peripheral handle, the Callback ID
  86:Drivers/STM32U5xx_HAL_Driver/Src/stm32u5xx_hal_dcmi.c ****     and a pointer to the user callback function.
ARM GAS  C:\usertemp\ccMMWJQW.s 			page 3


  87:Drivers/STM32U5xx_HAL_Driver/Src/stm32u5xx_hal_dcmi.c **** 
  88:Drivers/STM32U5xx_HAL_Driver/Src/stm32u5xx_hal_dcmi.c ****     Use function HAL_DCMI_UnRegisterCallback() to reset a callback to the default
  89:Drivers/STM32U5xx_HAL_Driver/Src/stm32u5xx_hal_dcmi.c ****     weak (overridden) function.
  90:Drivers/STM32U5xx_HAL_Driver/Src/stm32u5xx_hal_dcmi.c ****     HAL_DCMI_UnRegisterCallback() takes as parameters the HAL peripheral handle,
  91:Drivers/STM32U5xx_HAL_Driver/Src/stm32u5xx_hal_dcmi.c ****     and the callback ID.
  92:Drivers/STM32U5xx_HAL_Driver/Src/stm32u5xx_hal_dcmi.c ****     This function allows to reset following callbacks:
  93:Drivers/STM32U5xx_HAL_Driver/Src/stm32u5xx_hal_dcmi.c ****       (+) FrameEventCallback : callback for DCMI Frame Event.
  94:Drivers/STM32U5xx_HAL_Driver/Src/stm32u5xx_hal_dcmi.c ****       (+) VsyncEventCallback : callback for DCMI Vsync Event.
  95:Drivers/STM32U5xx_HAL_Driver/Src/stm32u5xx_hal_dcmi.c ****       (+) LineEventCallback  : callback for DCMI Line Event.
  96:Drivers/STM32U5xx_HAL_Driver/Src/stm32u5xx_hal_dcmi.c ****       (+) ErrorCallback      : callback for DCMI error.
  97:Drivers/STM32U5xx_HAL_Driver/Src/stm32u5xx_hal_dcmi.c ****       (+) MspInitCallback    : callback for DCMI MspInit.
  98:Drivers/STM32U5xx_HAL_Driver/Src/stm32u5xx_hal_dcmi.c ****       (+) MspDeInitCallback  : callback for DCMI MspDeInit.
  99:Drivers/STM32U5xx_HAL_Driver/Src/stm32u5xx_hal_dcmi.c **** 
 100:Drivers/STM32U5xx_HAL_Driver/Src/stm32u5xx_hal_dcmi.c ****     By default, after the HAL_DCMI_Init and if the state is HAL_DCMI_STATE_RESET
 101:Drivers/STM32U5xx_HAL_Driver/Src/stm32u5xx_hal_dcmi.c ****     all callbacks are reset to the corresponding legacy weak (overridden) functions:
 102:Drivers/STM32U5xx_HAL_Driver/Src/stm32u5xx_hal_dcmi.c ****     examples FrameEventCallback(), HAL_DCMI_ErrorCallback().
 103:Drivers/STM32U5xx_HAL_Driver/Src/stm32u5xx_hal_dcmi.c ****     Exception done for MspInit and MspDeInit callbacks that are respectively
 104:Drivers/STM32U5xx_HAL_Driver/Src/stm32u5xx_hal_dcmi.c ****     reset to the legacy weak (overridden) functions in the HAL_DCMI_Init
 105:Drivers/STM32U5xx_HAL_Driver/Src/stm32u5xx_hal_dcmi.c ****     and HAL_DCMI_DeInit only when these callbacks are null (not registered beforehand).
 106:Drivers/STM32U5xx_HAL_Driver/Src/stm32u5xx_hal_dcmi.c ****     If not, MspInit or MspDeInit are not null, the HAL_DCMI_Init and HAL_DCMI_DeInit
 107:Drivers/STM32U5xx_HAL_Driver/Src/stm32u5xx_hal_dcmi.c ****     keep and use the user MspInit/MspDeInit callbacks (registered beforehand).
 108:Drivers/STM32U5xx_HAL_Driver/Src/stm32u5xx_hal_dcmi.c **** 
 109:Drivers/STM32U5xx_HAL_Driver/Src/stm32u5xx_hal_dcmi.c ****     Callbacks can be registered/unregistered in READY state only.
 110:Drivers/STM32U5xx_HAL_Driver/Src/stm32u5xx_hal_dcmi.c ****     Exception done for MspInit/MspDeInit callbacks that can be registered/unregistered
 111:Drivers/STM32U5xx_HAL_Driver/Src/stm32u5xx_hal_dcmi.c ****     in READY or RESET state, thus registered (user) MspInit/DeInit callbacks can be used
 112:Drivers/STM32U5xx_HAL_Driver/Src/stm32u5xx_hal_dcmi.c ****     during the Init/DeInit.
 113:Drivers/STM32U5xx_HAL_Driver/Src/stm32u5xx_hal_dcmi.c ****     In that case first register the MspInit/MspDeInit user callbacks
 114:Drivers/STM32U5xx_HAL_Driver/Src/stm32u5xx_hal_dcmi.c ****     using HAL_DCMI_RegisterCallback before calling HAL_DCMI_DeInit
 115:Drivers/STM32U5xx_HAL_Driver/Src/stm32u5xx_hal_dcmi.c ****     or HAL_DCMI_Init function.
 116:Drivers/STM32U5xx_HAL_Driver/Src/stm32u5xx_hal_dcmi.c **** 
 117:Drivers/STM32U5xx_HAL_Driver/Src/stm32u5xx_hal_dcmi.c ****     When the compilation define USE_HAL_DCMI_REGISTER_CALLBACKS is set to 0 or
 118:Drivers/STM32U5xx_HAL_Driver/Src/stm32u5xx_hal_dcmi.c ****     not defined, the callback registering feature is not available
 119:Drivers/STM32U5xx_HAL_Driver/Src/stm32u5xx_hal_dcmi.c ****     and weak (overridden) callbacks are used.
 120:Drivers/STM32U5xx_HAL_Driver/Src/stm32u5xx_hal_dcmi.c **** 
 121:Drivers/STM32U5xx_HAL_Driver/Src/stm32u5xx_hal_dcmi.c ****   @endverbatim
 122:Drivers/STM32U5xx_HAL_Driver/Src/stm32u5xx_hal_dcmi.c ****   ******************************************************************************
 123:Drivers/STM32U5xx_HAL_Driver/Src/stm32u5xx_hal_dcmi.c ****   */
 124:Drivers/STM32U5xx_HAL_Driver/Src/stm32u5xx_hal_dcmi.c **** 
 125:Drivers/STM32U5xx_HAL_Driver/Src/stm32u5xx_hal_dcmi.c **** /* Includes ------------------------------------------------------------------*/
 126:Drivers/STM32U5xx_HAL_Driver/Src/stm32u5xx_hal_dcmi.c **** #include "stm32u5xx_hal.h"
 127:Drivers/STM32U5xx_HAL_Driver/Src/stm32u5xx_hal_dcmi.c **** #ifdef HAL_DCMI_MODULE_ENABLED
 128:Drivers/STM32U5xx_HAL_Driver/Src/stm32u5xx_hal_dcmi.c **** #if defined (DCMI)
 129:Drivers/STM32U5xx_HAL_Driver/Src/stm32u5xx_hal_dcmi.c **** 
 130:Drivers/STM32U5xx_HAL_Driver/Src/stm32u5xx_hal_dcmi.c **** /** @addtogroup STM32U5xx_HAL_Driver
 131:Drivers/STM32U5xx_HAL_Driver/Src/stm32u5xx_hal_dcmi.c ****   * @{
 132:Drivers/STM32U5xx_HAL_Driver/Src/stm32u5xx_hal_dcmi.c ****   */
 133:Drivers/STM32U5xx_HAL_Driver/Src/stm32u5xx_hal_dcmi.c **** /** @defgroup DCMI DCMI
 134:Drivers/STM32U5xx_HAL_Driver/Src/stm32u5xx_hal_dcmi.c ****   * @brief DCMI HAL module driver
 135:Drivers/STM32U5xx_HAL_Driver/Src/stm32u5xx_hal_dcmi.c ****   * @{
 136:Drivers/STM32U5xx_HAL_Driver/Src/stm32u5xx_hal_dcmi.c ****   */
 137:Drivers/STM32U5xx_HAL_Driver/Src/stm32u5xx_hal_dcmi.c **** 
 138:Drivers/STM32U5xx_HAL_Driver/Src/stm32u5xx_hal_dcmi.c **** /* Private typedef -----------------------------------------------------------*/
 139:Drivers/STM32U5xx_HAL_Driver/Src/stm32u5xx_hal_dcmi.c **** /* Private define ------------------------------------------------------------*/
 140:Drivers/STM32U5xx_HAL_Driver/Src/stm32u5xx_hal_dcmi.c **** /** @defgroup DCMI_Private_Constants DCMI Private Constants
 141:Drivers/STM32U5xx_HAL_Driver/Src/stm32u5xx_hal_dcmi.c ****   * @{
 142:Drivers/STM32U5xx_HAL_Driver/Src/stm32u5xx_hal_dcmi.c ****   */
 143:Drivers/STM32U5xx_HAL_Driver/Src/stm32u5xx_hal_dcmi.c **** 
ARM GAS  C:\usertemp\ccMMWJQW.s 			page 4


 144:Drivers/STM32U5xx_HAL_Driver/Src/stm32u5xx_hal_dcmi.c **** /** @defgroup DCMI_Stop_TimeOut DCMI Stop Time Out
 145:Drivers/STM32U5xx_HAL_Driver/Src/stm32u5xx_hal_dcmi.c ****   * @{
 146:Drivers/STM32U5xx_HAL_Driver/Src/stm32u5xx_hal_dcmi.c ****   */
 147:Drivers/STM32U5xx_HAL_Driver/Src/stm32u5xx_hal_dcmi.c **** #define HAL_TIMEOUT_DCMI_STOP    ((uint32_t)1000) /* Set timeout to 1s  */
 148:Drivers/STM32U5xx_HAL_Driver/Src/stm32u5xx_hal_dcmi.c **** /**
 149:Drivers/STM32U5xx_HAL_Driver/Src/stm32u5xx_hal_dcmi.c ****   * @}
 150:Drivers/STM32U5xx_HAL_Driver/Src/stm32u5xx_hal_dcmi.c ****   */
 151:Drivers/STM32U5xx_HAL_Driver/Src/stm32u5xx_hal_dcmi.c **** 
 152:Drivers/STM32U5xx_HAL_Driver/Src/stm32u5xx_hal_dcmi.c **** /**
 153:Drivers/STM32U5xx_HAL_Driver/Src/stm32u5xx_hal_dcmi.c ****   * @}
 154:Drivers/STM32U5xx_HAL_Driver/Src/stm32u5xx_hal_dcmi.c ****   */
 155:Drivers/STM32U5xx_HAL_Driver/Src/stm32u5xx_hal_dcmi.c **** /* Private macro -------------------------------------------------------------*/
 156:Drivers/STM32U5xx_HAL_Driver/Src/stm32u5xx_hal_dcmi.c **** /* Private variables ---------------------------------------------------------*/
 157:Drivers/STM32U5xx_HAL_Driver/Src/stm32u5xx_hal_dcmi.c **** /* Private function prototypes -----------------------------------------------*/
 158:Drivers/STM32U5xx_HAL_Driver/Src/stm32u5xx_hal_dcmi.c **** /** @addtogroup DCMI_Private_Functions DCMI Private Functions
 159:Drivers/STM32U5xx_HAL_Driver/Src/stm32u5xx_hal_dcmi.c ****   * @{
 160:Drivers/STM32U5xx_HAL_Driver/Src/stm32u5xx_hal_dcmi.c ****   */
 161:Drivers/STM32U5xx_HAL_Driver/Src/stm32u5xx_hal_dcmi.c **** static void       DCMI_DMAXferCplt(DMA_HandleTypeDef *hdma);
 162:Drivers/STM32U5xx_HAL_Driver/Src/stm32u5xx_hal_dcmi.c **** static void       DCMI_DMAError(DMA_HandleTypeDef *hdma);
 163:Drivers/STM32U5xx_HAL_Driver/Src/stm32u5xx_hal_dcmi.c **** 
 164:Drivers/STM32U5xx_HAL_Driver/Src/stm32u5xx_hal_dcmi.c **** /**
 165:Drivers/STM32U5xx_HAL_Driver/Src/stm32u5xx_hal_dcmi.c ****   * @}
 166:Drivers/STM32U5xx_HAL_Driver/Src/stm32u5xx_hal_dcmi.c ****   */
 167:Drivers/STM32U5xx_HAL_Driver/Src/stm32u5xx_hal_dcmi.c **** /* Exported functions --------------------------------------------------------*/
 168:Drivers/STM32U5xx_HAL_Driver/Src/stm32u5xx_hal_dcmi.c **** 
 169:Drivers/STM32U5xx_HAL_Driver/Src/stm32u5xx_hal_dcmi.c **** /** @defgroup DCMI_Exported_Functions DCMI Exported Functions
 170:Drivers/STM32U5xx_HAL_Driver/Src/stm32u5xx_hal_dcmi.c ****   * @{
 171:Drivers/STM32U5xx_HAL_Driver/Src/stm32u5xx_hal_dcmi.c ****   */
 172:Drivers/STM32U5xx_HAL_Driver/Src/stm32u5xx_hal_dcmi.c **** 
 173:Drivers/STM32U5xx_HAL_Driver/Src/stm32u5xx_hal_dcmi.c **** /** @defgroup DCMI_Exported_Functions_Group1 Initialization and Configuration functions
 174:Drivers/STM32U5xx_HAL_Driver/Src/stm32u5xx_hal_dcmi.c ****   *  @brief   Initialization and Configuration functions
 175:Drivers/STM32U5xx_HAL_Driver/Src/stm32u5xx_hal_dcmi.c ****   *
 176:Drivers/STM32U5xx_HAL_Driver/Src/stm32u5xx_hal_dcmi.c **** @verbatim
 177:Drivers/STM32U5xx_HAL_Driver/Src/stm32u5xx_hal_dcmi.c ****  ===============================================================================
 178:Drivers/STM32U5xx_HAL_Driver/Src/stm32u5xx_hal_dcmi.c ****                 ##### Initialization and Configuration functions #####
 179:Drivers/STM32U5xx_HAL_Driver/Src/stm32u5xx_hal_dcmi.c ****  ===============================================================================
 180:Drivers/STM32U5xx_HAL_Driver/Src/stm32u5xx_hal_dcmi.c ****     [..]  This section provides functions allowing to:
 181:Drivers/STM32U5xx_HAL_Driver/Src/stm32u5xx_hal_dcmi.c ****       (+) Initialize and configure the DCMI
 182:Drivers/STM32U5xx_HAL_Driver/Src/stm32u5xx_hal_dcmi.c ****       (+) De-initialize the DCMI
 183:Drivers/STM32U5xx_HAL_Driver/Src/stm32u5xx_hal_dcmi.c **** 
 184:Drivers/STM32U5xx_HAL_Driver/Src/stm32u5xx_hal_dcmi.c **** @endverbatim
 185:Drivers/STM32U5xx_HAL_Driver/Src/stm32u5xx_hal_dcmi.c ****   * @{
 186:Drivers/STM32U5xx_HAL_Driver/Src/stm32u5xx_hal_dcmi.c ****   */
 187:Drivers/STM32U5xx_HAL_Driver/Src/stm32u5xx_hal_dcmi.c **** 
 188:Drivers/STM32U5xx_HAL_Driver/Src/stm32u5xx_hal_dcmi.c **** /**
 189:Drivers/STM32U5xx_HAL_Driver/Src/stm32u5xx_hal_dcmi.c ****   * @brief  Initializes the DCMI according to the specified
 190:Drivers/STM32U5xx_HAL_Driver/Src/stm32u5xx_hal_dcmi.c ****   *         parameters in the DCMI_InitTypeDef and create the associated handle.
 191:Drivers/STM32U5xx_HAL_Driver/Src/stm32u5xx_hal_dcmi.c ****   * @param  hdcmi pointer to a DCMI_HandleTypeDef structure that contains
 192:Drivers/STM32U5xx_HAL_Driver/Src/stm32u5xx_hal_dcmi.c ****   *                the configuration information for DCMI.
 193:Drivers/STM32U5xx_HAL_Driver/Src/stm32u5xx_hal_dcmi.c ****   * @retval HAL status
 194:Drivers/STM32U5xx_HAL_Driver/Src/stm32u5xx_hal_dcmi.c ****   */
 195:Drivers/STM32U5xx_HAL_Driver/Src/stm32u5xx_hal_dcmi.c **** HAL_StatusTypeDef HAL_DCMI_Init(DCMI_HandleTypeDef *hdcmi)
 196:Drivers/STM32U5xx_HAL_Driver/Src/stm32u5xx_hal_dcmi.c **** {
 197:Drivers/STM32U5xx_HAL_Driver/Src/stm32u5xx_hal_dcmi.c ****   /* Check the DCMI peripheral state */
 198:Drivers/STM32U5xx_HAL_Driver/Src/stm32u5xx_hal_dcmi.c ****   if (hdcmi == NULL)
 199:Drivers/STM32U5xx_HAL_Driver/Src/stm32u5xx_hal_dcmi.c ****   {
 200:Drivers/STM32U5xx_HAL_Driver/Src/stm32u5xx_hal_dcmi.c ****     return HAL_ERROR;
ARM GAS  C:\usertemp\ccMMWJQW.s 			page 5


 201:Drivers/STM32U5xx_HAL_Driver/Src/stm32u5xx_hal_dcmi.c ****   }
 202:Drivers/STM32U5xx_HAL_Driver/Src/stm32u5xx_hal_dcmi.c **** 
 203:Drivers/STM32U5xx_HAL_Driver/Src/stm32u5xx_hal_dcmi.c ****   /* Check function parameters */
 204:Drivers/STM32U5xx_HAL_Driver/Src/stm32u5xx_hal_dcmi.c ****   assert_param(IS_DCMI_ALL_INSTANCE(hdcmi->Instance));
 205:Drivers/STM32U5xx_HAL_Driver/Src/stm32u5xx_hal_dcmi.c ****   assert_param(IS_DCMI_PCKPOLARITY(hdcmi->Init.PCKPolarity));
 206:Drivers/STM32U5xx_HAL_Driver/Src/stm32u5xx_hal_dcmi.c ****   assert_param(IS_DCMI_VSPOLARITY(hdcmi->Init.VSPolarity));
 207:Drivers/STM32U5xx_HAL_Driver/Src/stm32u5xx_hal_dcmi.c ****   assert_param(IS_DCMI_HSPOLARITY(hdcmi->Init.HSPolarity));
 208:Drivers/STM32U5xx_HAL_Driver/Src/stm32u5xx_hal_dcmi.c ****   assert_param(IS_DCMI_SYNCHRO(hdcmi->Init.SynchroMode));
 209:Drivers/STM32U5xx_HAL_Driver/Src/stm32u5xx_hal_dcmi.c ****   assert_param(IS_DCMI_CAPTURE_RATE(hdcmi->Init.CaptureRate));
 210:Drivers/STM32U5xx_HAL_Driver/Src/stm32u5xx_hal_dcmi.c ****   assert_param(IS_DCMI_EXTENDED_DATA(hdcmi->Init.ExtendedDataMode));
 211:Drivers/STM32U5xx_HAL_Driver/Src/stm32u5xx_hal_dcmi.c ****   assert_param(IS_DCMI_MODE_JPEG(hdcmi->Init.JPEGMode));
 212:Drivers/STM32U5xx_HAL_Driver/Src/stm32u5xx_hal_dcmi.c **** 
 213:Drivers/STM32U5xx_HAL_Driver/Src/stm32u5xx_hal_dcmi.c ****   assert_param(IS_DCMI_BYTE_SELECT_MODE(hdcmi->Init.ByteSelectMode));
 214:Drivers/STM32U5xx_HAL_Driver/Src/stm32u5xx_hal_dcmi.c ****   assert_param(IS_DCMI_BYTE_SELECT_START(hdcmi->Init.ByteSelectStart));
 215:Drivers/STM32U5xx_HAL_Driver/Src/stm32u5xx_hal_dcmi.c ****   assert_param(IS_DCMI_LINE_SELECT_MODE(hdcmi->Init.LineSelectMode));
 216:Drivers/STM32U5xx_HAL_Driver/Src/stm32u5xx_hal_dcmi.c ****   assert_param(IS_DCMI_LINE_SELECT_START(hdcmi->Init.LineSelectStart));
 217:Drivers/STM32U5xx_HAL_Driver/Src/stm32u5xx_hal_dcmi.c **** 
 218:Drivers/STM32U5xx_HAL_Driver/Src/stm32u5xx_hal_dcmi.c ****   if (hdcmi->State == HAL_DCMI_STATE_RESET)
 219:Drivers/STM32U5xx_HAL_Driver/Src/stm32u5xx_hal_dcmi.c ****   {
 220:Drivers/STM32U5xx_HAL_Driver/Src/stm32u5xx_hal_dcmi.c ****     /* Init the DCMI Callback settings */
 221:Drivers/STM32U5xx_HAL_Driver/Src/stm32u5xx_hal_dcmi.c **** #if (USE_HAL_DCMI_REGISTER_CALLBACKS == 1)
 222:Drivers/STM32U5xx_HAL_Driver/Src/stm32u5xx_hal_dcmi.c ****     /* Reset callback pointers to the weak predefined callbacks */
 223:Drivers/STM32U5xx_HAL_Driver/Src/stm32u5xx_hal_dcmi.c ****     hdcmi->FrameEventCallback = HAL_DCMI_FrameEventCallback; /* Legacy weak FrameEventCallback  */
 224:Drivers/STM32U5xx_HAL_Driver/Src/stm32u5xx_hal_dcmi.c ****     hdcmi->VsyncEventCallback = HAL_DCMI_VsyncEventCallback; /* Legacy weak VsyncEventCallback  */
 225:Drivers/STM32U5xx_HAL_Driver/Src/stm32u5xx_hal_dcmi.c ****     hdcmi->LineEventCallback  = HAL_DCMI_LineEventCallback;  /* Legacy weak LineEventCallback   */
 226:Drivers/STM32U5xx_HAL_Driver/Src/stm32u5xx_hal_dcmi.c ****     hdcmi->ErrorCallback      = HAL_DCMI_ErrorCallback;      /* Legacy weak ErrorCallback       */
 227:Drivers/STM32U5xx_HAL_Driver/Src/stm32u5xx_hal_dcmi.c **** 
 228:Drivers/STM32U5xx_HAL_Driver/Src/stm32u5xx_hal_dcmi.c ****     if (hdcmi->MspInitCallback == NULL)
 229:Drivers/STM32U5xx_HAL_Driver/Src/stm32u5xx_hal_dcmi.c ****     {
 230:Drivers/STM32U5xx_HAL_Driver/Src/stm32u5xx_hal_dcmi.c ****       /* Legacy weak MspInit Callback        */
 231:Drivers/STM32U5xx_HAL_Driver/Src/stm32u5xx_hal_dcmi.c ****       hdcmi->MspInitCallback = HAL_DCMI_MspInit;
 232:Drivers/STM32U5xx_HAL_Driver/Src/stm32u5xx_hal_dcmi.c ****     }
 233:Drivers/STM32U5xx_HAL_Driver/Src/stm32u5xx_hal_dcmi.c ****     /* Initialize the low level hardware (MSP) */
 234:Drivers/STM32U5xx_HAL_Driver/Src/stm32u5xx_hal_dcmi.c ****     hdcmi->MspInitCallback(hdcmi);
 235:Drivers/STM32U5xx_HAL_Driver/Src/stm32u5xx_hal_dcmi.c **** #else
 236:Drivers/STM32U5xx_HAL_Driver/Src/stm32u5xx_hal_dcmi.c ****     /* Init the low level hardware : GPIO, CLOCK, NVIC and DMA */
 237:Drivers/STM32U5xx_HAL_Driver/Src/stm32u5xx_hal_dcmi.c ****     HAL_DCMI_MspInit(hdcmi);
 238:Drivers/STM32U5xx_HAL_Driver/Src/stm32u5xx_hal_dcmi.c **** #endif /* (USE_HAL_DCMI_REGISTER_CALLBACKS) */
 239:Drivers/STM32U5xx_HAL_Driver/Src/stm32u5xx_hal_dcmi.c ****   }
 240:Drivers/STM32U5xx_HAL_Driver/Src/stm32u5xx_hal_dcmi.c **** 
 241:Drivers/STM32U5xx_HAL_Driver/Src/stm32u5xx_hal_dcmi.c ****   /* Change the DCMI state */
 242:Drivers/STM32U5xx_HAL_Driver/Src/stm32u5xx_hal_dcmi.c ****   hdcmi->State = HAL_DCMI_STATE_BUSY;
 243:Drivers/STM32U5xx_HAL_Driver/Src/stm32u5xx_hal_dcmi.c **** 
 244:Drivers/STM32U5xx_HAL_Driver/Src/stm32u5xx_hal_dcmi.c ****   if (hdcmi->Init.ExtendedDataMode != DCMI_EXTEND_DATA_8B)
 245:Drivers/STM32U5xx_HAL_Driver/Src/stm32u5xx_hal_dcmi.c ****   {
 246:Drivers/STM32U5xx_HAL_Driver/Src/stm32u5xx_hal_dcmi.c ****     /* Byte select mode must be programmed to the reset value if the extended mode
 247:Drivers/STM32U5xx_HAL_Driver/Src/stm32u5xx_hal_dcmi.c ****     is not set to 8-bit data capture on every pixel clock */
 248:Drivers/STM32U5xx_HAL_Driver/Src/stm32u5xx_hal_dcmi.c ****     hdcmi->Init.ByteSelectMode = DCMI_BSM_ALL;
 249:Drivers/STM32U5xx_HAL_Driver/Src/stm32u5xx_hal_dcmi.c ****   }
 250:Drivers/STM32U5xx_HAL_Driver/Src/stm32u5xx_hal_dcmi.c ****   /* Configures the HS, VS, DE and PC polarity */
 251:Drivers/STM32U5xx_HAL_Driver/Src/stm32u5xx_hal_dcmi.c ****   hdcmi->Instance->CR &= ~(DCMI_CR_PCKPOL | DCMI_CR_HSPOL  | DCMI_CR_VSPOL  | DCMI_CR_EDM_0 | \
 252:Drivers/STM32U5xx_HAL_Driver/Src/stm32u5xx_hal_dcmi.c ****                            DCMI_CR_EDM_1  | DCMI_CR_FCRC_0 | DCMI_CR_FCRC_1 | DCMI_CR_JPEG  | \
 253:Drivers/STM32U5xx_HAL_Driver/Src/stm32u5xx_hal_dcmi.c ****                            DCMI_CR_ESS | DCMI_CR_BSM_0 | DCMI_CR_BSM_1 | DCMI_CR_OEBS | \
 254:Drivers/STM32U5xx_HAL_Driver/Src/stm32u5xx_hal_dcmi.c ****                            DCMI_CR_LSM | DCMI_CR_OELS);
 255:Drivers/STM32U5xx_HAL_Driver/Src/stm32u5xx_hal_dcmi.c **** 
 256:Drivers/STM32U5xx_HAL_Driver/Src/stm32u5xx_hal_dcmi.c ****   hdcmi->Instance->CR |= (uint32_t)(hdcmi->Init.SynchroMode | hdcmi->Init.CaptureRate | \
 257:Drivers/STM32U5xx_HAL_Driver/Src/stm32u5xx_hal_dcmi.c ****                                     hdcmi->Init.VSPolarity  | hdcmi->Init.HSPolarity  | \
ARM GAS  C:\usertemp\ccMMWJQW.s 			page 6


 258:Drivers/STM32U5xx_HAL_Driver/Src/stm32u5xx_hal_dcmi.c ****                                     hdcmi->Init.PCKPolarity | hdcmi->Init.ExtendedDataMode | \
 259:Drivers/STM32U5xx_HAL_Driver/Src/stm32u5xx_hal_dcmi.c ****                                     hdcmi->Init.JPEGMode | hdcmi->Init.ByteSelectMode | \
 260:Drivers/STM32U5xx_HAL_Driver/Src/stm32u5xx_hal_dcmi.c ****                                     hdcmi->Init.ByteSelectStart | hdcmi->Init.LineSelectMode | \
 261:Drivers/STM32U5xx_HAL_Driver/Src/stm32u5xx_hal_dcmi.c ****                                     hdcmi->Init.LineSelectStart);
 262:Drivers/STM32U5xx_HAL_Driver/Src/stm32u5xx_hal_dcmi.c **** 
 263:Drivers/STM32U5xx_HAL_Driver/Src/stm32u5xx_hal_dcmi.c ****   if (hdcmi->Init.SynchroMode == DCMI_SYNCHRO_EMBEDDED)
 264:Drivers/STM32U5xx_HAL_Driver/Src/stm32u5xx_hal_dcmi.c ****   {
 265:Drivers/STM32U5xx_HAL_Driver/Src/stm32u5xx_hal_dcmi.c ****     hdcmi->Instance->ESCR = (((uint32_t)hdcmi->Init.SyncroCode.FrameStartCode)    | \
 266:Drivers/STM32U5xx_HAL_Driver/Src/stm32u5xx_hal_dcmi.c ****                              ((uint32_t)hdcmi->Init.SyncroCode.LineStartCode << DCMI_ESCR_LSC_Pos) 
 267:Drivers/STM32U5xx_HAL_Driver/Src/stm32u5xx_hal_dcmi.c ****                              ((uint32_t)hdcmi->Init.SyncroCode.LineEndCode << DCMI_ESCR_LEC_Pos) | 
 268:Drivers/STM32U5xx_HAL_Driver/Src/stm32u5xx_hal_dcmi.c ****                              ((uint32_t)hdcmi->Init.SyncroCode.FrameEndCode << DCMI_ESCR_FEC_Pos));
 269:Drivers/STM32U5xx_HAL_Driver/Src/stm32u5xx_hal_dcmi.c **** 
 270:Drivers/STM32U5xx_HAL_Driver/Src/stm32u5xx_hal_dcmi.c ****   }
 271:Drivers/STM32U5xx_HAL_Driver/Src/stm32u5xx_hal_dcmi.c **** 
 272:Drivers/STM32U5xx_HAL_Driver/Src/stm32u5xx_hal_dcmi.c ****   /* Enable the Line, Vsync, Error and Overrun interrupts */
 273:Drivers/STM32U5xx_HAL_Driver/Src/stm32u5xx_hal_dcmi.c ****   __HAL_DCMI_ENABLE_IT(hdcmi, DCMI_IT_LINE | DCMI_IT_VSYNC | DCMI_IT_ERR | DCMI_IT_OVR);
 274:Drivers/STM32U5xx_HAL_Driver/Src/stm32u5xx_hal_dcmi.c **** 
 275:Drivers/STM32U5xx_HAL_Driver/Src/stm32u5xx_hal_dcmi.c ****   /* Update error code */
 276:Drivers/STM32U5xx_HAL_Driver/Src/stm32u5xx_hal_dcmi.c ****   hdcmi->ErrorCode = HAL_DCMI_ERROR_NONE;
 277:Drivers/STM32U5xx_HAL_Driver/Src/stm32u5xx_hal_dcmi.c **** 
 278:Drivers/STM32U5xx_HAL_Driver/Src/stm32u5xx_hal_dcmi.c ****   /* Initialize the DCMI state*/
 279:Drivers/STM32U5xx_HAL_Driver/Src/stm32u5xx_hal_dcmi.c ****   hdcmi->State  = HAL_DCMI_STATE_READY;
 280:Drivers/STM32U5xx_HAL_Driver/Src/stm32u5xx_hal_dcmi.c **** 
 281:Drivers/STM32U5xx_HAL_Driver/Src/stm32u5xx_hal_dcmi.c ****   return HAL_OK;
 282:Drivers/STM32U5xx_HAL_Driver/Src/stm32u5xx_hal_dcmi.c **** }
 283:Drivers/STM32U5xx_HAL_Driver/Src/stm32u5xx_hal_dcmi.c **** 
 284:Drivers/STM32U5xx_HAL_Driver/Src/stm32u5xx_hal_dcmi.c **** /**
 285:Drivers/STM32U5xx_HAL_Driver/Src/stm32u5xx_hal_dcmi.c ****   * @brief  Deinitializes the DCMI peripheral registers to their default reset
 286:Drivers/STM32U5xx_HAL_Driver/Src/stm32u5xx_hal_dcmi.c ****   *         values.
 287:Drivers/STM32U5xx_HAL_Driver/Src/stm32u5xx_hal_dcmi.c ****   * @param  hdcmi pointer to a DCMI_HandleTypeDef structure that contains
 288:Drivers/STM32U5xx_HAL_Driver/Src/stm32u5xx_hal_dcmi.c ****   *                the configuration information for DCMI.
 289:Drivers/STM32U5xx_HAL_Driver/Src/stm32u5xx_hal_dcmi.c ****   * @retval HAL status
 290:Drivers/STM32U5xx_HAL_Driver/Src/stm32u5xx_hal_dcmi.c ****   */
 291:Drivers/STM32U5xx_HAL_Driver/Src/stm32u5xx_hal_dcmi.c **** 
 292:Drivers/STM32U5xx_HAL_Driver/Src/stm32u5xx_hal_dcmi.c **** HAL_StatusTypeDef HAL_DCMI_DeInit(DCMI_HandleTypeDef *hdcmi)
 293:Drivers/STM32U5xx_HAL_Driver/Src/stm32u5xx_hal_dcmi.c **** {
 294:Drivers/STM32U5xx_HAL_Driver/Src/stm32u5xx_hal_dcmi.c **** #if (USE_HAL_DCMI_REGISTER_CALLBACKS == 1)
 295:Drivers/STM32U5xx_HAL_Driver/Src/stm32u5xx_hal_dcmi.c ****   if (hdcmi->MspDeInitCallback == NULL)
 296:Drivers/STM32U5xx_HAL_Driver/Src/stm32u5xx_hal_dcmi.c ****   {
 297:Drivers/STM32U5xx_HAL_Driver/Src/stm32u5xx_hal_dcmi.c ****     hdcmi->MspDeInitCallback = HAL_DCMI_MspDeInit;
 298:Drivers/STM32U5xx_HAL_Driver/Src/stm32u5xx_hal_dcmi.c ****   }
 299:Drivers/STM32U5xx_HAL_Driver/Src/stm32u5xx_hal_dcmi.c ****   /* De-Initialize the low level hardware (MSP) */
 300:Drivers/STM32U5xx_HAL_Driver/Src/stm32u5xx_hal_dcmi.c ****   hdcmi->MspDeInitCallback(hdcmi);
 301:Drivers/STM32U5xx_HAL_Driver/Src/stm32u5xx_hal_dcmi.c **** #else
 302:Drivers/STM32U5xx_HAL_Driver/Src/stm32u5xx_hal_dcmi.c ****   /* DeInit the low level hardware: GPIO, CLOCK, NVIC and DMA */
 303:Drivers/STM32U5xx_HAL_Driver/Src/stm32u5xx_hal_dcmi.c ****   HAL_DCMI_MspDeInit(hdcmi);
 304:Drivers/STM32U5xx_HAL_Driver/Src/stm32u5xx_hal_dcmi.c **** #endif /* (USE_HAL_DCMI_REGISTER_CALLBACKS) */
 305:Drivers/STM32U5xx_HAL_Driver/Src/stm32u5xx_hal_dcmi.c **** 
 306:Drivers/STM32U5xx_HAL_Driver/Src/stm32u5xx_hal_dcmi.c ****   /* Update error code */
 307:Drivers/STM32U5xx_HAL_Driver/Src/stm32u5xx_hal_dcmi.c ****   hdcmi->ErrorCode = HAL_DCMI_ERROR_NONE;
 308:Drivers/STM32U5xx_HAL_Driver/Src/stm32u5xx_hal_dcmi.c **** 
 309:Drivers/STM32U5xx_HAL_Driver/Src/stm32u5xx_hal_dcmi.c ****   /* Initialize the DCMI state*/
 310:Drivers/STM32U5xx_HAL_Driver/Src/stm32u5xx_hal_dcmi.c ****   hdcmi->State = HAL_DCMI_STATE_RESET;
 311:Drivers/STM32U5xx_HAL_Driver/Src/stm32u5xx_hal_dcmi.c **** 
 312:Drivers/STM32U5xx_HAL_Driver/Src/stm32u5xx_hal_dcmi.c ****   /* Release Lock */
 313:Drivers/STM32U5xx_HAL_Driver/Src/stm32u5xx_hal_dcmi.c ****   __HAL_UNLOCK(hdcmi);
 314:Drivers/STM32U5xx_HAL_Driver/Src/stm32u5xx_hal_dcmi.c **** 
ARM GAS  C:\usertemp\ccMMWJQW.s 			page 7


 315:Drivers/STM32U5xx_HAL_Driver/Src/stm32u5xx_hal_dcmi.c ****   return HAL_OK;
 316:Drivers/STM32U5xx_HAL_Driver/Src/stm32u5xx_hal_dcmi.c **** }
 317:Drivers/STM32U5xx_HAL_Driver/Src/stm32u5xx_hal_dcmi.c **** 
 318:Drivers/STM32U5xx_HAL_Driver/Src/stm32u5xx_hal_dcmi.c **** /**
 319:Drivers/STM32U5xx_HAL_Driver/Src/stm32u5xx_hal_dcmi.c ****   * @brief  Initializes the DCMI MSP.
 320:Drivers/STM32U5xx_HAL_Driver/Src/stm32u5xx_hal_dcmi.c ****   * @param  hdcmi pointer to a DCMI_HandleTypeDef structure that contains
 321:Drivers/STM32U5xx_HAL_Driver/Src/stm32u5xx_hal_dcmi.c ****   *                the configuration information for DCMI.
 322:Drivers/STM32U5xx_HAL_Driver/Src/stm32u5xx_hal_dcmi.c ****   * @retval None
 323:Drivers/STM32U5xx_HAL_Driver/Src/stm32u5xx_hal_dcmi.c ****   */
 324:Drivers/STM32U5xx_HAL_Driver/Src/stm32u5xx_hal_dcmi.c **** __weak void HAL_DCMI_MspInit(DCMI_HandleTypeDef *hdcmi)
 325:Drivers/STM32U5xx_HAL_Driver/Src/stm32u5xx_hal_dcmi.c **** {
 326:Drivers/STM32U5xx_HAL_Driver/Src/stm32u5xx_hal_dcmi.c ****   /* Prevent unused argument(s) compilation warning */
 327:Drivers/STM32U5xx_HAL_Driver/Src/stm32u5xx_hal_dcmi.c ****   UNUSED(hdcmi);
 328:Drivers/STM32U5xx_HAL_Driver/Src/stm32u5xx_hal_dcmi.c **** 
 329:Drivers/STM32U5xx_HAL_Driver/Src/stm32u5xx_hal_dcmi.c ****   /* NOTE : This function Should not be modified, when the callback is needed,
 330:Drivers/STM32U5xx_HAL_Driver/Src/stm32u5xx_hal_dcmi.c ****             the HAL_DCMI_MspInit could be implemented in the user file
 331:Drivers/STM32U5xx_HAL_Driver/Src/stm32u5xx_hal_dcmi.c ****    */
 332:Drivers/STM32U5xx_HAL_Driver/Src/stm32u5xx_hal_dcmi.c **** }
 333:Drivers/STM32U5xx_HAL_Driver/Src/stm32u5xx_hal_dcmi.c **** 
 334:Drivers/STM32U5xx_HAL_Driver/Src/stm32u5xx_hal_dcmi.c **** /**
 335:Drivers/STM32U5xx_HAL_Driver/Src/stm32u5xx_hal_dcmi.c ****   * @brief  DeInitializes the DCMI MSP.
 336:Drivers/STM32U5xx_HAL_Driver/Src/stm32u5xx_hal_dcmi.c ****   * @param  hdcmi pointer to a DCMI_HandleTypeDef structure that contains
 337:Drivers/STM32U5xx_HAL_Driver/Src/stm32u5xx_hal_dcmi.c ****   *                the configuration information for DCMI.
 338:Drivers/STM32U5xx_HAL_Driver/Src/stm32u5xx_hal_dcmi.c ****   * @retval None
 339:Drivers/STM32U5xx_HAL_Driver/Src/stm32u5xx_hal_dcmi.c ****   */
 340:Drivers/STM32U5xx_HAL_Driver/Src/stm32u5xx_hal_dcmi.c **** __weak void HAL_DCMI_MspDeInit(DCMI_HandleTypeDef *hdcmi)
 341:Drivers/STM32U5xx_HAL_Driver/Src/stm32u5xx_hal_dcmi.c **** {
 342:Drivers/STM32U5xx_HAL_Driver/Src/stm32u5xx_hal_dcmi.c ****   /* Prevent unused argument(s) compilation warning */
 343:Drivers/STM32U5xx_HAL_Driver/Src/stm32u5xx_hal_dcmi.c ****   UNUSED(hdcmi);
 344:Drivers/STM32U5xx_HAL_Driver/Src/stm32u5xx_hal_dcmi.c **** 
 345:Drivers/STM32U5xx_HAL_Driver/Src/stm32u5xx_hal_dcmi.c ****   /* NOTE : This function Should not be modified, when the callback is needed,
 346:Drivers/STM32U5xx_HAL_Driver/Src/stm32u5xx_hal_dcmi.c ****             the HAL_DCMI_MspDeInit could be implemented in the user file
 347:Drivers/STM32U5xx_HAL_Driver/Src/stm32u5xx_hal_dcmi.c ****    */
 348:Drivers/STM32U5xx_HAL_Driver/Src/stm32u5xx_hal_dcmi.c **** }
 349:Drivers/STM32U5xx_HAL_Driver/Src/stm32u5xx_hal_dcmi.c **** 
 350:Drivers/STM32U5xx_HAL_Driver/Src/stm32u5xx_hal_dcmi.c **** /**
 351:Drivers/STM32U5xx_HAL_Driver/Src/stm32u5xx_hal_dcmi.c ****   * @}
 352:Drivers/STM32U5xx_HAL_Driver/Src/stm32u5xx_hal_dcmi.c ****   */
 353:Drivers/STM32U5xx_HAL_Driver/Src/stm32u5xx_hal_dcmi.c **** /** @defgroup DCMI_Exported_Functions_Group2 IO operation functions
 354:Drivers/STM32U5xx_HAL_Driver/Src/stm32u5xx_hal_dcmi.c ****   *  @brief   IO operation functions
 355:Drivers/STM32U5xx_HAL_Driver/Src/stm32u5xx_hal_dcmi.c ****   *
 356:Drivers/STM32U5xx_HAL_Driver/Src/stm32u5xx_hal_dcmi.c **** @verbatim
 357:Drivers/STM32U5xx_HAL_Driver/Src/stm32u5xx_hal_dcmi.c ****  ===============================================================================
 358:Drivers/STM32U5xx_HAL_Driver/Src/stm32u5xx_hal_dcmi.c ****                       #####  IO operation functions  #####
 359:Drivers/STM32U5xx_HAL_Driver/Src/stm32u5xx_hal_dcmi.c ****  ===============================================================================
 360:Drivers/STM32U5xx_HAL_Driver/Src/stm32u5xx_hal_dcmi.c ****     [..]  This section provides functions allowing to:
 361:Drivers/STM32U5xx_HAL_Driver/Src/stm32u5xx_hal_dcmi.c ****       (+) Configure destination address and data length and
 362:Drivers/STM32U5xx_HAL_Driver/Src/stm32u5xx_hal_dcmi.c ****           Enables DCMI DMA request and enables DCMI capture
 363:Drivers/STM32U5xx_HAL_Driver/Src/stm32u5xx_hal_dcmi.c ****       (+) Stop the DCMI capture.
 364:Drivers/STM32U5xx_HAL_Driver/Src/stm32u5xx_hal_dcmi.c ****       (+) Handles DCMI interrupt request.
 365:Drivers/STM32U5xx_HAL_Driver/Src/stm32u5xx_hal_dcmi.c **** 
 366:Drivers/STM32U5xx_HAL_Driver/Src/stm32u5xx_hal_dcmi.c **** @endverbatim
 367:Drivers/STM32U5xx_HAL_Driver/Src/stm32u5xx_hal_dcmi.c ****   * @{
 368:Drivers/STM32U5xx_HAL_Driver/Src/stm32u5xx_hal_dcmi.c ****   */
 369:Drivers/STM32U5xx_HAL_Driver/Src/stm32u5xx_hal_dcmi.c **** 
 370:Drivers/STM32U5xx_HAL_Driver/Src/stm32u5xx_hal_dcmi.c **** /**
 371:Drivers/STM32U5xx_HAL_Driver/Src/stm32u5xx_hal_dcmi.c ****   * @brief  Enables DCMI DMA request and enables DCMI capture
ARM GAS  C:\usertemp\ccMMWJQW.s 			page 8


 372:Drivers/STM32U5xx_HAL_Driver/Src/stm32u5xx_hal_dcmi.c ****   * @param  hdcmi     pointer to a DCMI_HandleTypeDef structure that contains
 373:Drivers/STM32U5xx_HAL_Driver/Src/stm32u5xx_hal_dcmi.c ****   *                    the configuration information for DCMI.
 374:Drivers/STM32U5xx_HAL_Driver/Src/stm32u5xx_hal_dcmi.c ****   * @param  DCMI_Mode DCMI capture mode snapshot or continuous grab.
 375:Drivers/STM32U5xx_HAL_Driver/Src/stm32u5xx_hal_dcmi.c ****   * @param  pData     The destination memory Buffer address (LCD Frame buffer).
 376:Drivers/STM32U5xx_HAL_Driver/Src/stm32u5xx_hal_dcmi.c ****   * @param  Length    The length of capture to be transferred.
 377:Drivers/STM32U5xx_HAL_Driver/Src/stm32u5xx_hal_dcmi.c ****   * @retval HAL status
 378:Drivers/STM32U5xx_HAL_Driver/Src/stm32u5xx_hal_dcmi.c ****   */
 379:Drivers/STM32U5xx_HAL_Driver/Src/stm32u5xx_hal_dcmi.c **** HAL_StatusTypeDef HAL_DCMI_Start_DMA(DCMI_HandleTypeDef *hdcmi, uint32_t DCMI_Mode, uint32_t pData,
 380:Drivers/STM32U5xx_HAL_Driver/Src/stm32u5xx_hal_dcmi.c **** {
 381:Drivers/STM32U5xx_HAL_Driver/Src/stm32u5xx_hal_dcmi.c ****   uint32_t tmp_length = Length;
 382:Drivers/STM32U5xx_HAL_Driver/Src/stm32u5xx_hal_dcmi.c ****   HAL_StatusTypeDef status = HAL_OK;
 383:Drivers/STM32U5xx_HAL_Driver/Src/stm32u5xx_hal_dcmi.c ****   uint32_t cllr_offset;
 384:Drivers/STM32U5xx_HAL_Driver/Src/stm32u5xx_hal_dcmi.c ****   uint32_t tmp1;
 385:Drivers/STM32U5xx_HAL_Driver/Src/stm32u5xx_hal_dcmi.c ****   uint32_t tmp2;
 386:Drivers/STM32U5xx_HAL_Driver/Src/stm32u5xx_hal_dcmi.c **** 
 387:Drivers/STM32U5xx_HAL_Driver/Src/stm32u5xx_hal_dcmi.c ****   /* Check function parameters */
 388:Drivers/STM32U5xx_HAL_Driver/Src/stm32u5xx_hal_dcmi.c ****   assert_param(IS_DCMI_CAPTURE_MODE(DCMI_Mode));
 389:Drivers/STM32U5xx_HAL_Driver/Src/stm32u5xx_hal_dcmi.c **** 
 390:Drivers/STM32U5xx_HAL_Driver/Src/stm32u5xx_hal_dcmi.c ****   /* Process Locked */
 391:Drivers/STM32U5xx_HAL_Driver/Src/stm32u5xx_hal_dcmi.c ****   __HAL_LOCK(hdcmi);
 392:Drivers/STM32U5xx_HAL_Driver/Src/stm32u5xx_hal_dcmi.c **** 
 393:Drivers/STM32U5xx_HAL_Driver/Src/stm32u5xx_hal_dcmi.c ****   /* Lock the DCMI peripheral state */
 394:Drivers/STM32U5xx_HAL_Driver/Src/stm32u5xx_hal_dcmi.c ****   hdcmi->State = HAL_DCMI_STATE_BUSY;
 395:Drivers/STM32U5xx_HAL_Driver/Src/stm32u5xx_hal_dcmi.c **** 
 396:Drivers/STM32U5xx_HAL_Driver/Src/stm32u5xx_hal_dcmi.c ****   /* Enable DCMI by setting DCMIEN bit */
 397:Drivers/STM32U5xx_HAL_Driver/Src/stm32u5xx_hal_dcmi.c ****   __HAL_DCMI_ENABLE(hdcmi);
 398:Drivers/STM32U5xx_HAL_Driver/Src/stm32u5xx_hal_dcmi.c **** 
 399:Drivers/STM32U5xx_HAL_Driver/Src/stm32u5xx_hal_dcmi.c ****   /* Configure the DCMI Mode */
 400:Drivers/STM32U5xx_HAL_Driver/Src/stm32u5xx_hal_dcmi.c ****   hdcmi->Instance->CR &= ~(DCMI_CR_CM);
 401:Drivers/STM32U5xx_HAL_Driver/Src/stm32u5xx_hal_dcmi.c ****   hdcmi->Instance->CR |= (uint32_t)(DCMI_Mode);
 402:Drivers/STM32U5xx_HAL_Driver/Src/stm32u5xx_hal_dcmi.c **** 
 403:Drivers/STM32U5xx_HAL_Driver/Src/stm32u5xx_hal_dcmi.c ****   /* Set the DMA memory0 conversion complete callback */
 404:Drivers/STM32U5xx_HAL_Driver/Src/stm32u5xx_hal_dcmi.c ****   hdcmi->DMA_Handle->XferCpltCallback = DCMI_DMAXferCplt;
 405:Drivers/STM32U5xx_HAL_Driver/Src/stm32u5xx_hal_dcmi.c **** 
 406:Drivers/STM32U5xx_HAL_Driver/Src/stm32u5xx_hal_dcmi.c ****   /* Set the DMA error callback */
 407:Drivers/STM32U5xx_HAL_Driver/Src/stm32u5xx_hal_dcmi.c ****   hdcmi->DMA_Handle->XferErrorCallback = DCMI_DMAError;
 408:Drivers/STM32U5xx_HAL_Driver/Src/stm32u5xx_hal_dcmi.c **** 
 409:Drivers/STM32U5xx_HAL_Driver/Src/stm32u5xx_hal_dcmi.c ****   /* Set the dma abort callback */
 410:Drivers/STM32U5xx_HAL_Driver/Src/stm32u5xx_hal_dcmi.c ****   hdcmi->DMA_Handle->XferAbortCallback = NULL;
 411:Drivers/STM32U5xx_HAL_Driver/Src/stm32u5xx_hal_dcmi.c **** 
 412:Drivers/STM32U5xx_HAL_Driver/Src/stm32u5xx_hal_dcmi.c ****   /* Reset transfer counters value */
 413:Drivers/STM32U5xx_HAL_Driver/Src/stm32u5xx_hal_dcmi.c ****   hdcmi->XferCount = 0;
 414:Drivers/STM32U5xx_HAL_Driver/Src/stm32u5xx_hal_dcmi.c ****   hdcmi->XferTransferNumber = 0;
 415:Drivers/STM32U5xx_HAL_Driver/Src/stm32u5xx_hal_dcmi.c ****   hdcmi->XferSize = 0;
 416:Drivers/STM32U5xx_HAL_Driver/Src/stm32u5xx_hal_dcmi.c ****   hdcmi->pBuffPtr = 0;
 417:Drivers/STM32U5xx_HAL_Driver/Src/stm32u5xx_hal_dcmi.c **** 
 418:Drivers/STM32U5xx_HAL_Driver/Src/stm32u5xx_hal_dcmi.c ****   /* Length should be converted to number of bytes */
 419:Drivers/STM32U5xx_HAL_Driver/Src/stm32u5xx_hal_dcmi.c ****   tmp_length = tmp_length * 4U;
 420:Drivers/STM32U5xx_HAL_Driver/Src/stm32u5xx_hal_dcmi.c **** 
 421:Drivers/STM32U5xx_HAL_Driver/Src/stm32u5xx_hal_dcmi.c ****   if (tmp_length <= 0xFFFFU)
 422:Drivers/STM32U5xx_HAL_Driver/Src/stm32u5xx_hal_dcmi.c ****   {
 423:Drivers/STM32U5xx_HAL_Driver/Src/stm32u5xx_hal_dcmi.c ****     /* Continuoues Mode */
 424:Drivers/STM32U5xx_HAL_Driver/Src/stm32u5xx_hal_dcmi.c ****     /* Enable the DMA Stream */
 425:Drivers/STM32U5xx_HAL_Driver/Src/stm32u5xx_hal_dcmi.c ****     if ((hdcmi->DMA_Handle->Mode & DMA_LINKEDLIST) == DMA_LINKEDLIST)
 426:Drivers/STM32U5xx_HAL_Driver/Src/stm32u5xx_hal_dcmi.c ****     {
 427:Drivers/STM32U5xx_HAL_Driver/Src/stm32u5xx_hal_dcmi.c ****       if ((hdcmi->DMA_Handle->LinkedListQueue != 0U) && (hdcmi->DMA_Handle->LinkedListQueue->Head !
 428:Drivers/STM32U5xx_HAL_Driver/Src/stm32u5xx_hal_dcmi.c ****       {
ARM GAS  C:\usertemp\ccMMWJQW.s 			page 9


 429:Drivers/STM32U5xx_HAL_Driver/Src/stm32u5xx_hal_dcmi.c ****         /* Set Source , Destination , Length for DMA Xfer */
 430:Drivers/STM32U5xx_HAL_Driver/Src/stm32u5xx_hal_dcmi.c **** 
 431:Drivers/STM32U5xx_HAL_Driver/Src/stm32u5xx_hal_dcmi.c ****         /* Set DMA data size           */
 432:Drivers/STM32U5xx_HAL_Driver/Src/stm32u5xx_hal_dcmi.c ****         hdcmi->DMA_Handle->LinkedListQueue->Head->LinkRegisters[NODE_CBR1_DEFAULT_OFFSET] = tmp_len
 433:Drivers/STM32U5xx_HAL_Driver/Src/stm32u5xx_hal_dcmi.c ****         /* Set DMA source address      */
 434:Drivers/STM32U5xx_HAL_Driver/Src/stm32u5xx_hal_dcmi.c ****         hdcmi->DMA_Handle->LinkedListQueue->Head->LinkRegisters[NODE_CSAR_DEFAULT_OFFSET] = \
 435:Drivers/STM32U5xx_HAL_Driver/Src/stm32u5xx_hal_dcmi.c ****             (uint32_t)&hdcmi->Instance->DR;
 436:Drivers/STM32U5xx_HAL_Driver/Src/stm32u5xx_hal_dcmi.c ****         /* Set DMA destination address */
 437:Drivers/STM32U5xx_HAL_Driver/Src/stm32u5xx_hal_dcmi.c ****         hdcmi->DMA_Handle->LinkedListQueue->Head->LinkRegisters[NODE_CDAR_DEFAULT_OFFSET] = (uint32
 438:Drivers/STM32U5xx_HAL_Driver/Src/stm32u5xx_hal_dcmi.c **** 
 439:Drivers/STM32U5xx_HAL_Driver/Src/stm32u5xx_hal_dcmi.c ****         status = HAL_DMAEx_List_Start_IT(hdcmi->DMA_Handle);
 440:Drivers/STM32U5xx_HAL_Driver/Src/stm32u5xx_hal_dcmi.c ****       }
 441:Drivers/STM32U5xx_HAL_Driver/Src/stm32u5xx_hal_dcmi.c ****       else
 442:Drivers/STM32U5xx_HAL_Driver/Src/stm32u5xx_hal_dcmi.c ****       {
 443:Drivers/STM32U5xx_HAL_Driver/Src/stm32u5xx_hal_dcmi.c ****         /* Set Error Code */
 444:Drivers/STM32U5xx_HAL_Driver/Src/stm32u5xx_hal_dcmi.c ****         hdcmi->ErrorCode = HAL_DCMI_ERROR_DMA;
 445:Drivers/STM32U5xx_HAL_Driver/Src/stm32u5xx_hal_dcmi.c ****         /* Change DCMI state */
 446:Drivers/STM32U5xx_HAL_Driver/Src/stm32u5xx_hal_dcmi.c ****         hdcmi->State = HAL_DCMI_STATE_READY;
 447:Drivers/STM32U5xx_HAL_Driver/Src/stm32u5xx_hal_dcmi.c ****         /* Release Lock */
 448:Drivers/STM32U5xx_HAL_Driver/Src/stm32u5xx_hal_dcmi.c ****         __HAL_UNLOCK(hdcmi);
 449:Drivers/STM32U5xx_HAL_Driver/Src/stm32u5xx_hal_dcmi.c ****         /* Return function status */
 450:Drivers/STM32U5xx_HAL_Driver/Src/stm32u5xx_hal_dcmi.c ****         status = HAL_ERROR;
 451:Drivers/STM32U5xx_HAL_Driver/Src/stm32u5xx_hal_dcmi.c ****       }
 452:Drivers/STM32U5xx_HAL_Driver/Src/stm32u5xx_hal_dcmi.c ****     }
 453:Drivers/STM32U5xx_HAL_Driver/Src/stm32u5xx_hal_dcmi.c ****     else
 454:Drivers/STM32U5xx_HAL_Driver/Src/stm32u5xx_hal_dcmi.c ****     {
 455:Drivers/STM32U5xx_HAL_Driver/Src/stm32u5xx_hal_dcmi.c ****       status = HAL_DMA_Start_IT(hdcmi->DMA_Handle, (uint32_t)&hdcmi->Instance->DR, (uint32_t)pData,
 456:Drivers/STM32U5xx_HAL_Driver/Src/stm32u5xx_hal_dcmi.c ****     }
 457:Drivers/STM32U5xx_HAL_Driver/Src/stm32u5xx_hal_dcmi.c ****   }
 458:Drivers/STM32U5xx_HAL_Driver/Src/stm32u5xx_hal_dcmi.c ****   else /* DCMI_DOUBLE_BUFFER Mode */
 459:Drivers/STM32U5xx_HAL_Driver/Src/stm32u5xx_hal_dcmi.c ****   {
 460:Drivers/STM32U5xx_HAL_Driver/Src/stm32u5xx_hal_dcmi.c ****     /* Double buffering is used through 2 Nodes
 461:Drivers/STM32U5xx_HAL_Driver/Src/stm32u5xx_hal_dcmi.c ****        Calculate the elementary size to be transferred by each node */
 462:Drivers/STM32U5xx_HAL_Driver/Src/stm32u5xx_hal_dcmi.c **** 
 463:Drivers/STM32U5xx_HAL_Driver/Src/stm32u5xx_hal_dcmi.c ****     /* Initialize transfer parameters */
 464:Drivers/STM32U5xx_HAL_Driver/Src/stm32u5xx_hal_dcmi.c ****     hdcmi->XferCount = 1;
 465:Drivers/STM32U5xx_HAL_Driver/Src/stm32u5xx_hal_dcmi.c ****     hdcmi->XferSize = tmp_length;
 466:Drivers/STM32U5xx_HAL_Driver/Src/stm32u5xx_hal_dcmi.c ****     hdcmi->pBuffPtr = pData;
 467:Drivers/STM32U5xx_HAL_Driver/Src/stm32u5xx_hal_dcmi.c **** 
 468:Drivers/STM32U5xx_HAL_Driver/Src/stm32u5xx_hal_dcmi.c ****     /* Get the number of buffer */
 469:Drivers/STM32U5xx_HAL_Driver/Src/stm32u5xx_hal_dcmi.c ****     while (hdcmi->XferSize > 0xFFFFU)
 470:Drivers/STM32U5xx_HAL_Driver/Src/stm32u5xx_hal_dcmi.c ****     {
 471:Drivers/STM32U5xx_HAL_Driver/Src/stm32u5xx_hal_dcmi.c ****       hdcmi->XferSize = (hdcmi->XferSize / 2U);
 472:Drivers/STM32U5xx_HAL_Driver/Src/stm32u5xx_hal_dcmi.c ****       hdcmi->XferCount = hdcmi->XferCount * 2U;
 473:Drivers/STM32U5xx_HAL_Driver/Src/stm32u5xx_hal_dcmi.c ****     }
 474:Drivers/STM32U5xx_HAL_Driver/Src/stm32u5xx_hal_dcmi.c **** 
 475:Drivers/STM32U5xx_HAL_Driver/Src/stm32u5xx_hal_dcmi.c ****     /* Update DCMI counter  and transfer number*/
 476:Drivers/STM32U5xx_HAL_Driver/Src/stm32u5xx_hal_dcmi.c ****     hdcmi->XferCount = (hdcmi->XferCount - 1U);
 477:Drivers/STM32U5xx_HAL_Driver/Src/stm32u5xx_hal_dcmi.c ****     hdcmi->XferTransferNumber = hdcmi->XferCount;
 478:Drivers/STM32U5xx_HAL_Driver/Src/stm32u5xx_hal_dcmi.c **** 
 479:Drivers/STM32U5xx_HAL_Driver/Src/stm32u5xx_hal_dcmi.c ****     if ((hdcmi->DMA_Handle->Mode & DMA_LINKEDLIST) == DMA_LINKEDLIST)
 480:Drivers/STM32U5xx_HAL_Driver/Src/stm32u5xx_hal_dcmi.c ****     {
 481:Drivers/STM32U5xx_HAL_Driver/Src/stm32u5xx_hal_dcmi.c ****       if ((hdcmi->DMA_Handle->LinkedListQueue != 0U) && (hdcmi->DMA_Handle->LinkedListQueue->Head !
 482:Drivers/STM32U5xx_HAL_Driver/Src/stm32u5xx_hal_dcmi.c ****       {
 483:Drivers/STM32U5xx_HAL_Driver/Src/stm32u5xx_hal_dcmi.c ****         /* Update first node */
 484:Drivers/STM32U5xx_HAL_Driver/Src/stm32u5xx_hal_dcmi.c **** 
 485:Drivers/STM32U5xx_HAL_Driver/Src/stm32u5xx_hal_dcmi.c ****         /* Set DMA Data size */
ARM GAS  C:\usertemp\ccMMWJQW.s 			page 10


 486:Drivers/STM32U5xx_HAL_Driver/Src/stm32u5xx_hal_dcmi.c ****         hdcmi->DMA_Handle->LinkedListQueue->Head->LinkRegisters[NODE_CBR1_DEFAULT_OFFSET] = hdcmi->
 487:Drivers/STM32U5xx_HAL_Driver/Src/stm32u5xx_hal_dcmi.c **** 
 488:Drivers/STM32U5xx_HAL_Driver/Src/stm32u5xx_hal_dcmi.c ****         /* Set DMA Source address */
 489:Drivers/STM32U5xx_HAL_Driver/Src/stm32u5xx_hal_dcmi.c ****         hdcmi->DMA_Handle->LinkedListQueue->Head->LinkRegisters[NODE_CSAR_DEFAULT_OFFSET] = \
 490:Drivers/STM32U5xx_HAL_Driver/Src/stm32u5xx_hal_dcmi.c ****             (uint32_t)&hdcmi->Instance->DR;
 491:Drivers/STM32U5xx_HAL_Driver/Src/stm32u5xx_hal_dcmi.c **** 
 492:Drivers/STM32U5xx_HAL_Driver/Src/stm32u5xx_hal_dcmi.c ****         /* Set DMA Destination address */
 493:Drivers/STM32U5xx_HAL_Driver/Src/stm32u5xx_hal_dcmi.c ****         hdcmi->DMA_Handle->LinkedListQueue->Head->LinkRegisters[NODE_CDAR_DEFAULT_OFFSET] = (uint32
 494:Drivers/STM32U5xx_HAL_Driver/Src/stm32u5xx_hal_dcmi.c **** 
 495:Drivers/STM32U5xx_HAL_Driver/Src/stm32u5xx_hal_dcmi.c ****         /* Get CLLR offset */
 496:Drivers/STM32U5xx_HAL_Driver/Src/stm32u5xx_hal_dcmi.c ****         cllr_offset = (hdcmi->DMA_Handle->LinkedListQueue->Head->NodeInfo & NODE_CLLR_IDX) >> 8U;
 497:Drivers/STM32U5xx_HAL_Driver/Src/stm32u5xx_hal_dcmi.c **** 
 498:Drivers/STM32U5xx_HAL_Driver/Src/stm32u5xx_hal_dcmi.c ****         /* Update second node */
 499:Drivers/STM32U5xx_HAL_Driver/Src/stm32u5xx_hal_dcmi.c ****         if (hdcmi->DMA_Handle->LinkedListQueue->Head->LinkRegisters[cllr_offset] != 0U)
 500:Drivers/STM32U5xx_HAL_Driver/Src/stm32u5xx_hal_dcmi.c ****         {
 501:Drivers/STM32U5xx_HAL_Driver/Src/stm32u5xx_hal_dcmi.c ****           tmp1 = (uint32_t)hdcmi->DMA_Handle->LinkedListQueue->Head ;
 502:Drivers/STM32U5xx_HAL_Driver/Src/stm32u5xx_hal_dcmi.c ****           tmp2 = hdcmi->DMA_Handle->LinkedListQueue->Head->LinkRegisters[cllr_offset];
 503:Drivers/STM32U5xx_HAL_Driver/Src/stm32u5xx_hal_dcmi.c ****           /* Update second node */
 504:Drivers/STM32U5xx_HAL_Driver/Src/stm32u5xx_hal_dcmi.c **** 
 505:Drivers/STM32U5xx_HAL_Driver/Src/stm32u5xx_hal_dcmi.c ****           /* Set DMA Data size */
 506:Drivers/STM32U5xx_HAL_Driver/Src/stm32u5xx_hal_dcmi.c ****           ((DMA_NodeTypeDef *)((tmp1 & DMA_CLBAR_LBA) + \
 507:Drivers/STM32U5xx_HAL_Driver/Src/stm32u5xx_hal_dcmi.c ****                                (tmp2 & DMA_CLLR_LA)))->LinkRegisters[NODE_CBR1_DEFAULT_OFFSET] = hd
 508:Drivers/STM32U5xx_HAL_Driver/Src/stm32u5xx_hal_dcmi.c **** 
 509:Drivers/STM32U5xx_HAL_Driver/Src/stm32u5xx_hal_dcmi.c ****           /* Set DMA Source address */
 510:Drivers/STM32U5xx_HAL_Driver/Src/stm32u5xx_hal_dcmi.c ****           ((DMA_NodeTypeDef *)((tmp1 & DMA_CLBAR_LBA) + \
 511:Drivers/STM32U5xx_HAL_Driver/Src/stm32u5xx_hal_dcmi.c ****                                (tmp2 & DMA_CLLR_LA)))->LinkRegisters[NODE_CSAR_DEFAULT_OFFSET] = \
 512:Drivers/STM32U5xx_HAL_Driver/Src/stm32u5xx_hal_dcmi.c ****                                    (uint32_t)&hdcmi->Instance->DR;
 513:Drivers/STM32U5xx_HAL_Driver/Src/stm32u5xx_hal_dcmi.c **** 
 514:Drivers/STM32U5xx_HAL_Driver/Src/stm32u5xx_hal_dcmi.c ****           /* Set DMA Destination address */
 515:Drivers/STM32U5xx_HAL_Driver/Src/stm32u5xx_hal_dcmi.c ****           ((DMA_NodeTypeDef *)((tmp1 & DMA_CLBAR_LBA) + \
 516:Drivers/STM32U5xx_HAL_Driver/Src/stm32u5xx_hal_dcmi.c ****                                (tmp2 & DMA_CLLR_LA)))->LinkRegisters[NODE_CDAR_DEFAULT_OFFSET] = \
 517:Drivers/STM32U5xx_HAL_Driver/Src/stm32u5xx_hal_dcmi.c ****                                    (uint32_t)pData + hdcmi->XferSize;
 518:Drivers/STM32U5xx_HAL_Driver/Src/stm32u5xx_hal_dcmi.c **** 
 519:Drivers/STM32U5xx_HAL_Driver/Src/stm32u5xx_hal_dcmi.c ****           if (HAL_DMAEx_List_Start_IT(hdcmi->DMA_Handle) != HAL_OK)
 520:Drivers/STM32U5xx_HAL_Driver/Src/stm32u5xx_hal_dcmi.c ****           {
 521:Drivers/STM32U5xx_HAL_Driver/Src/stm32u5xx_hal_dcmi.c ****             /* Set Error Code */
 522:Drivers/STM32U5xx_HAL_Driver/Src/stm32u5xx_hal_dcmi.c ****             hdcmi->ErrorCode = HAL_DCMI_ERROR_DMA;
 523:Drivers/STM32U5xx_HAL_Driver/Src/stm32u5xx_hal_dcmi.c ****             /* Change DCMI state */
 524:Drivers/STM32U5xx_HAL_Driver/Src/stm32u5xx_hal_dcmi.c ****             hdcmi->State = HAL_DCMI_STATE_READY;
 525:Drivers/STM32U5xx_HAL_Driver/Src/stm32u5xx_hal_dcmi.c ****             /* Release Lock */
 526:Drivers/STM32U5xx_HAL_Driver/Src/stm32u5xx_hal_dcmi.c ****             __HAL_UNLOCK(hdcmi);
 527:Drivers/STM32U5xx_HAL_Driver/Src/stm32u5xx_hal_dcmi.c ****             /* Return function status */
 528:Drivers/STM32U5xx_HAL_Driver/Src/stm32u5xx_hal_dcmi.c ****             status = HAL_ERROR;
 529:Drivers/STM32U5xx_HAL_Driver/Src/stm32u5xx_hal_dcmi.c ****           }
 530:Drivers/STM32U5xx_HAL_Driver/Src/stm32u5xx_hal_dcmi.c ****         }
 531:Drivers/STM32U5xx_HAL_Driver/Src/stm32u5xx_hal_dcmi.c ****         else
 532:Drivers/STM32U5xx_HAL_Driver/Src/stm32u5xx_hal_dcmi.c ****         {
 533:Drivers/STM32U5xx_HAL_Driver/Src/stm32u5xx_hal_dcmi.c ****           /* Set Error Code */
 534:Drivers/STM32U5xx_HAL_Driver/Src/stm32u5xx_hal_dcmi.c ****           hdcmi->ErrorCode = HAL_DCMI_ERROR_DMA;
 535:Drivers/STM32U5xx_HAL_Driver/Src/stm32u5xx_hal_dcmi.c ****           /* Change DCMI state */
 536:Drivers/STM32U5xx_HAL_Driver/Src/stm32u5xx_hal_dcmi.c ****           hdcmi->State = HAL_DCMI_STATE_READY;
 537:Drivers/STM32U5xx_HAL_Driver/Src/stm32u5xx_hal_dcmi.c ****           /* Release Lock */
 538:Drivers/STM32U5xx_HAL_Driver/Src/stm32u5xx_hal_dcmi.c ****           __HAL_UNLOCK(hdcmi);
 539:Drivers/STM32U5xx_HAL_Driver/Src/stm32u5xx_hal_dcmi.c ****           /* Return function status */
 540:Drivers/STM32U5xx_HAL_Driver/Src/stm32u5xx_hal_dcmi.c ****           status = HAL_ERROR;
 541:Drivers/STM32U5xx_HAL_Driver/Src/stm32u5xx_hal_dcmi.c ****         }
 542:Drivers/STM32U5xx_HAL_Driver/Src/stm32u5xx_hal_dcmi.c ****       }
ARM GAS  C:\usertemp\ccMMWJQW.s 			page 11


 543:Drivers/STM32U5xx_HAL_Driver/Src/stm32u5xx_hal_dcmi.c ****       else
 544:Drivers/STM32U5xx_HAL_Driver/Src/stm32u5xx_hal_dcmi.c ****       {
 545:Drivers/STM32U5xx_HAL_Driver/Src/stm32u5xx_hal_dcmi.c ****         /* Set Error Code */
 546:Drivers/STM32U5xx_HAL_Driver/Src/stm32u5xx_hal_dcmi.c ****         hdcmi->ErrorCode = HAL_DCMI_ERROR_DMA;
 547:Drivers/STM32U5xx_HAL_Driver/Src/stm32u5xx_hal_dcmi.c ****         /* Change DCMI state */
 548:Drivers/STM32U5xx_HAL_Driver/Src/stm32u5xx_hal_dcmi.c ****         hdcmi->State = HAL_DCMI_STATE_READY;
 549:Drivers/STM32U5xx_HAL_Driver/Src/stm32u5xx_hal_dcmi.c ****         /* Release Lock */
 550:Drivers/STM32U5xx_HAL_Driver/Src/stm32u5xx_hal_dcmi.c ****         __HAL_UNLOCK(hdcmi);
 551:Drivers/STM32U5xx_HAL_Driver/Src/stm32u5xx_hal_dcmi.c ****         /* Return function status */
 552:Drivers/STM32U5xx_HAL_Driver/Src/stm32u5xx_hal_dcmi.c ****         status = HAL_ERROR;
 553:Drivers/STM32U5xx_HAL_Driver/Src/stm32u5xx_hal_dcmi.c ****       }
 554:Drivers/STM32U5xx_HAL_Driver/Src/stm32u5xx_hal_dcmi.c ****     }
 555:Drivers/STM32U5xx_HAL_Driver/Src/stm32u5xx_hal_dcmi.c ****     else
 556:Drivers/STM32U5xx_HAL_Driver/Src/stm32u5xx_hal_dcmi.c ****     {
 557:Drivers/STM32U5xx_HAL_Driver/Src/stm32u5xx_hal_dcmi.c ****       /* Set Error Code */
 558:Drivers/STM32U5xx_HAL_Driver/Src/stm32u5xx_hal_dcmi.c ****       hdcmi->ErrorCode = HAL_DCMI_ERROR_DMA;
 559:Drivers/STM32U5xx_HAL_Driver/Src/stm32u5xx_hal_dcmi.c ****       /* Change DCMI state */
 560:Drivers/STM32U5xx_HAL_Driver/Src/stm32u5xx_hal_dcmi.c ****       hdcmi->State = HAL_DCMI_STATE_READY;
 561:Drivers/STM32U5xx_HAL_Driver/Src/stm32u5xx_hal_dcmi.c ****       /* Release Lock */
 562:Drivers/STM32U5xx_HAL_Driver/Src/stm32u5xx_hal_dcmi.c ****       __HAL_UNLOCK(hdcmi);
 563:Drivers/STM32U5xx_HAL_Driver/Src/stm32u5xx_hal_dcmi.c ****       /* Return function status */
 564:Drivers/STM32U5xx_HAL_Driver/Src/stm32u5xx_hal_dcmi.c ****       status = HAL_ERROR;
 565:Drivers/STM32U5xx_HAL_Driver/Src/stm32u5xx_hal_dcmi.c ****     }
 566:Drivers/STM32U5xx_HAL_Driver/Src/stm32u5xx_hal_dcmi.c ****   }
 567:Drivers/STM32U5xx_HAL_Driver/Src/stm32u5xx_hal_dcmi.c ****   if (status == HAL_OK)
 568:Drivers/STM32U5xx_HAL_Driver/Src/stm32u5xx_hal_dcmi.c ****   {
 569:Drivers/STM32U5xx_HAL_Driver/Src/stm32u5xx_hal_dcmi.c ****     /* Enable Capture */
 570:Drivers/STM32U5xx_HAL_Driver/Src/stm32u5xx_hal_dcmi.c ****     hdcmi->Instance->CR |= DCMI_CR_CAPTURE;
 571:Drivers/STM32U5xx_HAL_Driver/Src/stm32u5xx_hal_dcmi.c **** 
 572:Drivers/STM32U5xx_HAL_Driver/Src/stm32u5xx_hal_dcmi.c ****     /* Release Lock */
 573:Drivers/STM32U5xx_HAL_Driver/Src/stm32u5xx_hal_dcmi.c ****     __HAL_UNLOCK(hdcmi);
 574:Drivers/STM32U5xx_HAL_Driver/Src/stm32u5xx_hal_dcmi.c ****   }
 575:Drivers/STM32U5xx_HAL_Driver/Src/stm32u5xx_hal_dcmi.c ****   else
 576:Drivers/STM32U5xx_HAL_Driver/Src/stm32u5xx_hal_dcmi.c ****   {
 577:Drivers/STM32U5xx_HAL_Driver/Src/stm32u5xx_hal_dcmi.c ****     /* Set Error Code */
 578:Drivers/STM32U5xx_HAL_Driver/Src/stm32u5xx_hal_dcmi.c ****     hdcmi->ErrorCode = HAL_DCMI_ERROR_DMA;
 579:Drivers/STM32U5xx_HAL_Driver/Src/stm32u5xx_hal_dcmi.c ****     /* Change DCMI state */
 580:Drivers/STM32U5xx_HAL_Driver/Src/stm32u5xx_hal_dcmi.c ****     hdcmi->State = HAL_DCMI_STATE_READY;
 581:Drivers/STM32U5xx_HAL_Driver/Src/stm32u5xx_hal_dcmi.c ****     /* Release Lock */
 582:Drivers/STM32U5xx_HAL_Driver/Src/stm32u5xx_hal_dcmi.c ****     __HAL_UNLOCK(hdcmi);
 583:Drivers/STM32U5xx_HAL_Driver/Src/stm32u5xx_hal_dcmi.c ****     /* Return function status */
 584:Drivers/STM32U5xx_HAL_Driver/Src/stm32u5xx_hal_dcmi.c ****     status = HAL_ERROR;
 585:Drivers/STM32U5xx_HAL_Driver/Src/stm32u5xx_hal_dcmi.c ****   }
 586:Drivers/STM32U5xx_HAL_Driver/Src/stm32u5xx_hal_dcmi.c **** 
 587:Drivers/STM32U5xx_HAL_Driver/Src/stm32u5xx_hal_dcmi.c ****   /* Return function status */
 588:Drivers/STM32U5xx_HAL_Driver/Src/stm32u5xx_hal_dcmi.c ****   return status;
 589:Drivers/STM32U5xx_HAL_Driver/Src/stm32u5xx_hal_dcmi.c **** }
 590:Drivers/STM32U5xx_HAL_Driver/Src/stm32u5xx_hal_dcmi.c **** 
 591:Drivers/STM32U5xx_HAL_Driver/Src/stm32u5xx_hal_dcmi.c **** /**
 592:Drivers/STM32U5xx_HAL_Driver/Src/stm32u5xx_hal_dcmi.c ****   * @brief  Disable DCMI DMA request and Disable DCMI capture
 593:Drivers/STM32U5xx_HAL_Driver/Src/stm32u5xx_hal_dcmi.c ****   * @param  hdcmi pointer to a DCMI_HandleTypeDef structure that contains
 594:Drivers/STM32U5xx_HAL_Driver/Src/stm32u5xx_hal_dcmi.c ****   *                the configuration information for DCMI.
 595:Drivers/STM32U5xx_HAL_Driver/Src/stm32u5xx_hal_dcmi.c ****   * @retval HAL status
 596:Drivers/STM32U5xx_HAL_Driver/Src/stm32u5xx_hal_dcmi.c ****   */
 597:Drivers/STM32U5xx_HAL_Driver/Src/stm32u5xx_hal_dcmi.c **** HAL_StatusTypeDef HAL_DCMI_Stop(DCMI_HandleTypeDef *hdcmi)
 598:Drivers/STM32U5xx_HAL_Driver/Src/stm32u5xx_hal_dcmi.c **** {
 599:Drivers/STM32U5xx_HAL_Driver/Src/stm32u5xx_hal_dcmi.c ****   uint32_t count = HAL_TIMEOUT_DCMI_STOP * (SystemCoreClock / 8U / 1000U);
ARM GAS  C:\usertemp\ccMMWJQW.s 			page 12


 600:Drivers/STM32U5xx_HAL_Driver/Src/stm32u5xx_hal_dcmi.c ****   HAL_StatusTypeDef status = HAL_OK;
 601:Drivers/STM32U5xx_HAL_Driver/Src/stm32u5xx_hal_dcmi.c **** 
 602:Drivers/STM32U5xx_HAL_Driver/Src/stm32u5xx_hal_dcmi.c ****   /* Process locked */
 603:Drivers/STM32U5xx_HAL_Driver/Src/stm32u5xx_hal_dcmi.c ****   __HAL_LOCK(hdcmi);
 604:Drivers/STM32U5xx_HAL_Driver/Src/stm32u5xx_hal_dcmi.c **** 
 605:Drivers/STM32U5xx_HAL_Driver/Src/stm32u5xx_hal_dcmi.c ****   /* Lock the DCMI peripheral state */
 606:Drivers/STM32U5xx_HAL_Driver/Src/stm32u5xx_hal_dcmi.c ****   hdcmi->State = HAL_DCMI_STATE_BUSY;
 607:Drivers/STM32U5xx_HAL_Driver/Src/stm32u5xx_hal_dcmi.c **** 
 608:Drivers/STM32U5xx_HAL_Driver/Src/stm32u5xx_hal_dcmi.c ****   /* Disable Capture */
 609:Drivers/STM32U5xx_HAL_Driver/Src/stm32u5xx_hal_dcmi.c ****   hdcmi->Instance->CR &= ~(DCMI_CR_CAPTURE);
 610:Drivers/STM32U5xx_HAL_Driver/Src/stm32u5xx_hal_dcmi.c **** 
 611:Drivers/STM32U5xx_HAL_Driver/Src/stm32u5xx_hal_dcmi.c ****   /* Check if the DCMI capture effectively disabled */
 612:Drivers/STM32U5xx_HAL_Driver/Src/stm32u5xx_hal_dcmi.c ****   do
 613:Drivers/STM32U5xx_HAL_Driver/Src/stm32u5xx_hal_dcmi.c ****   {
 614:Drivers/STM32U5xx_HAL_Driver/Src/stm32u5xx_hal_dcmi.c ****     count-- ;
 615:Drivers/STM32U5xx_HAL_Driver/Src/stm32u5xx_hal_dcmi.c ****     if (count == 0U)
 616:Drivers/STM32U5xx_HAL_Driver/Src/stm32u5xx_hal_dcmi.c ****     {
 617:Drivers/STM32U5xx_HAL_Driver/Src/stm32u5xx_hal_dcmi.c ****       /* Update error code */
 618:Drivers/STM32U5xx_HAL_Driver/Src/stm32u5xx_hal_dcmi.c ****       hdcmi->ErrorCode |= HAL_DCMI_ERROR_TIMEOUT;
 619:Drivers/STM32U5xx_HAL_Driver/Src/stm32u5xx_hal_dcmi.c **** 
 620:Drivers/STM32U5xx_HAL_Driver/Src/stm32u5xx_hal_dcmi.c ****       status = HAL_TIMEOUT;
 621:Drivers/STM32U5xx_HAL_Driver/Src/stm32u5xx_hal_dcmi.c ****       break;
 622:Drivers/STM32U5xx_HAL_Driver/Src/stm32u5xx_hal_dcmi.c ****     }
 623:Drivers/STM32U5xx_HAL_Driver/Src/stm32u5xx_hal_dcmi.c ****   } while ((hdcmi->Instance->CR & DCMI_CR_CAPTURE) != 0U);
 624:Drivers/STM32U5xx_HAL_Driver/Src/stm32u5xx_hal_dcmi.c **** 
 625:Drivers/STM32U5xx_HAL_Driver/Src/stm32u5xx_hal_dcmi.c ****   /* Disable the DCMI */
 626:Drivers/STM32U5xx_HAL_Driver/Src/stm32u5xx_hal_dcmi.c ****   __HAL_DCMI_DISABLE(hdcmi);
 627:Drivers/STM32U5xx_HAL_Driver/Src/stm32u5xx_hal_dcmi.c **** 
 628:Drivers/STM32U5xx_HAL_Driver/Src/stm32u5xx_hal_dcmi.c ****   /* Disable the DMA */
 629:Drivers/STM32U5xx_HAL_Driver/Src/stm32u5xx_hal_dcmi.c ****   (void)HAL_DMA_Abort(hdcmi->DMA_Handle);
 630:Drivers/STM32U5xx_HAL_Driver/Src/stm32u5xx_hal_dcmi.c **** 
 631:Drivers/STM32U5xx_HAL_Driver/Src/stm32u5xx_hal_dcmi.c ****   /* Update error code */
 632:Drivers/STM32U5xx_HAL_Driver/Src/stm32u5xx_hal_dcmi.c ****   hdcmi->ErrorCode |= HAL_DCMI_ERROR_NONE;
 633:Drivers/STM32U5xx_HAL_Driver/Src/stm32u5xx_hal_dcmi.c **** 
 634:Drivers/STM32U5xx_HAL_Driver/Src/stm32u5xx_hal_dcmi.c ****   /* Change DCMI state */
 635:Drivers/STM32U5xx_HAL_Driver/Src/stm32u5xx_hal_dcmi.c ****   hdcmi->State = HAL_DCMI_STATE_READY;
 636:Drivers/STM32U5xx_HAL_Driver/Src/stm32u5xx_hal_dcmi.c **** 
 637:Drivers/STM32U5xx_HAL_Driver/Src/stm32u5xx_hal_dcmi.c ****   /* Process Unlocked */
 638:Drivers/STM32U5xx_HAL_Driver/Src/stm32u5xx_hal_dcmi.c ****   __HAL_UNLOCK(hdcmi);
 639:Drivers/STM32U5xx_HAL_Driver/Src/stm32u5xx_hal_dcmi.c **** 
 640:Drivers/STM32U5xx_HAL_Driver/Src/stm32u5xx_hal_dcmi.c ****   /* Return function status */
 641:Drivers/STM32U5xx_HAL_Driver/Src/stm32u5xx_hal_dcmi.c ****   return status;
 642:Drivers/STM32U5xx_HAL_Driver/Src/stm32u5xx_hal_dcmi.c **** }
 643:Drivers/STM32U5xx_HAL_Driver/Src/stm32u5xx_hal_dcmi.c **** 
 644:Drivers/STM32U5xx_HAL_Driver/Src/stm32u5xx_hal_dcmi.c **** /**
 645:Drivers/STM32U5xx_HAL_Driver/Src/stm32u5xx_hal_dcmi.c ****   * @brief  Suspend DCMI capture
 646:Drivers/STM32U5xx_HAL_Driver/Src/stm32u5xx_hal_dcmi.c ****   * @param  hdcmi pointer to a DCMI_HandleTypeDef structure that contains
 647:Drivers/STM32U5xx_HAL_Driver/Src/stm32u5xx_hal_dcmi.c ****   *                the configuration information for DCMI.
 648:Drivers/STM32U5xx_HAL_Driver/Src/stm32u5xx_hal_dcmi.c ****   * @retval HAL status
 649:Drivers/STM32U5xx_HAL_Driver/Src/stm32u5xx_hal_dcmi.c ****   */
 650:Drivers/STM32U5xx_HAL_Driver/Src/stm32u5xx_hal_dcmi.c **** HAL_StatusTypeDef HAL_DCMI_Suspend(DCMI_HandleTypeDef *hdcmi)
 651:Drivers/STM32U5xx_HAL_Driver/Src/stm32u5xx_hal_dcmi.c **** {
 652:Drivers/STM32U5xx_HAL_Driver/Src/stm32u5xx_hal_dcmi.c ****   uint32_t count = HAL_TIMEOUT_DCMI_STOP * (SystemCoreClock / 8U / 1000U);
 653:Drivers/STM32U5xx_HAL_Driver/Src/stm32u5xx_hal_dcmi.c ****   HAL_StatusTypeDef status = HAL_OK;
 654:Drivers/STM32U5xx_HAL_Driver/Src/stm32u5xx_hal_dcmi.c **** 
 655:Drivers/STM32U5xx_HAL_Driver/Src/stm32u5xx_hal_dcmi.c ****   /* Process locked */
 656:Drivers/STM32U5xx_HAL_Driver/Src/stm32u5xx_hal_dcmi.c ****   __HAL_LOCK(hdcmi);
ARM GAS  C:\usertemp\ccMMWJQW.s 			page 13


 657:Drivers/STM32U5xx_HAL_Driver/Src/stm32u5xx_hal_dcmi.c **** 
 658:Drivers/STM32U5xx_HAL_Driver/Src/stm32u5xx_hal_dcmi.c ****   if (hdcmi->State == HAL_DCMI_STATE_BUSY)
 659:Drivers/STM32U5xx_HAL_Driver/Src/stm32u5xx_hal_dcmi.c ****   {
 660:Drivers/STM32U5xx_HAL_Driver/Src/stm32u5xx_hal_dcmi.c ****     /* Change DCMI state */
 661:Drivers/STM32U5xx_HAL_Driver/Src/stm32u5xx_hal_dcmi.c ****     hdcmi->State = HAL_DCMI_STATE_SUSPENDED;
 662:Drivers/STM32U5xx_HAL_Driver/Src/stm32u5xx_hal_dcmi.c **** 
 663:Drivers/STM32U5xx_HAL_Driver/Src/stm32u5xx_hal_dcmi.c ****     /* Disable Capture */
 664:Drivers/STM32U5xx_HAL_Driver/Src/stm32u5xx_hal_dcmi.c ****     hdcmi->Instance->CR &= ~(DCMI_CR_CAPTURE);
 665:Drivers/STM32U5xx_HAL_Driver/Src/stm32u5xx_hal_dcmi.c **** 
 666:Drivers/STM32U5xx_HAL_Driver/Src/stm32u5xx_hal_dcmi.c ****     /* Check if the DCMI capture effectively disabled */
 667:Drivers/STM32U5xx_HAL_Driver/Src/stm32u5xx_hal_dcmi.c ****     do
 668:Drivers/STM32U5xx_HAL_Driver/Src/stm32u5xx_hal_dcmi.c ****     {
 669:Drivers/STM32U5xx_HAL_Driver/Src/stm32u5xx_hal_dcmi.c ****       count-- ;
 670:Drivers/STM32U5xx_HAL_Driver/Src/stm32u5xx_hal_dcmi.c ****       if (count == 0U)
 671:Drivers/STM32U5xx_HAL_Driver/Src/stm32u5xx_hal_dcmi.c ****       {
 672:Drivers/STM32U5xx_HAL_Driver/Src/stm32u5xx_hal_dcmi.c ****         /* Update error code */
 673:Drivers/STM32U5xx_HAL_Driver/Src/stm32u5xx_hal_dcmi.c ****         hdcmi->ErrorCode |= HAL_DCMI_ERROR_TIMEOUT;
 674:Drivers/STM32U5xx_HAL_Driver/Src/stm32u5xx_hal_dcmi.c **** 
 675:Drivers/STM32U5xx_HAL_Driver/Src/stm32u5xx_hal_dcmi.c ****         /* Change DCMI state */
 676:Drivers/STM32U5xx_HAL_Driver/Src/stm32u5xx_hal_dcmi.c ****         hdcmi->State = HAL_DCMI_STATE_READY;
 677:Drivers/STM32U5xx_HAL_Driver/Src/stm32u5xx_hal_dcmi.c **** 
 678:Drivers/STM32U5xx_HAL_Driver/Src/stm32u5xx_hal_dcmi.c ****         status = HAL_TIMEOUT;
 679:Drivers/STM32U5xx_HAL_Driver/Src/stm32u5xx_hal_dcmi.c ****         break;
 680:Drivers/STM32U5xx_HAL_Driver/Src/stm32u5xx_hal_dcmi.c ****       }
 681:Drivers/STM32U5xx_HAL_Driver/Src/stm32u5xx_hal_dcmi.c ****     } while ((hdcmi->Instance->CR & DCMI_CR_CAPTURE) != 0U);
 682:Drivers/STM32U5xx_HAL_Driver/Src/stm32u5xx_hal_dcmi.c ****   }
 683:Drivers/STM32U5xx_HAL_Driver/Src/stm32u5xx_hal_dcmi.c ****   /* Process Unlocked */
 684:Drivers/STM32U5xx_HAL_Driver/Src/stm32u5xx_hal_dcmi.c ****   __HAL_UNLOCK(hdcmi);
 685:Drivers/STM32U5xx_HAL_Driver/Src/stm32u5xx_hal_dcmi.c **** 
 686:Drivers/STM32U5xx_HAL_Driver/Src/stm32u5xx_hal_dcmi.c ****   /* Return function status */
 687:Drivers/STM32U5xx_HAL_Driver/Src/stm32u5xx_hal_dcmi.c ****   return status;
 688:Drivers/STM32U5xx_HAL_Driver/Src/stm32u5xx_hal_dcmi.c **** }
 689:Drivers/STM32U5xx_HAL_Driver/Src/stm32u5xx_hal_dcmi.c **** 
 690:Drivers/STM32U5xx_HAL_Driver/Src/stm32u5xx_hal_dcmi.c **** /**
 691:Drivers/STM32U5xx_HAL_Driver/Src/stm32u5xx_hal_dcmi.c ****   * @brief  Resume DCMI capture
 692:Drivers/STM32U5xx_HAL_Driver/Src/stm32u5xx_hal_dcmi.c ****   * @param  hdcmi pointer to a DCMI_HandleTypeDef structure that contains
 693:Drivers/STM32U5xx_HAL_Driver/Src/stm32u5xx_hal_dcmi.c ****   *                the configuration information for DCMI.
 694:Drivers/STM32U5xx_HAL_Driver/Src/stm32u5xx_hal_dcmi.c ****   * @retval HAL status
 695:Drivers/STM32U5xx_HAL_Driver/Src/stm32u5xx_hal_dcmi.c ****   */
 696:Drivers/STM32U5xx_HAL_Driver/Src/stm32u5xx_hal_dcmi.c **** HAL_StatusTypeDef HAL_DCMI_Resume(DCMI_HandleTypeDef *hdcmi)
 697:Drivers/STM32U5xx_HAL_Driver/Src/stm32u5xx_hal_dcmi.c **** {
 698:Drivers/STM32U5xx_HAL_Driver/Src/stm32u5xx_hal_dcmi.c ****   /* Process locked */
 699:Drivers/STM32U5xx_HAL_Driver/Src/stm32u5xx_hal_dcmi.c ****   __HAL_LOCK(hdcmi);
 700:Drivers/STM32U5xx_HAL_Driver/Src/stm32u5xx_hal_dcmi.c **** 
 701:Drivers/STM32U5xx_HAL_Driver/Src/stm32u5xx_hal_dcmi.c ****   if (hdcmi->State == HAL_DCMI_STATE_SUSPENDED)
 702:Drivers/STM32U5xx_HAL_Driver/Src/stm32u5xx_hal_dcmi.c ****   {
 703:Drivers/STM32U5xx_HAL_Driver/Src/stm32u5xx_hal_dcmi.c ****     /* Change DCMI state */
 704:Drivers/STM32U5xx_HAL_Driver/Src/stm32u5xx_hal_dcmi.c ****     hdcmi->State = HAL_DCMI_STATE_BUSY;
 705:Drivers/STM32U5xx_HAL_Driver/Src/stm32u5xx_hal_dcmi.c **** 
 706:Drivers/STM32U5xx_HAL_Driver/Src/stm32u5xx_hal_dcmi.c ****     /* Enable Capture */
 707:Drivers/STM32U5xx_HAL_Driver/Src/stm32u5xx_hal_dcmi.c ****     hdcmi->Instance->CR |= DCMI_CR_CAPTURE;
 708:Drivers/STM32U5xx_HAL_Driver/Src/stm32u5xx_hal_dcmi.c ****   }
 709:Drivers/STM32U5xx_HAL_Driver/Src/stm32u5xx_hal_dcmi.c ****   /* Process Unlocked */
 710:Drivers/STM32U5xx_HAL_Driver/Src/stm32u5xx_hal_dcmi.c ****   __HAL_UNLOCK(hdcmi);
 711:Drivers/STM32U5xx_HAL_Driver/Src/stm32u5xx_hal_dcmi.c **** 
 712:Drivers/STM32U5xx_HAL_Driver/Src/stm32u5xx_hal_dcmi.c ****   /* Return function status */
 713:Drivers/STM32U5xx_HAL_Driver/Src/stm32u5xx_hal_dcmi.c ****   return HAL_OK;
ARM GAS  C:\usertemp\ccMMWJQW.s 			page 14


 714:Drivers/STM32U5xx_HAL_Driver/Src/stm32u5xx_hal_dcmi.c **** }
 715:Drivers/STM32U5xx_HAL_Driver/Src/stm32u5xx_hal_dcmi.c **** 
 716:Drivers/STM32U5xx_HAL_Driver/Src/stm32u5xx_hal_dcmi.c **** /**
 717:Drivers/STM32U5xx_HAL_Driver/Src/stm32u5xx_hal_dcmi.c ****   * @brief  Handles DCMI interrupt request.
 718:Drivers/STM32U5xx_HAL_Driver/Src/stm32u5xx_hal_dcmi.c ****   * @param  hdcmi pointer to a DCMI_HandleTypeDef structure that contains
 719:Drivers/STM32U5xx_HAL_Driver/Src/stm32u5xx_hal_dcmi.c ****   *                the configuration information for the DCMI.
 720:Drivers/STM32U5xx_HAL_Driver/Src/stm32u5xx_hal_dcmi.c ****   * @retval None
 721:Drivers/STM32U5xx_HAL_Driver/Src/stm32u5xx_hal_dcmi.c ****   */
 722:Drivers/STM32U5xx_HAL_Driver/Src/stm32u5xx_hal_dcmi.c **** void HAL_DCMI_IRQHandler(DCMI_HandleTypeDef *hdcmi)
 723:Drivers/STM32U5xx_HAL_Driver/Src/stm32u5xx_hal_dcmi.c **** {
 724:Drivers/STM32U5xx_HAL_Driver/Src/stm32u5xx_hal_dcmi.c ****   uint32_t isr_value = READ_REG(hdcmi->Instance->MISR);
 725:Drivers/STM32U5xx_HAL_Driver/Src/stm32u5xx_hal_dcmi.c **** 
 726:Drivers/STM32U5xx_HAL_Driver/Src/stm32u5xx_hal_dcmi.c ****   /* Synchronization error interrupt management *******************************/
 727:Drivers/STM32U5xx_HAL_Driver/Src/stm32u5xx_hal_dcmi.c ****   if ((isr_value & DCMI_FLAG_ERRRI) == DCMI_FLAG_ERRRI)
 728:Drivers/STM32U5xx_HAL_Driver/Src/stm32u5xx_hal_dcmi.c ****   {
 729:Drivers/STM32U5xx_HAL_Driver/Src/stm32u5xx_hal_dcmi.c ****     /* Clear the Synchronization error flag */
 730:Drivers/STM32U5xx_HAL_Driver/Src/stm32u5xx_hal_dcmi.c ****     __HAL_DCMI_CLEAR_FLAG(hdcmi, DCMI_FLAG_ERRRI);
 731:Drivers/STM32U5xx_HAL_Driver/Src/stm32u5xx_hal_dcmi.c **** 
 732:Drivers/STM32U5xx_HAL_Driver/Src/stm32u5xx_hal_dcmi.c ****     /* Update error code */
 733:Drivers/STM32U5xx_HAL_Driver/Src/stm32u5xx_hal_dcmi.c ****     hdcmi->ErrorCode |= HAL_DCMI_ERROR_SYNC;
 734:Drivers/STM32U5xx_HAL_Driver/Src/stm32u5xx_hal_dcmi.c **** 
 735:Drivers/STM32U5xx_HAL_Driver/Src/stm32u5xx_hal_dcmi.c ****     /* Change DCMI state */
 736:Drivers/STM32U5xx_HAL_Driver/Src/stm32u5xx_hal_dcmi.c ****     hdcmi->State = HAL_DCMI_STATE_ERROR;
 737:Drivers/STM32U5xx_HAL_Driver/Src/stm32u5xx_hal_dcmi.c **** 
 738:Drivers/STM32U5xx_HAL_Driver/Src/stm32u5xx_hal_dcmi.c ****     /* Set the synchronization error callback */
 739:Drivers/STM32U5xx_HAL_Driver/Src/stm32u5xx_hal_dcmi.c ****     hdcmi->DMA_Handle->XferAbortCallback = DCMI_DMAError;
 740:Drivers/STM32U5xx_HAL_Driver/Src/stm32u5xx_hal_dcmi.c **** 
 741:Drivers/STM32U5xx_HAL_Driver/Src/stm32u5xx_hal_dcmi.c ****     /* Abort the DMA Transfer */
 742:Drivers/STM32U5xx_HAL_Driver/Src/stm32u5xx_hal_dcmi.c ****     if (HAL_DMA_Abort_IT(hdcmi->DMA_Handle) != HAL_OK)
 743:Drivers/STM32U5xx_HAL_Driver/Src/stm32u5xx_hal_dcmi.c ****     {
 744:Drivers/STM32U5xx_HAL_Driver/Src/stm32u5xx_hal_dcmi.c ****       DCMI_DMAError(hdcmi->DMA_Handle);
 745:Drivers/STM32U5xx_HAL_Driver/Src/stm32u5xx_hal_dcmi.c ****     }
 746:Drivers/STM32U5xx_HAL_Driver/Src/stm32u5xx_hal_dcmi.c ****   }
 747:Drivers/STM32U5xx_HAL_Driver/Src/stm32u5xx_hal_dcmi.c ****   /* Overflow interrupt management ********************************************/
 748:Drivers/STM32U5xx_HAL_Driver/Src/stm32u5xx_hal_dcmi.c ****   if ((isr_value & DCMI_FLAG_OVRRI) == DCMI_FLAG_OVRRI)
 749:Drivers/STM32U5xx_HAL_Driver/Src/stm32u5xx_hal_dcmi.c ****   {
 750:Drivers/STM32U5xx_HAL_Driver/Src/stm32u5xx_hal_dcmi.c ****     /* Clear the Overflow flag */
 751:Drivers/STM32U5xx_HAL_Driver/Src/stm32u5xx_hal_dcmi.c ****     __HAL_DCMI_CLEAR_FLAG(hdcmi, DCMI_FLAG_OVRRI);
 752:Drivers/STM32U5xx_HAL_Driver/Src/stm32u5xx_hal_dcmi.c **** 
 753:Drivers/STM32U5xx_HAL_Driver/Src/stm32u5xx_hal_dcmi.c ****     /* Update error code */
 754:Drivers/STM32U5xx_HAL_Driver/Src/stm32u5xx_hal_dcmi.c ****     hdcmi->ErrorCode |= HAL_DCMI_ERROR_OVR;
 755:Drivers/STM32U5xx_HAL_Driver/Src/stm32u5xx_hal_dcmi.c **** 
 756:Drivers/STM32U5xx_HAL_Driver/Src/stm32u5xx_hal_dcmi.c ****     /* Change DCMI state */
 757:Drivers/STM32U5xx_HAL_Driver/Src/stm32u5xx_hal_dcmi.c ****     hdcmi->State = HAL_DCMI_STATE_ERROR;
 758:Drivers/STM32U5xx_HAL_Driver/Src/stm32u5xx_hal_dcmi.c **** 
 759:Drivers/STM32U5xx_HAL_Driver/Src/stm32u5xx_hal_dcmi.c ****     /* Set the overflow callback */
 760:Drivers/STM32U5xx_HAL_Driver/Src/stm32u5xx_hal_dcmi.c ****     hdcmi->DMA_Handle->XferAbortCallback = DCMI_DMAError;
 761:Drivers/STM32U5xx_HAL_Driver/Src/stm32u5xx_hal_dcmi.c **** 
 762:Drivers/STM32U5xx_HAL_Driver/Src/stm32u5xx_hal_dcmi.c ****     /* Abort the DMA Transfer */
 763:Drivers/STM32U5xx_HAL_Driver/Src/stm32u5xx_hal_dcmi.c ****     if (HAL_DMA_Abort_IT(hdcmi->DMA_Handle) != HAL_OK)
 764:Drivers/STM32U5xx_HAL_Driver/Src/stm32u5xx_hal_dcmi.c ****     {
 765:Drivers/STM32U5xx_HAL_Driver/Src/stm32u5xx_hal_dcmi.c ****       DCMI_DMAError(hdcmi->DMA_Handle);
 766:Drivers/STM32U5xx_HAL_Driver/Src/stm32u5xx_hal_dcmi.c ****     }
 767:Drivers/STM32U5xx_HAL_Driver/Src/stm32u5xx_hal_dcmi.c ****   }
 768:Drivers/STM32U5xx_HAL_Driver/Src/stm32u5xx_hal_dcmi.c ****   /* Line Interrupt management ************************************************/
 769:Drivers/STM32U5xx_HAL_Driver/Src/stm32u5xx_hal_dcmi.c ****   if ((isr_value & DCMI_FLAG_LINERI) == DCMI_FLAG_LINERI)
 770:Drivers/STM32U5xx_HAL_Driver/Src/stm32u5xx_hal_dcmi.c ****   {
ARM GAS  C:\usertemp\ccMMWJQW.s 			page 15


 771:Drivers/STM32U5xx_HAL_Driver/Src/stm32u5xx_hal_dcmi.c ****     /* Clear the Line interrupt flag */
 772:Drivers/STM32U5xx_HAL_Driver/Src/stm32u5xx_hal_dcmi.c ****     __HAL_DCMI_CLEAR_FLAG(hdcmi, DCMI_FLAG_LINERI);
 773:Drivers/STM32U5xx_HAL_Driver/Src/stm32u5xx_hal_dcmi.c **** 
 774:Drivers/STM32U5xx_HAL_Driver/Src/stm32u5xx_hal_dcmi.c ****     /* Line interrupt Callback */
 775:Drivers/STM32U5xx_HAL_Driver/Src/stm32u5xx_hal_dcmi.c **** #if (USE_HAL_DCMI_REGISTER_CALLBACKS == 1)
 776:Drivers/STM32U5xx_HAL_Driver/Src/stm32u5xx_hal_dcmi.c ****     /*Call registered DCMI line event callback*/
 777:Drivers/STM32U5xx_HAL_Driver/Src/stm32u5xx_hal_dcmi.c ****     hdcmi->LineEventCallback(hdcmi);
 778:Drivers/STM32U5xx_HAL_Driver/Src/stm32u5xx_hal_dcmi.c **** #else
 779:Drivers/STM32U5xx_HAL_Driver/Src/stm32u5xx_hal_dcmi.c ****     HAL_DCMI_LineEventCallback(hdcmi);
 780:Drivers/STM32U5xx_HAL_Driver/Src/stm32u5xx_hal_dcmi.c **** #endif /* USE_HAL_DCMI_REGISTER_CALLBACKS */
 781:Drivers/STM32U5xx_HAL_Driver/Src/stm32u5xx_hal_dcmi.c ****   }
 782:Drivers/STM32U5xx_HAL_Driver/Src/stm32u5xx_hal_dcmi.c ****   /* VSYNC interrupt management ***********************************************/
 783:Drivers/STM32U5xx_HAL_Driver/Src/stm32u5xx_hal_dcmi.c ****   if ((isr_value & DCMI_FLAG_VSYNCRI) == DCMI_FLAG_VSYNCRI)
 784:Drivers/STM32U5xx_HAL_Driver/Src/stm32u5xx_hal_dcmi.c ****   {
 785:Drivers/STM32U5xx_HAL_Driver/Src/stm32u5xx_hal_dcmi.c ****     /* Clear the VSYNC flag */
 786:Drivers/STM32U5xx_HAL_Driver/Src/stm32u5xx_hal_dcmi.c ****     __HAL_DCMI_CLEAR_FLAG(hdcmi, DCMI_FLAG_VSYNCRI);
 787:Drivers/STM32U5xx_HAL_Driver/Src/stm32u5xx_hal_dcmi.c **** 
 788:Drivers/STM32U5xx_HAL_Driver/Src/stm32u5xx_hal_dcmi.c ****     /* VSYNC Callback */
 789:Drivers/STM32U5xx_HAL_Driver/Src/stm32u5xx_hal_dcmi.c **** #if (USE_HAL_DCMI_REGISTER_CALLBACKS == 1)
 790:Drivers/STM32U5xx_HAL_Driver/Src/stm32u5xx_hal_dcmi.c ****     /*Call registered DCMI vsync event callback*/
 791:Drivers/STM32U5xx_HAL_Driver/Src/stm32u5xx_hal_dcmi.c ****     hdcmi->VsyncEventCallback(hdcmi);
 792:Drivers/STM32U5xx_HAL_Driver/Src/stm32u5xx_hal_dcmi.c **** #else
 793:Drivers/STM32U5xx_HAL_Driver/Src/stm32u5xx_hal_dcmi.c ****     HAL_DCMI_VsyncEventCallback(hdcmi);
 794:Drivers/STM32U5xx_HAL_Driver/Src/stm32u5xx_hal_dcmi.c **** #endif /* USE_HAL_DCMI_REGISTER_CALLBACKS */
 795:Drivers/STM32U5xx_HAL_Driver/Src/stm32u5xx_hal_dcmi.c ****   }
 796:Drivers/STM32U5xx_HAL_Driver/Src/stm32u5xx_hal_dcmi.c ****   /* FRAME interrupt management ***********************************************/
 797:Drivers/STM32U5xx_HAL_Driver/Src/stm32u5xx_hal_dcmi.c ****   if ((isr_value & DCMI_FLAG_FRAMERI) == DCMI_FLAG_FRAMERI)
 798:Drivers/STM32U5xx_HAL_Driver/Src/stm32u5xx_hal_dcmi.c ****   {
 799:Drivers/STM32U5xx_HAL_Driver/Src/stm32u5xx_hal_dcmi.c ****     /* When snapshot mode, disable Vsync, Error and Overrun interrupts */
 800:Drivers/STM32U5xx_HAL_Driver/Src/stm32u5xx_hal_dcmi.c ****     if ((hdcmi->Instance->CR & DCMI_CR_CM) == DCMI_MODE_SNAPSHOT)
 801:Drivers/STM32U5xx_HAL_Driver/Src/stm32u5xx_hal_dcmi.c ****     {
 802:Drivers/STM32U5xx_HAL_Driver/Src/stm32u5xx_hal_dcmi.c ****       /* Disable the Line, Vsync, Error and Overrun interrupts */
 803:Drivers/STM32U5xx_HAL_Driver/Src/stm32u5xx_hal_dcmi.c ****       __HAL_DCMI_DISABLE_IT(hdcmi, DCMI_IT_LINE | DCMI_IT_VSYNC | DCMI_IT_ERR | DCMI_IT_OVR);
 804:Drivers/STM32U5xx_HAL_Driver/Src/stm32u5xx_hal_dcmi.c ****     }
 805:Drivers/STM32U5xx_HAL_Driver/Src/stm32u5xx_hal_dcmi.c **** 
 806:Drivers/STM32U5xx_HAL_Driver/Src/stm32u5xx_hal_dcmi.c ****     /* Disable the Frame interrupt */
 807:Drivers/STM32U5xx_HAL_Driver/Src/stm32u5xx_hal_dcmi.c ****     __HAL_DCMI_DISABLE_IT(hdcmi, DCMI_IT_FRAME);
 808:Drivers/STM32U5xx_HAL_Driver/Src/stm32u5xx_hal_dcmi.c **** 
 809:Drivers/STM32U5xx_HAL_Driver/Src/stm32u5xx_hal_dcmi.c ****     /* Clear the End of Frame flag */
 810:Drivers/STM32U5xx_HAL_Driver/Src/stm32u5xx_hal_dcmi.c ****     __HAL_DCMI_CLEAR_FLAG(hdcmi, DCMI_FLAG_FRAMERI);
 811:Drivers/STM32U5xx_HAL_Driver/Src/stm32u5xx_hal_dcmi.c **** 
 812:Drivers/STM32U5xx_HAL_Driver/Src/stm32u5xx_hal_dcmi.c ****     /* Frame Callback */
 813:Drivers/STM32U5xx_HAL_Driver/Src/stm32u5xx_hal_dcmi.c **** #if (USE_HAL_DCMI_REGISTER_CALLBACKS == 1)
 814:Drivers/STM32U5xx_HAL_Driver/Src/stm32u5xx_hal_dcmi.c ****     /*Call registered DCMI frame event callback*/
 815:Drivers/STM32U5xx_HAL_Driver/Src/stm32u5xx_hal_dcmi.c ****     hdcmi->FrameEventCallback(hdcmi);
 816:Drivers/STM32U5xx_HAL_Driver/Src/stm32u5xx_hal_dcmi.c **** #else
 817:Drivers/STM32U5xx_HAL_Driver/Src/stm32u5xx_hal_dcmi.c ****     HAL_DCMI_FrameEventCallback(hdcmi);
 818:Drivers/STM32U5xx_HAL_Driver/Src/stm32u5xx_hal_dcmi.c **** #endif /* USE_HAL_DCMI_REGISTER_CALLBACKS */
 819:Drivers/STM32U5xx_HAL_Driver/Src/stm32u5xx_hal_dcmi.c ****   }
 820:Drivers/STM32U5xx_HAL_Driver/Src/stm32u5xx_hal_dcmi.c **** }
 821:Drivers/STM32U5xx_HAL_Driver/Src/stm32u5xx_hal_dcmi.c **** 
 822:Drivers/STM32U5xx_HAL_Driver/Src/stm32u5xx_hal_dcmi.c **** /**
 823:Drivers/STM32U5xx_HAL_Driver/Src/stm32u5xx_hal_dcmi.c ****   * @brief  Error DCMI callback.
 824:Drivers/STM32U5xx_HAL_Driver/Src/stm32u5xx_hal_dcmi.c ****   * @param  hdcmi pointer to a DCMI_HandleTypeDef structure that contains
 825:Drivers/STM32U5xx_HAL_Driver/Src/stm32u5xx_hal_dcmi.c ****   *                the configuration information for DCMI.
 826:Drivers/STM32U5xx_HAL_Driver/Src/stm32u5xx_hal_dcmi.c ****   * @retval None
 827:Drivers/STM32U5xx_HAL_Driver/Src/stm32u5xx_hal_dcmi.c ****   */
ARM GAS  C:\usertemp\ccMMWJQW.s 			page 16


 828:Drivers/STM32U5xx_HAL_Driver/Src/stm32u5xx_hal_dcmi.c **** __weak void HAL_DCMI_ErrorCallback(DCMI_HandleTypeDef *hdcmi)
 829:Drivers/STM32U5xx_HAL_Driver/Src/stm32u5xx_hal_dcmi.c **** {
 830:Drivers/STM32U5xx_HAL_Driver/Src/stm32u5xx_hal_dcmi.c ****   /* Prevent unused argument(s) compilation warning */
 831:Drivers/STM32U5xx_HAL_Driver/Src/stm32u5xx_hal_dcmi.c ****   UNUSED(hdcmi);
 832:Drivers/STM32U5xx_HAL_Driver/Src/stm32u5xx_hal_dcmi.c **** 
 833:Drivers/STM32U5xx_HAL_Driver/Src/stm32u5xx_hal_dcmi.c ****   /* NOTE : This function Should not be modified, when the callback is needed,
 834:Drivers/STM32U5xx_HAL_Driver/Src/stm32u5xx_hal_dcmi.c ****             the HAL_DCMI_ErrorCallback could be implemented in the user file
 835:Drivers/STM32U5xx_HAL_Driver/Src/stm32u5xx_hal_dcmi.c ****    */
 836:Drivers/STM32U5xx_HAL_Driver/Src/stm32u5xx_hal_dcmi.c **** }
 837:Drivers/STM32U5xx_HAL_Driver/Src/stm32u5xx_hal_dcmi.c **** 
 838:Drivers/STM32U5xx_HAL_Driver/Src/stm32u5xx_hal_dcmi.c **** /**
 839:Drivers/STM32U5xx_HAL_Driver/Src/stm32u5xx_hal_dcmi.c ****   * @brief  Line Event callback.
 840:Drivers/STM32U5xx_HAL_Driver/Src/stm32u5xx_hal_dcmi.c ****   * @param  hdcmi pointer to a DCMI_HandleTypeDef structure that contains
 841:Drivers/STM32U5xx_HAL_Driver/Src/stm32u5xx_hal_dcmi.c ****   *                the configuration information for DCMI.
 842:Drivers/STM32U5xx_HAL_Driver/Src/stm32u5xx_hal_dcmi.c ****   * @retval None
 843:Drivers/STM32U5xx_HAL_Driver/Src/stm32u5xx_hal_dcmi.c ****   */
 844:Drivers/STM32U5xx_HAL_Driver/Src/stm32u5xx_hal_dcmi.c **** __weak void HAL_DCMI_LineEventCallback(DCMI_HandleTypeDef *hdcmi)
 845:Drivers/STM32U5xx_HAL_Driver/Src/stm32u5xx_hal_dcmi.c **** {
 846:Drivers/STM32U5xx_HAL_Driver/Src/stm32u5xx_hal_dcmi.c ****   /* Prevent unused argument(s) compilation warning */
 847:Drivers/STM32U5xx_HAL_Driver/Src/stm32u5xx_hal_dcmi.c ****   UNUSED(hdcmi);
 848:Drivers/STM32U5xx_HAL_Driver/Src/stm32u5xx_hal_dcmi.c ****   /* NOTE : This function Should not be modified, when the callback is needed,
 849:Drivers/STM32U5xx_HAL_Driver/Src/stm32u5xx_hal_dcmi.c ****             the HAL_DCMI_LineEventCallback could be implemented in the user file
 850:Drivers/STM32U5xx_HAL_Driver/Src/stm32u5xx_hal_dcmi.c ****    */
 851:Drivers/STM32U5xx_HAL_Driver/Src/stm32u5xx_hal_dcmi.c **** }
 852:Drivers/STM32U5xx_HAL_Driver/Src/stm32u5xx_hal_dcmi.c **** 
 853:Drivers/STM32U5xx_HAL_Driver/Src/stm32u5xx_hal_dcmi.c **** /**
 854:Drivers/STM32U5xx_HAL_Driver/Src/stm32u5xx_hal_dcmi.c ****   * @brief  VSYNC Event callback.
 855:Drivers/STM32U5xx_HAL_Driver/Src/stm32u5xx_hal_dcmi.c ****   * @param  hdcmi pointer to a DCMI_HandleTypeDef structure that contains
 856:Drivers/STM32U5xx_HAL_Driver/Src/stm32u5xx_hal_dcmi.c ****   *                the configuration information for DCMI.
 857:Drivers/STM32U5xx_HAL_Driver/Src/stm32u5xx_hal_dcmi.c ****   * @retval None
 858:Drivers/STM32U5xx_HAL_Driver/Src/stm32u5xx_hal_dcmi.c ****   */
 859:Drivers/STM32U5xx_HAL_Driver/Src/stm32u5xx_hal_dcmi.c **** __weak void HAL_DCMI_VsyncEventCallback(DCMI_HandleTypeDef *hdcmi)
 860:Drivers/STM32U5xx_HAL_Driver/Src/stm32u5xx_hal_dcmi.c **** {
 861:Drivers/STM32U5xx_HAL_Driver/Src/stm32u5xx_hal_dcmi.c ****   /* Prevent unused argument(s) compilation warning */
 862:Drivers/STM32U5xx_HAL_Driver/Src/stm32u5xx_hal_dcmi.c ****   UNUSED(hdcmi);
 863:Drivers/STM32U5xx_HAL_Driver/Src/stm32u5xx_hal_dcmi.c **** 
 864:Drivers/STM32U5xx_HAL_Driver/Src/stm32u5xx_hal_dcmi.c ****   /* NOTE : This function Should not be modified, when the callback is needed,
 865:Drivers/STM32U5xx_HAL_Driver/Src/stm32u5xx_hal_dcmi.c ****             the HAL_DCMI_VsyncEventCallback could be implemented in the user file
 866:Drivers/STM32U5xx_HAL_Driver/Src/stm32u5xx_hal_dcmi.c ****    */
 867:Drivers/STM32U5xx_HAL_Driver/Src/stm32u5xx_hal_dcmi.c **** }
 868:Drivers/STM32U5xx_HAL_Driver/Src/stm32u5xx_hal_dcmi.c **** 
 869:Drivers/STM32U5xx_HAL_Driver/Src/stm32u5xx_hal_dcmi.c **** /**
 870:Drivers/STM32U5xx_HAL_Driver/Src/stm32u5xx_hal_dcmi.c ****   * @brief  Frame Event callback.
 871:Drivers/STM32U5xx_HAL_Driver/Src/stm32u5xx_hal_dcmi.c ****   * @param  hdcmi pointer to a DCMI_HandleTypeDef structure that contains
 872:Drivers/STM32U5xx_HAL_Driver/Src/stm32u5xx_hal_dcmi.c ****   *                the configuration information for DCMI.
 873:Drivers/STM32U5xx_HAL_Driver/Src/stm32u5xx_hal_dcmi.c ****   * @retval None
 874:Drivers/STM32U5xx_HAL_Driver/Src/stm32u5xx_hal_dcmi.c ****   */
 875:Drivers/STM32U5xx_HAL_Driver/Src/stm32u5xx_hal_dcmi.c **** __weak void HAL_DCMI_FrameEventCallback(DCMI_HandleTypeDef *hdcmi)
 876:Drivers/STM32U5xx_HAL_Driver/Src/stm32u5xx_hal_dcmi.c **** {
 877:Drivers/STM32U5xx_HAL_Driver/Src/stm32u5xx_hal_dcmi.c ****   /* Prevent unused argument(s) compilation warning */
 878:Drivers/STM32U5xx_HAL_Driver/Src/stm32u5xx_hal_dcmi.c ****   UNUSED(hdcmi);
 879:Drivers/STM32U5xx_HAL_Driver/Src/stm32u5xx_hal_dcmi.c **** 
 880:Drivers/STM32U5xx_HAL_Driver/Src/stm32u5xx_hal_dcmi.c ****   /* NOTE : This function Should not be modified, when the callback is needed,
 881:Drivers/STM32U5xx_HAL_Driver/Src/stm32u5xx_hal_dcmi.c ****             the HAL_DCMI_FrameEventCallback could be implemented in the user file
 882:Drivers/STM32U5xx_HAL_Driver/Src/stm32u5xx_hal_dcmi.c ****    */
 883:Drivers/STM32U5xx_HAL_Driver/Src/stm32u5xx_hal_dcmi.c **** }
 884:Drivers/STM32U5xx_HAL_Driver/Src/stm32u5xx_hal_dcmi.c **** 
ARM GAS  C:\usertemp\ccMMWJQW.s 			page 17


 885:Drivers/STM32U5xx_HAL_Driver/Src/stm32u5xx_hal_dcmi.c **** /**
 886:Drivers/STM32U5xx_HAL_Driver/Src/stm32u5xx_hal_dcmi.c ****   * @}
 887:Drivers/STM32U5xx_HAL_Driver/Src/stm32u5xx_hal_dcmi.c ****   */
 888:Drivers/STM32U5xx_HAL_Driver/Src/stm32u5xx_hal_dcmi.c **** 
 889:Drivers/STM32U5xx_HAL_Driver/Src/stm32u5xx_hal_dcmi.c **** /** @defgroup DCMI_Exported_Functions_Group3 Peripheral Control functions
 890:Drivers/STM32U5xx_HAL_Driver/Src/stm32u5xx_hal_dcmi.c ****   *  @brief    Peripheral Control functions
 891:Drivers/STM32U5xx_HAL_Driver/Src/stm32u5xx_hal_dcmi.c ****   *
 892:Drivers/STM32U5xx_HAL_Driver/Src/stm32u5xx_hal_dcmi.c **** @verbatim
 893:Drivers/STM32U5xx_HAL_Driver/Src/stm32u5xx_hal_dcmi.c ****  ===============================================================================
 894:Drivers/STM32U5xx_HAL_Driver/Src/stm32u5xx_hal_dcmi.c ****                     ##### Peripheral Control functions #####
 895:Drivers/STM32U5xx_HAL_Driver/Src/stm32u5xx_hal_dcmi.c ****  ===============================================================================
 896:Drivers/STM32U5xx_HAL_Driver/Src/stm32u5xx_hal_dcmi.c **** [..]  This section provides functions allowing to:
 897:Drivers/STM32U5xx_HAL_Driver/Src/stm32u5xx_hal_dcmi.c ****       (+) Configure the CROP feature.
 898:Drivers/STM32U5xx_HAL_Driver/Src/stm32u5xx_hal_dcmi.c ****       (+) Enable/Disable the CROP feature.
 899:Drivers/STM32U5xx_HAL_Driver/Src/stm32u5xx_hal_dcmi.c ****       (+) Set embedded synchronization delimiters unmasks.
 900:Drivers/STM32U5xx_HAL_Driver/Src/stm32u5xx_hal_dcmi.c **** 
 901:Drivers/STM32U5xx_HAL_Driver/Src/stm32u5xx_hal_dcmi.c **** @endverbatim
 902:Drivers/STM32U5xx_HAL_Driver/Src/stm32u5xx_hal_dcmi.c ****   * @{
 903:Drivers/STM32U5xx_HAL_Driver/Src/stm32u5xx_hal_dcmi.c ****   */
 904:Drivers/STM32U5xx_HAL_Driver/Src/stm32u5xx_hal_dcmi.c **** 
 905:Drivers/STM32U5xx_HAL_Driver/Src/stm32u5xx_hal_dcmi.c **** /**
 906:Drivers/STM32U5xx_HAL_Driver/Src/stm32u5xx_hal_dcmi.c ****   * @brief  Configure the DCMI CROP coordinate.
 907:Drivers/STM32U5xx_HAL_Driver/Src/stm32u5xx_hal_dcmi.c ****   * @param  hdcmi pointer to a DCMI_HandleTypeDef structure that contains
 908:Drivers/STM32U5xx_HAL_Driver/Src/stm32u5xx_hal_dcmi.c ****   *                the configuration information for DCMI.
 909:Drivers/STM32U5xx_HAL_Driver/Src/stm32u5xx_hal_dcmi.c ****   * @param  YSize DCMI Line number
 910:Drivers/STM32U5xx_HAL_Driver/Src/stm32u5xx_hal_dcmi.c ****   * @param  XSize DCMI Pixel per line
 911:Drivers/STM32U5xx_HAL_Driver/Src/stm32u5xx_hal_dcmi.c ****   * @param  X0    DCMI window X offset
 912:Drivers/STM32U5xx_HAL_Driver/Src/stm32u5xx_hal_dcmi.c ****   * @param  Y0    DCMI window Y offset
 913:Drivers/STM32U5xx_HAL_Driver/Src/stm32u5xx_hal_dcmi.c ****   * @retval HAL status
 914:Drivers/STM32U5xx_HAL_Driver/Src/stm32u5xx_hal_dcmi.c ****   */
 915:Drivers/STM32U5xx_HAL_Driver/Src/stm32u5xx_hal_dcmi.c **** HAL_StatusTypeDef HAL_DCMI_ConfigCrop(DCMI_HandleTypeDef *hdcmi, uint32_t X0, uint32_t Y0, uint32_t
 916:Drivers/STM32U5xx_HAL_Driver/Src/stm32u5xx_hal_dcmi.c ****                                       uint32_t YSize)
 917:Drivers/STM32U5xx_HAL_Driver/Src/stm32u5xx_hal_dcmi.c **** {
 918:Drivers/STM32U5xx_HAL_Driver/Src/stm32u5xx_hal_dcmi.c ****   /* Process Locked */
 919:Drivers/STM32U5xx_HAL_Driver/Src/stm32u5xx_hal_dcmi.c ****   __HAL_LOCK(hdcmi);
 920:Drivers/STM32U5xx_HAL_Driver/Src/stm32u5xx_hal_dcmi.c **** 
 921:Drivers/STM32U5xx_HAL_Driver/Src/stm32u5xx_hal_dcmi.c ****   /* Lock the DCMI peripheral state */
 922:Drivers/STM32U5xx_HAL_Driver/Src/stm32u5xx_hal_dcmi.c ****   hdcmi->State = HAL_DCMI_STATE_BUSY;
 923:Drivers/STM32U5xx_HAL_Driver/Src/stm32u5xx_hal_dcmi.c **** 
 924:Drivers/STM32U5xx_HAL_Driver/Src/stm32u5xx_hal_dcmi.c ****   /* Check the parameters */
 925:Drivers/STM32U5xx_HAL_Driver/Src/stm32u5xx_hal_dcmi.c ****   assert_param(IS_DCMI_WINDOW_COORDINATE(X0));
 926:Drivers/STM32U5xx_HAL_Driver/Src/stm32u5xx_hal_dcmi.c ****   assert_param(IS_DCMI_WINDOW_HEIGHT(Y0));
 927:Drivers/STM32U5xx_HAL_Driver/Src/stm32u5xx_hal_dcmi.c ****   assert_param(IS_DCMI_WINDOW_COORDINATE(XSize));
 928:Drivers/STM32U5xx_HAL_Driver/Src/stm32u5xx_hal_dcmi.c ****   assert_param(IS_DCMI_WINDOW_COORDINATE(YSize));
 929:Drivers/STM32U5xx_HAL_Driver/Src/stm32u5xx_hal_dcmi.c **** 
 930:Drivers/STM32U5xx_HAL_Driver/Src/stm32u5xx_hal_dcmi.c ****   /* Configure CROP */
 931:Drivers/STM32U5xx_HAL_Driver/Src/stm32u5xx_hal_dcmi.c ****   hdcmi->Instance->CWSIZER = (XSize | (YSize << DCMI_CWSIZE_VLINE_Pos));
 932:Drivers/STM32U5xx_HAL_Driver/Src/stm32u5xx_hal_dcmi.c ****   hdcmi->Instance->CWSTRTR = (X0 | (Y0 << DCMI_CWSTRT_VST_Pos));
 933:Drivers/STM32U5xx_HAL_Driver/Src/stm32u5xx_hal_dcmi.c **** 
 934:Drivers/STM32U5xx_HAL_Driver/Src/stm32u5xx_hal_dcmi.c ****   /* Initialize the DCMI state*/
 935:Drivers/STM32U5xx_HAL_Driver/Src/stm32u5xx_hal_dcmi.c ****   hdcmi->State  = HAL_DCMI_STATE_READY;
 936:Drivers/STM32U5xx_HAL_Driver/Src/stm32u5xx_hal_dcmi.c **** 
 937:Drivers/STM32U5xx_HAL_Driver/Src/stm32u5xx_hal_dcmi.c ****   /* Process Unlocked */
 938:Drivers/STM32U5xx_HAL_Driver/Src/stm32u5xx_hal_dcmi.c ****   __HAL_UNLOCK(hdcmi);
 939:Drivers/STM32U5xx_HAL_Driver/Src/stm32u5xx_hal_dcmi.c **** 
 940:Drivers/STM32U5xx_HAL_Driver/Src/stm32u5xx_hal_dcmi.c ****   return HAL_OK;
 941:Drivers/STM32U5xx_HAL_Driver/Src/stm32u5xx_hal_dcmi.c **** }
ARM GAS  C:\usertemp\ccMMWJQW.s 			page 18


 942:Drivers/STM32U5xx_HAL_Driver/Src/stm32u5xx_hal_dcmi.c **** 
 943:Drivers/STM32U5xx_HAL_Driver/Src/stm32u5xx_hal_dcmi.c **** /**
 944:Drivers/STM32U5xx_HAL_Driver/Src/stm32u5xx_hal_dcmi.c ****   * @brief  Disable the Crop feature.
 945:Drivers/STM32U5xx_HAL_Driver/Src/stm32u5xx_hal_dcmi.c ****   * @param  hdcmi pointer to a DCMI_HandleTypeDef structure that contains
 946:Drivers/STM32U5xx_HAL_Driver/Src/stm32u5xx_hal_dcmi.c ****   *                the configuration information for DCMI.
 947:Drivers/STM32U5xx_HAL_Driver/Src/stm32u5xx_hal_dcmi.c ****   * @retval HAL status
 948:Drivers/STM32U5xx_HAL_Driver/Src/stm32u5xx_hal_dcmi.c ****   */
 949:Drivers/STM32U5xx_HAL_Driver/Src/stm32u5xx_hal_dcmi.c **** HAL_StatusTypeDef HAL_DCMI_DisableCrop(DCMI_HandleTypeDef *hdcmi)
 950:Drivers/STM32U5xx_HAL_Driver/Src/stm32u5xx_hal_dcmi.c **** {
 951:Drivers/STM32U5xx_HAL_Driver/Src/stm32u5xx_hal_dcmi.c ****   /* Process Locked */
 952:Drivers/STM32U5xx_HAL_Driver/Src/stm32u5xx_hal_dcmi.c ****   __HAL_LOCK(hdcmi);
 953:Drivers/STM32U5xx_HAL_Driver/Src/stm32u5xx_hal_dcmi.c **** 
 954:Drivers/STM32U5xx_HAL_Driver/Src/stm32u5xx_hal_dcmi.c ****   /* Lock the DCMI peripheral state */
 955:Drivers/STM32U5xx_HAL_Driver/Src/stm32u5xx_hal_dcmi.c ****   hdcmi->State = HAL_DCMI_STATE_BUSY;
 956:Drivers/STM32U5xx_HAL_Driver/Src/stm32u5xx_hal_dcmi.c **** 
 957:Drivers/STM32U5xx_HAL_Driver/Src/stm32u5xx_hal_dcmi.c ****   /* Disable DCMI Crop feature */
 958:Drivers/STM32U5xx_HAL_Driver/Src/stm32u5xx_hal_dcmi.c ****   hdcmi->Instance->CR &= ~(uint32_t)DCMI_CR_CROP;
 959:Drivers/STM32U5xx_HAL_Driver/Src/stm32u5xx_hal_dcmi.c **** 
 960:Drivers/STM32U5xx_HAL_Driver/Src/stm32u5xx_hal_dcmi.c ****   /* Change the DCMI state*/
 961:Drivers/STM32U5xx_HAL_Driver/Src/stm32u5xx_hal_dcmi.c ****   hdcmi->State = HAL_DCMI_STATE_READY;
 962:Drivers/STM32U5xx_HAL_Driver/Src/stm32u5xx_hal_dcmi.c **** 
 963:Drivers/STM32U5xx_HAL_Driver/Src/stm32u5xx_hal_dcmi.c ****   /* Process Unlocked */
 964:Drivers/STM32U5xx_HAL_Driver/Src/stm32u5xx_hal_dcmi.c ****   __HAL_UNLOCK(hdcmi);
 965:Drivers/STM32U5xx_HAL_Driver/Src/stm32u5xx_hal_dcmi.c **** 
 966:Drivers/STM32U5xx_HAL_Driver/Src/stm32u5xx_hal_dcmi.c ****   return HAL_OK;
 967:Drivers/STM32U5xx_HAL_Driver/Src/stm32u5xx_hal_dcmi.c **** }
 968:Drivers/STM32U5xx_HAL_Driver/Src/stm32u5xx_hal_dcmi.c **** 
 969:Drivers/STM32U5xx_HAL_Driver/Src/stm32u5xx_hal_dcmi.c **** /**
 970:Drivers/STM32U5xx_HAL_Driver/Src/stm32u5xx_hal_dcmi.c ****   * @brief  Enable the Crop feature.
 971:Drivers/STM32U5xx_HAL_Driver/Src/stm32u5xx_hal_dcmi.c ****   * @param  hdcmi pointer to a DCMI_HandleTypeDef structure that contains
 972:Drivers/STM32U5xx_HAL_Driver/Src/stm32u5xx_hal_dcmi.c ****   *                the configuration information for DCMI.
 973:Drivers/STM32U5xx_HAL_Driver/Src/stm32u5xx_hal_dcmi.c ****   * @retval HAL status
 974:Drivers/STM32U5xx_HAL_Driver/Src/stm32u5xx_hal_dcmi.c ****   */
 975:Drivers/STM32U5xx_HAL_Driver/Src/stm32u5xx_hal_dcmi.c **** HAL_StatusTypeDef HAL_DCMI_EnableCrop(DCMI_HandleTypeDef *hdcmi)
 976:Drivers/STM32U5xx_HAL_Driver/Src/stm32u5xx_hal_dcmi.c **** {
 977:Drivers/STM32U5xx_HAL_Driver/Src/stm32u5xx_hal_dcmi.c ****   /* Process Locked */
 978:Drivers/STM32U5xx_HAL_Driver/Src/stm32u5xx_hal_dcmi.c ****   __HAL_LOCK(hdcmi);
 979:Drivers/STM32U5xx_HAL_Driver/Src/stm32u5xx_hal_dcmi.c **** 
 980:Drivers/STM32U5xx_HAL_Driver/Src/stm32u5xx_hal_dcmi.c ****   /* Lock the DCMI peripheral state */
 981:Drivers/STM32U5xx_HAL_Driver/Src/stm32u5xx_hal_dcmi.c ****   hdcmi->State = HAL_DCMI_STATE_BUSY;
 982:Drivers/STM32U5xx_HAL_Driver/Src/stm32u5xx_hal_dcmi.c **** 
 983:Drivers/STM32U5xx_HAL_Driver/Src/stm32u5xx_hal_dcmi.c ****   /* Enable DCMI Crop feature */
 984:Drivers/STM32U5xx_HAL_Driver/Src/stm32u5xx_hal_dcmi.c ****   hdcmi->Instance->CR |= (uint32_t)DCMI_CR_CROP;
 985:Drivers/STM32U5xx_HAL_Driver/Src/stm32u5xx_hal_dcmi.c **** 
 986:Drivers/STM32U5xx_HAL_Driver/Src/stm32u5xx_hal_dcmi.c ****   /* Change the DCMI state*/
 987:Drivers/STM32U5xx_HAL_Driver/Src/stm32u5xx_hal_dcmi.c ****   hdcmi->State = HAL_DCMI_STATE_READY;
 988:Drivers/STM32U5xx_HAL_Driver/Src/stm32u5xx_hal_dcmi.c **** 
 989:Drivers/STM32U5xx_HAL_Driver/Src/stm32u5xx_hal_dcmi.c ****   /* Process Unlocked */
 990:Drivers/STM32U5xx_HAL_Driver/Src/stm32u5xx_hal_dcmi.c ****   __HAL_UNLOCK(hdcmi);
 991:Drivers/STM32U5xx_HAL_Driver/Src/stm32u5xx_hal_dcmi.c **** 
 992:Drivers/STM32U5xx_HAL_Driver/Src/stm32u5xx_hal_dcmi.c ****   return HAL_OK;
 993:Drivers/STM32U5xx_HAL_Driver/Src/stm32u5xx_hal_dcmi.c **** }
 994:Drivers/STM32U5xx_HAL_Driver/Src/stm32u5xx_hal_dcmi.c **** 
 995:Drivers/STM32U5xx_HAL_Driver/Src/stm32u5xx_hal_dcmi.c **** /**
 996:Drivers/STM32U5xx_HAL_Driver/Src/stm32u5xx_hal_dcmi.c ****   * @brief  Set embedded synchronization delimiters unmasks.
 997:Drivers/STM32U5xx_HAL_Driver/Src/stm32u5xx_hal_dcmi.c ****   * @param  hdcmi pointer to a DCMI_HandleTypeDef structure that contains
 998:Drivers/STM32U5xx_HAL_Driver/Src/stm32u5xx_hal_dcmi.c ****   *               the configuration information for DCMI.
ARM GAS  C:\usertemp\ccMMWJQW.s 			page 19


 999:Drivers/STM32U5xx_HAL_Driver/Src/stm32u5xx_hal_dcmi.c ****   * @param  SyncUnmask pointer to a DCMI_SyncUnmaskTypeDef structure that contains
1000:Drivers/STM32U5xx_HAL_Driver/Src/stm32u5xx_hal_dcmi.c ****   *                    the embedded synchronization delimiters unmasks.
1001:Drivers/STM32U5xx_HAL_Driver/Src/stm32u5xx_hal_dcmi.c ****   * @retval HAL status
1002:Drivers/STM32U5xx_HAL_Driver/Src/stm32u5xx_hal_dcmi.c ****   */
1003:Drivers/STM32U5xx_HAL_Driver/Src/stm32u5xx_hal_dcmi.c **** HAL_StatusTypeDef  HAL_DCMI_ConfigSyncUnmask(DCMI_HandleTypeDef *hdcmi, const DCMI_SyncUnmaskTypeDe
1004:Drivers/STM32U5xx_HAL_Driver/Src/stm32u5xx_hal_dcmi.c **** {
1005:Drivers/STM32U5xx_HAL_Driver/Src/stm32u5xx_hal_dcmi.c ****   /* Process Locked */
1006:Drivers/STM32U5xx_HAL_Driver/Src/stm32u5xx_hal_dcmi.c ****   __HAL_LOCK(hdcmi);
1007:Drivers/STM32U5xx_HAL_Driver/Src/stm32u5xx_hal_dcmi.c **** 
1008:Drivers/STM32U5xx_HAL_Driver/Src/stm32u5xx_hal_dcmi.c ****   /* Lock the DCMI peripheral state */
1009:Drivers/STM32U5xx_HAL_Driver/Src/stm32u5xx_hal_dcmi.c ****   hdcmi->State = HAL_DCMI_STATE_BUSY;
1010:Drivers/STM32U5xx_HAL_Driver/Src/stm32u5xx_hal_dcmi.c **** 
1011:Drivers/STM32U5xx_HAL_Driver/Src/stm32u5xx_hal_dcmi.c ****   /* Write DCMI embedded synchronization unmask register */
1012:Drivers/STM32U5xx_HAL_Driver/Src/stm32u5xx_hal_dcmi.c ****   hdcmi->Instance->ESUR = (((uint32_t)SyncUnmask->FrameStartUnmask) | \
1013:Drivers/STM32U5xx_HAL_Driver/Src/stm32u5xx_hal_dcmi.c ****                            ((uint32_t)SyncUnmask->LineStartUnmask << DCMI_ESUR_LSU_Pos) | \
1014:Drivers/STM32U5xx_HAL_Driver/Src/stm32u5xx_hal_dcmi.c ****                            ((uint32_t)SyncUnmask->LineEndUnmask << DCMI_ESUR_LEU_Pos) | \
1015:Drivers/STM32U5xx_HAL_Driver/Src/stm32u5xx_hal_dcmi.c ****                            ((uint32_t)SyncUnmask->FrameEndUnmask << DCMI_ESUR_FEU_Pos));
1016:Drivers/STM32U5xx_HAL_Driver/Src/stm32u5xx_hal_dcmi.c **** 
1017:Drivers/STM32U5xx_HAL_Driver/Src/stm32u5xx_hal_dcmi.c ****   /* Change the DCMI state*/
1018:Drivers/STM32U5xx_HAL_Driver/Src/stm32u5xx_hal_dcmi.c ****   hdcmi->State = HAL_DCMI_STATE_READY;
1019:Drivers/STM32U5xx_HAL_Driver/Src/stm32u5xx_hal_dcmi.c **** 
1020:Drivers/STM32U5xx_HAL_Driver/Src/stm32u5xx_hal_dcmi.c ****   /* Process Unlocked */
1021:Drivers/STM32U5xx_HAL_Driver/Src/stm32u5xx_hal_dcmi.c ****   __HAL_UNLOCK(hdcmi);
1022:Drivers/STM32U5xx_HAL_Driver/Src/stm32u5xx_hal_dcmi.c **** 
1023:Drivers/STM32U5xx_HAL_Driver/Src/stm32u5xx_hal_dcmi.c ****   return HAL_OK;
1024:Drivers/STM32U5xx_HAL_Driver/Src/stm32u5xx_hal_dcmi.c **** }
1025:Drivers/STM32U5xx_HAL_Driver/Src/stm32u5xx_hal_dcmi.c **** 
1026:Drivers/STM32U5xx_HAL_Driver/Src/stm32u5xx_hal_dcmi.c **** /**
1027:Drivers/STM32U5xx_HAL_Driver/Src/stm32u5xx_hal_dcmi.c ****   * @}
1028:Drivers/STM32U5xx_HAL_Driver/Src/stm32u5xx_hal_dcmi.c ****   */
1029:Drivers/STM32U5xx_HAL_Driver/Src/stm32u5xx_hal_dcmi.c **** 
1030:Drivers/STM32U5xx_HAL_Driver/Src/stm32u5xx_hal_dcmi.c **** /** @defgroup DCMI_Exported_Functions_Group4 Peripheral State functions
1031:Drivers/STM32U5xx_HAL_Driver/Src/stm32u5xx_hal_dcmi.c ****   *  @brief    Peripheral State functions
1032:Drivers/STM32U5xx_HAL_Driver/Src/stm32u5xx_hal_dcmi.c ****   *
1033:Drivers/STM32U5xx_HAL_Driver/Src/stm32u5xx_hal_dcmi.c **** @verbatim
1034:Drivers/STM32U5xx_HAL_Driver/Src/stm32u5xx_hal_dcmi.c ****  ===============================================================================
1035:Drivers/STM32U5xx_HAL_Driver/Src/stm32u5xx_hal_dcmi.c ****                ##### Peripheral State and Errors functions #####
1036:Drivers/STM32U5xx_HAL_Driver/Src/stm32u5xx_hal_dcmi.c ****  ===============================================================================
1037:Drivers/STM32U5xx_HAL_Driver/Src/stm32u5xx_hal_dcmi.c ****     [..]
1038:Drivers/STM32U5xx_HAL_Driver/Src/stm32u5xx_hal_dcmi.c ****     This subsection provides functions allowing to
1039:Drivers/STM32U5xx_HAL_Driver/Src/stm32u5xx_hal_dcmi.c ****       (+) Check the DCMI state.
1040:Drivers/STM32U5xx_HAL_Driver/Src/stm32u5xx_hal_dcmi.c ****       (+) Get the specific DCMI error flag.
1041:Drivers/STM32U5xx_HAL_Driver/Src/stm32u5xx_hal_dcmi.c **** 
1042:Drivers/STM32U5xx_HAL_Driver/Src/stm32u5xx_hal_dcmi.c **** @endverbatim
1043:Drivers/STM32U5xx_HAL_Driver/Src/stm32u5xx_hal_dcmi.c ****   * @{
1044:Drivers/STM32U5xx_HAL_Driver/Src/stm32u5xx_hal_dcmi.c ****   */
1045:Drivers/STM32U5xx_HAL_Driver/Src/stm32u5xx_hal_dcmi.c **** 
1046:Drivers/STM32U5xx_HAL_Driver/Src/stm32u5xx_hal_dcmi.c **** /**
1047:Drivers/STM32U5xx_HAL_Driver/Src/stm32u5xx_hal_dcmi.c ****   * @brief  Return the DCMI state
1048:Drivers/STM32U5xx_HAL_Driver/Src/stm32u5xx_hal_dcmi.c ****   * @param  hdcmi pointer to a DCMI_HandleTypeDef structure that contains
1049:Drivers/STM32U5xx_HAL_Driver/Src/stm32u5xx_hal_dcmi.c ****   *                the configuration information for DCMI.
1050:Drivers/STM32U5xx_HAL_Driver/Src/stm32u5xx_hal_dcmi.c ****   * @retval HAL state
1051:Drivers/STM32U5xx_HAL_Driver/Src/stm32u5xx_hal_dcmi.c ****   */
1052:Drivers/STM32U5xx_HAL_Driver/Src/stm32u5xx_hal_dcmi.c **** HAL_DCMI_StateTypeDef HAL_DCMI_GetState(const DCMI_HandleTypeDef *hdcmi)
1053:Drivers/STM32U5xx_HAL_Driver/Src/stm32u5xx_hal_dcmi.c **** {
1054:Drivers/STM32U5xx_HAL_Driver/Src/stm32u5xx_hal_dcmi.c ****   return hdcmi->State;
1055:Drivers/STM32U5xx_HAL_Driver/Src/stm32u5xx_hal_dcmi.c **** }
ARM GAS  C:\usertemp\ccMMWJQW.s 			page 20


1056:Drivers/STM32U5xx_HAL_Driver/Src/stm32u5xx_hal_dcmi.c **** 
1057:Drivers/STM32U5xx_HAL_Driver/Src/stm32u5xx_hal_dcmi.c **** /**
1058:Drivers/STM32U5xx_HAL_Driver/Src/stm32u5xx_hal_dcmi.c ****   * @brief  Return the DCMI error code
1059:Drivers/STM32U5xx_HAL_Driver/Src/stm32u5xx_hal_dcmi.c ****   * @param  hdcmi  pointer to a DCMI_HandleTypeDef structure that contains
1060:Drivers/STM32U5xx_HAL_Driver/Src/stm32u5xx_hal_dcmi.c ****   *               the configuration information for DCMI.
1061:Drivers/STM32U5xx_HAL_Driver/Src/stm32u5xx_hal_dcmi.c ****   * @retval DCMI Error Code
1062:Drivers/STM32U5xx_HAL_Driver/Src/stm32u5xx_hal_dcmi.c ****   */
1063:Drivers/STM32U5xx_HAL_Driver/Src/stm32u5xx_hal_dcmi.c **** uint32_t HAL_DCMI_GetError(const DCMI_HandleTypeDef *hdcmi)
1064:Drivers/STM32U5xx_HAL_Driver/Src/stm32u5xx_hal_dcmi.c **** {
1065:Drivers/STM32U5xx_HAL_Driver/Src/stm32u5xx_hal_dcmi.c ****   return hdcmi->ErrorCode;
1066:Drivers/STM32U5xx_HAL_Driver/Src/stm32u5xx_hal_dcmi.c **** }
1067:Drivers/STM32U5xx_HAL_Driver/Src/stm32u5xx_hal_dcmi.c **** 
1068:Drivers/STM32U5xx_HAL_Driver/Src/stm32u5xx_hal_dcmi.c **** #if (USE_HAL_DCMI_REGISTER_CALLBACKS == 1)
1069:Drivers/STM32U5xx_HAL_Driver/Src/stm32u5xx_hal_dcmi.c **** /**
1070:Drivers/STM32U5xx_HAL_Driver/Src/stm32u5xx_hal_dcmi.c ****   * @brief  Register a User DCMI Callback
1071:Drivers/STM32U5xx_HAL_Driver/Src/stm32u5xx_hal_dcmi.c ****   *         To be used instead of the weak predefined callback
1072:Drivers/STM32U5xx_HAL_Driver/Src/stm32u5xx_hal_dcmi.c ****   * @param  hdcmi DCMI handle
1073:Drivers/STM32U5xx_HAL_Driver/Src/stm32u5xx_hal_dcmi.c ****   * @param  CallbackID ID of the callback to be registered
1074:Drivers/STM32U5xx_HAL_Driver/Src/stm32u5xx_hal_dcmi.c ****   *         This parameter can be one of the following values:
1075:Drivers/STM32U5xx_HAL_Driver/Src/stm32u5xx_hal_dcmi.c ****   *          @arg @ref HAL_DCMI_LINE_EVENT_CB_ID Line Event callback ID
1076:Drivers/STM32U5xx_HAL_Driver/Src/stm32u5xx_hal_dcmi.c ****   *          @arg @ref HAL_DCMI_FRAME_EVENT_CB_ID Frame Event callback ID
1077:Drivers/STM32U5xx_HAL_Driver/Src/stm32u5xx_hal_dcmi.c ****   *          @arg @ref HAL_DCMI_VSYNC_EVENT_CB_ID Vsync Event callback ID
1078:Drivers/STM32U5xx_HAL_Driver/Src/stm32u5xx_hal_dcmi.c ****   *          @arg @ref HAL_DCMI_ERROR_CB_ID Error callback ID
1079:Drivers/STM32U5xx_HAL_Driver/Src/stm32u5xx_hal_dcmi.c ****   *          @arg @ref HAL_DCMI_MSPINIT_CB_ID MspInit callback ID
1080:Drivers/STM32U5xx_HAL_Driver/Src/stm32u5xx_hal_dcmi.c ****   *          @arg @ref HAL_DCMI_MSPDEINIT_CB_ID MspDeInit callback ID
1081:Drivers/STM32U5xx_HAL_Driver/Src/stm32u5xx_hal_dcmi.c ****   * @param  pCallback pointer to the Callback function
1082:Drivers/STM32U5xx_HAL_Driver/Src/stm32u5xx_hal_dcmi.c ****   * @retval HAL status
1083:Drivers/STM32U5xx_HAL_Driver/Src/stm32u5xx_hal_dcmi.c ****   */
1084:Drivers/STM32U5xx_HAL_Driver/Src/stm32u5xx_hal_dcmi.c **** HAL_StatusTypeDef HAL_DCMI_RegisterCallback(DCMI_HandleTypeDef *hdcmi, HAL_DCMI_CallbackIDTypeDef C
1085:Drivers/STM32U5xx_HAL_Driver/Src/stm32u5xx_hal_dcmi.c ****                                             pDCMI_CallbackTypeDef pCallback)
1086:Drivers/STM32U5xx_HAL_Driver/Src/stm32u5xx_hal_dcmi.c **** {
1087:Drivers/STM32U5xx_HAL_Driver/Src/stm32u5xx_hal_dcmi.c ****   HAL_StatusTypeDef status = HAL_OK;
1088:Drivers/STM32U5xx_HAL_Driver/Src/stm32u5xx_hal_dcmi.c **** 
1089:Drivers/STM32U5xx_HAL_Driver/Src/stm32u5xx_hal_dcmi.c ****   if (pCallback == NULL)
1090:Drivers/STM32U5xx_HAL_Driver/Src/stm32u5xx_hal_dcmi.c ****   {
1091:Drivers/STM32U5xx_HAL_Driver/Src/stm32u5xx_hal_dcmi.c ****     /* update the error code */
1092:Drivers/STM32U5xx_HAL_Driver/Src/stm32u5xx_hal_dcmi.c ****     hdcmi->ErrorCode |= HAL_DCMI_ERROR_INVALID_CALLBACK;
1093:Drivers/STM32U5xx_HAL_Driver/Src/stm32u5xx_hal_dcmi.c ****     /* update return status */
1094:Drivers/STM32U5xx_HAL_Driver/Src/stm32u5xx_hal_dcmi.c ****     status = HAL_ERROR;
1095:Drivers/STM32U5xx_HAL_Driver/Src/stm32u5xx_hal_dcmi.c ****   }
1096:Drivers/STM32U5xx_HAL_Driver/Src/stm32u5xx_hal_dcmi.c ****   else
1097:Drivers/STM32U5xx_HAL_Driver/Src/stm32u5xx_hal_dcmi.c ****   {
1098:Drivers/STM32U5xx_HAL_Driver/Src/stm32u5xx_hal_dcmi.c ****     if (hdcmi->State == HAL_DCMI_STATE_READY)
1099:Drivers/STM32U5xx_HAL_Driver/Src/stm32u5xx_hal_dcmi.c ****     {
1100:Drivers/STM32U5xx_HAL_Driver/Src/stm32u5xx_hal_dcmi.c ****       switch (CallbackID)
1101:Drivers/STM32U5xx_HAL_Driver/Src/stm32u5xx_hal_dcmi.c ****       {
1102:Drivers/STM32U5xx_HAL_Driver/Src/stm32u5xx_hal_dcmi.c ****         case HAL_DCMI_FRAME_EVENT_CB_ID :
1103:Drivers/STM32U5xx_HAL_Driver/Src/stm32u5xx_hal_dcmi.c ****           hdcmi->FrameEventCallback = pCallback;
1104:Drivers/STM32U5xx_HAL_Driver/Src/stm32u5xx_hal_dcmi.c ****           break;
1105:Drivers/STM32U5xx_HAL_Driver/Src/stm32u5xx_hal_dcmi.c **** 
1106:Drivers/STM32U5xx_HAL_Driver/Src/stm32u5xx_hal_dcmi.c ****         case HAL_DCMI_VSYNC_EVENT_CB_ID :
1107:Drivers/STM32U5xx_HAL_Driver/Src/stm32u5xx_hal_dcmi.c ****           hdcmi->VsyncEventCallback = pCallback;
1108:Drivers/STM32U5xx_HAL_Driver/Src/stm32u5xx_hal_dcmi.c ****           break;
1109:Drivers/STM32U5xx_HAL_Driver/Src/stm32u5xx_hal_dcmi.c **** 
1110:Drivers/STM32U5xx_HAL_Driver/Src/stm32u5xx_hal_dcmi.c ****         case HAL_DCMI_LINE_EVENT_CB_ID :
1111:Drivers/STM32U5xx_HAL_Driver/Src/stm32u5xx_hal_dcmi.c ****           hdcmi->LineEventCallback = pCallback;
1112:Drivers/STM32U5xx_HAL_Driver/Src/stm32u5xx_hal_dcmi.c ****           break;
ARM GAS  C:\usertemp\ccMMWJQW.s 			page 21


1113:Drivers/STM32U5xx_HAL_Driver/Src/stm32u5xx_hal_dcmi.c **** 
1114:Drivers/STM32U5xx_HAL_Driver/Src/stm32u5xx_hal_dcmi.c ****         case HAL_DCMI_ERROR_CB_ID :
1115:Drivers/STM32U5xx_HAL_Driver/Src/stm32u5xx_hal_dcmi.c ****           hdcmi->ErrorCallback = pCallback;
1116:Drivers/STM32U5xx_HAL_Driver/Src/stm32u5xx_hal_dcmi.c ****           break;
1117:Drivers/STM32U5xx_HAL_Driver/Src/stm32u5xx_hal_dcmi.c **** 
1118:Drivers/STM32U5xx_HAL_Driver/Src/stm32u5xx_hal_dcmi.c ****         case HAL_DCMI_MSPINIT_CB_ID :
1119:Drivers/STM32U5xx_HAL_Driver/Src/stm32u5xx_hal_dcmi.c ****           hdcmi->MspInitCallback = pCallback;
1120:Drivers/STM32U5xx_HAL_Driver/Src/stm32u5xx_hal_dcmi.c ****           break;
1121:Drivers/STM32U5xx_HAL_Driver/Src/stm32u5xx_hal_dcmi.c **** 
1122:Drivers/STM32U5xx_HAL_Driver/Src/stm32u5xx_hal_dcmi.c ****         case HAL_DCMI_MSPDEINIT_CB_ID :
1123:Drivers/STM32U5xx_HAL_Driver/Src/stm32u5xx_hal_dcmi.c ****           hdcmi->MspDeInitCallback = pCallback;
1124:Drivers/STM32U5xx_HAL_Driver/Src/stm32u5xx_hal_dcmi.c ****           break;
1125:Drivers/STM32U5xx_HAL_Driver/Src/stm32u5xx_hal_dcmi.c **** 
1126:Drivers/STM32U5xx_HAL_Driver/Src/stm32u5xx_hal_dcmi.c ****         default :
1127:Drivers/STM32U5xx_HAL_Driver/Src/stm32u5xx_hal_dcmi.c ****           /* Return error status */
1128:Drivers/STM32U5xx_HAL_Driver/Src/stm32u5xx_hal_dcmi.c ****           status =  HAL_ERROR;
1129:Drivers/STM32U5xx_HAL_Driver/Src/stm32u5xx_hal_dcmi.c ****           break;
1130:Drivers/STM32U5xx_HAL_Driver/Src/stm32u5xx_hal_dcmi.c ****       }
1131:Drivers/STM32U5xx_HAL_Driver/Src/stm32u5xx_hal_dcmi.c ****     }
1132:Drivers/STM32U5xx_HAL_Driver/Src/stm32u5xx_hal_dcmi.c ****     else if (hdcmi->State == HAL_DCMI_STATE_RESET)
1133:Drivers/STM32U5xx_HAL_Driver/Src/stm32u5xx_hal_dcmi.c ****     {
1134:Drivers/STM32U5xx_HAL_Driver/Src/stm32u5xx_hal_dcmi.c ****       switch (CallbackID)
1135:Drivers/STM32U5xx_HAL_Driver/Src/stm32u5xx_hal_dcmi.c ****       {
1136:Drivers/STM32U5xx_HAL_Driver/Src/stm32u5xx_hal_dcmi.c ****         case HAL_DCMI_MSPINIT_CB_ID :
1137:Drivers/STM32U5xx_HAL_Driver/Src/stm32u5xx_hal_dcmi.c ****           hdcmi->MspInitCallback = pCallback;
1138:Drivers/STM32U5xx_HAL_Driver/Src/stm32u5xx_hal_dcmi.c ****           break;
1139:Drivers/STM32U5xx_HAL_Driver/Src/stm32u5xx_hal_dcmi.c **** 
1140:Drivers/STM32U5xx_HAL_Driver/Src/stm32u5xx_hal_dcmi.c ****         case HAL_DCMI_MSPDEINIT_CB_ID :
1141:Drivers/STM32U5xx_HAL_Driver/Src/stm32u5xx_hal_dcmi.c ****           hdcmi->MspDeInitCallback = pCallback;
1142:Drivers/STM32U5xx_HAL_Driver/Src/stm32u5xx_hal_dcmi.c ****           break;
1143:Drivers/STM32U5xx_HAL_Driver/Src/stm32u5xx_hal_dcmi.c **** 
1144:Drivers/STM32U5xx_HAL_Driver/Src/stm32u5xx_hal_dcmi.c ****         default :
1145:Drivers/STM32U5xx_HAL_Driver/Src/stm32u5xx_hal_dcmi.c ****           /* update the error code */
1146:Drivers/STM32U5xx_HAL_Driver/Src/stm32u5xx_hal_dcmi.c ****           hdcmi->ErrorCode |= HAL_DCMI_ERROR_INVALID_CALLBACK;
1147:Drivers/STM32U5xx_HAL_Driver/Src/stm32u5xx_hal_dcmi.c ****           /* update return status */
1148:Drivers/STM32U5xx_HAL_Driver/Src/stm32u5xx_hal_dcmi.c ****           status = HAL_ERROR;
1149:Drivers/STM32U5xx_HAL_Driver/Src/stm32u5xx_hal_dcmi.c ****           break;
1150:Drivers/STM32U5xx_HAL_Driver/Src/stm32u5xx_hal_dcmi.c ****       }
1151:Drivers/STM32U5xx_HAL_Driver/Src/stm32u5xx_hal_dcmi.c ****     }
1152:Drivers/STM32U5xx_HAL_Driver/Src/stm32u5xx_hal_dcmi.c ****     else
1153:Drivers/STM32U5xx_HAL_Driver/Src/stm32u5xx_hal_dcmi.c ****     {
1154:Drivers/STM32U5xx_HAL_Driver/Src/stm32u5xx_hal_dcmi.c ****       /* update the error code */
1155:Drivers/STM32U5xx_HAL_Driver/Src/stm32u5xx_hal_dcmi.c ****       hdcmi->ErrorCode |= HAL_DCMI_ERROR_INVALID_CALLBACK;
1156:Drivers/STM32U5xx_HAL_Driver/Src/stm32u5xx_hal_dcmi.c ****       /* update return status */
1157:Drivers/STM32U5xx_HAL_Driver/Src/stm32u5xx_hal_dcmi.c ****       status = HAL_ERROR;
1158:Drivers/STM32U5xx_HAL_Driver/Src/stm32u5xx_hal_dcmi.c ****     }
1159:Drivers/STM32U5xx_HAL_Driver/Src/stm32u5xx_hal_dcmi.c ****   }
1160:Drivers/STM32U5xx_HAL_Driver/Src/stm32u5xx_hal_dcmi.c **** 
1161:Drivers/STM32U5xx_HAL_Driver/Src/stm32u5xx_hal_dcmi.c ****   return status;
1162:Drivers/STM32U5xx_HAL_Driver/Src/stm32u5xx_hal_dcmi.c **** }
1163:Drivers/STM32U5xx_HAL_Driver/Src/stm32u5xx_hal_dcmi.c **** 
1164:Drivers/STM32U5xx_HAL_Driver/Src/stm32u5xx_hal_dcmi.c **** /**
1165:Drivers/STM32U5xx_HAL_Driver/Src/stm32u5xx_hal_dcmi.c ****   * @brief  Unregister a DCMI Callback
1166:Drivers/STM32U5xx_HAL_Driver/Src/stm32u5xx_hal_dcmi.c ****   *         DCMI callback is redirected to the weak predefined callback
1167:Drivers/STM32U5xx_HAL_Driver/Src/stm32u5xx_hal_dcmi.c ****   * @param  hdcmi DCMI handle
1168:Drivers/STM32U5xx_HAL_Driver/Src/stm32u5xx_hal_dcmi.c ****   * @param  CallbackID ID of the callback to be registered
1169:Drivers/STM32U5xx_HAL_Driver/Src/stm32u5xx_hal_dcmi.c ****   *         This parameter can be one of the following values:
ARM GAS  C:\usertemp\ccMMWJQW.s 			page 22


1170:Drivers/STM32U5xx_HAL_Driver/Src/stm32u5xx_hal_dcmi.c ****   *          @arg @ref HAL_DCMI_LINE_EVENT_CB_ID Line Event callback ID
1171:Drivers/STM32U5xx_HAL_Driver/Src/stm32u5xx_hal_dcmi.c ****   *          @arg @ref HAL_DCMI_FRAME_EVENT_CB_ID Frame Event callback ID
1172:Drivers/STM32U5xx_HAL_Driver/Src/stm32u5xx_hal_dcmi.c ****   *          @arg @ref HAL_DCMI_VSYNC_EVENT_CB_ID Vsync Event callback ID
1173:Drivers/STM32U5xx_HAL_Driver/Src/stm32u5xx_hal_dcmi.c ****   *          @arg @ref HAL_DCMI_ERROR_CB_ID Error callback ID
1174:Drivers/STM32U5xx_HAL_Driver/Src/stm32u5xx_hal_dcmi.c ****   *          @arg @ref HAL_DCMI_MSPINIT_CB_ID MspInit callback ID
1175:Drivers/STM32U5xx_HAL_Driver/Src/stm32u5xx_hal_dcmi.c ****   *          @arg @ref HAL_DCMI_MSPDEINIT_CB_ID MspDeInit callback ID
1176:Drivers/STM32U5xx_HAL_Driver/Src/stm32u5xx_hal_dcmi.c ****   * @retval HAL status
1177:Drivers/STM32U5xx_HAL_Driver/Src/stm32u5xx_hal_dcmi.c ****   */
1178:Drivers/STM32U5xx_HAL_Driver/Src/stm32u5xx_hal_dcmi.c **** HAL_StatusTypeDef HAL_DCMI_UnRegisterCallback(DCMI_HandleTypeDef *hdcmi, HAL_DCMI_CallbackIDTypeDef
1179:Drivers/STM32U5xx_HAL_Driver/Src/stm32u5xx_hal_dcmi.c **** {
1180:Drivers/STM32U5xx_HAL_Driver/Src/stm32u5xx_hal_dcmi.c ****   HAL_StatusTypeDef status = HAL_OK;
1181:Drivers/STM32U5xx_HAL_Driver/Src/stm32u5xx_hal_dcmi.c **** 
1182:Drivers/STM32U5xx_HAL_Driver/Src/stm32u5xx_hal_dcmi.c ****   if (hdcmi->State == HAL_DCMI_STATE_READY)
1183:Drivers/STM32U5xx_HAL_Driver/Src/stm32u5xx_hal_dcmi.c ****   {
1184:Drivers/STM32U5xx_HAL_Driver/Src/stm32u5xx_hal_dcmi.c ****     switch (CallbackID)
1185:Drivers/STM32U5xx_HAL_Driver/Src/stm32u5xx_hal_dcmi.c ****     {
1186:Drivers/STM32U5xx_HAL_Driver/Src/stm32u5xx_hal_dcmi.c ****       case HAL_DCMI_FRAME_EVENT_CB_ID :
1187:Drivers/STM32U5xx_HAL_Driver/Src/stm32u5xx_hal_dcmi.c ****         hdcmi->FrameEventCallback = HAL_DCMI_FrameEventCallback;  /* Legacy weak  FrameEventCallbac
1188:Drivers/STM32U5xx_HAL_Driver/Src/stm32u5xx_hal_dcmi.c ****         break;
1189:Drivers/STM32U5xx_HAL_Driver/Src/stm32u5xx_hal_dcmi.c **** 
1190:Drivers/STM32U5xx_HAL_Driver/Src/stm32u5xx_hal_dcmi.c ****       case HAL_DCMI_VSYNC_EVENT_CB_ID :
1191:Drivers/STM32U5xx_HAL_Driver/Src/stm32u5xx_hal_dcmi.c ****         hdcmi->VsyncEventCallback = HAL_DCMI_VsyncEventCallback;  /* Legacy weak VsyncEventCallback
1192:Drivers/STM32U5xx_HAL_Driver/Src/stm32u5xx_hal_dcmi.c ****         break;
1193:Drivers/STM32U5xx_HAL_Driver/Src/stm32u5xx_hal_dcmi.c **** 
1194:Drivers/STM32U5xx_HAL_Driver/Src/stm32u5xx_hal_dcmi.c ****       case HAL_DCMI_LINE_EVENT_CB_ID :
1195:Drivers/STM32U5xx_HAL_Driver/Src/stm32u5xx_hal_dcmi.c ****         hdcmi->LineEventCallback = HAL_DCMI_LineEventCallback;    /* Legacy weak LineEventCallback 
1196:Drivers/STM32U5xx_HAL_Driver/Src/stm32u5xx_hal_dcmi.c ****         break;
1197:Drivers/STM32U5xx_HAL_Driver/Src/stm32u5xx_hal_dcmi.c **** 
1198:Drivers/STM32U5xx_HAL_Driver/Src/stm32u5xx_hal_dcmi.c ****       case HAL_DCMI_ERROR_CB_ID :
1199:Drivers/STM32U5xx_HAL_Driver/Src/stm32u5xx_hal_dcmi.c ****         hdcmi->ErrorCallback = HAL_DCMI_ErrorCallback;           /* Legacy weak ErrorCallback      
1200:Drivers/STM32U5xx_HAL_Driver/Src/stm32u5xx_hal_dcmi.c ****         break;
1201:Drivers/STM32U5xx_HAL_Driver/Src/stm32u5xx_hal_dcmi.c **** 
1202:Drivers/STM32U5xx_HAL_Driver/Src/stm32u5xx_hal_dcmi.c ****       case HAL_DCMI_MSPINIT_CB_ID :
1203:Drivers/STM32U5xx_HAL_Driver/Src/stm32u5xx_hal_dcmi.c ****         hdcmi->MspInitCallback = HAL_DCMI_MspInit;
1204:Drivers/STM32U5xx_HAL_Driver/Src/stm32u5xx_hal_dcmi.c ****         break;
1205:Drivers/STM32U5xx_HAL_Driver/Src/stm32u5xx_hal_dcmi.c **** 
1206:Drivers/STM32U5xx_HAL_Driver/Src/stm32u5xx_hal_dcmi.c ****       case HAL_DCMI_MSPDEINIT_CB_ID :
1207:Drivers/STM32U5xx_HAL_Driver/Src/stm32u5xx_hal_dcmi.c ****         hdcmi->MspDeInitCallback = HAL_DCMI_MspDeInit;
1208:Drivers/STM32U5xx_HAL_Driver/Src/stm32u5xx_hal_dcmi.c ****         break;
1209:Drivers/STM32U5xx_HAL_Driver/Src/stm32u5xx_hal_dcmi.c **** 
1210:Drivers/STM32U5xx_HAL_Driver/Src/stm32u5xx_hal_dcmi.c ****       default :
1211:Drivers/STM32U5xx_HAL_Driver/Src/stm32u5xx_hal_dcmi.c ****         /* update the error code */
1212:Drivers/STM32U5xx_HAL_Driver/Src/stm32u5xx_hal_dcmi.c ****         hdcmi->ErrorCode |= HAL_DCMI_ERROR_INVALID_CALLBACK;
1213:Drivers/STM32U5xx_HAL_Driver/Src/stm32u5xx_hal_dcmi.c ****         /* update return status */
1214:Drivers/STM32U5xx_HAL_Driver/Src/stm32u5xx_hal_dcmi.c ****         status = HAL_ERROR;
1215:Drivers/STM32U5xx_HAL_Driver/Src/stm32u5xx_hal_dcmi.c ****         break;
1216:Drivers/STM32U5xx_HAL_Driver/Src/stm32u5xx_hal_dcmi.c ****     }
1217:Drivers/STM32U5xx_HAL_Driver/Src/stm32u5xx_hal_dcmi.c ****   }
1218:Drivers/STM32U5xx_HAL_Driver/Src/stm32u5xx_hal_dcmi.c ****   else if (hdcmi->State == HAL_DCMI_STATE_RESET)
1219:Drivers/STM32U5xx_HAL_Driver/Src/stm32u5xx_hal_dcmi.c ****   {
1220:Drivers/STM32U5xx_HAL_Driver/Src/stm32u5xx_hal_dcmi.c ****     switch (CallbackID)
1221:Drivers/STM32U5xx_HAL_Driver/Src/stm32u5xx_hal_dcmi.c ****     {
1222:Drivers/STM32U5xx_HAL_Driver/Src/stm32u5xx_hal_dcmi.c ****       case HAL_DCMI_MSPINIT_CB_ID :
1223:Drivers/STM32U5xx_HAL_Driver/Src/stm32u5xx_hal_dcmi.c ****         hdcmi->MspInitCallback = HAL_DCMI_MspInit;
1224:Drivers/STM32U5xx_HAL_Driver/Src/stm32u5xx_hal_dcmi.c ****         break;
1225:Drivers/STM32U5xx_HAL_Driver/Src/stm32u5xx_hal_dcmi.c **** 
1226:Drivers/STM32U5xx_HAL_Driver/Src/stm32u5xx_hal_dcmi.c ****       case HAL_DCMI_MSPDEINIT_CB_ID :
ARM GAS  C:\usertemp\ccMMWJQW.s 			page 23


1227:Drivers/STM32U5xx_HAL_Driver/Src/stm32u5xx_hal_dcmi.c ****         hdcmi->MspDeInitCallback = HAL_DCMI_MspDeInit;
1228:Drivers/STM32U5xx_HAL_Driver/Src/stm32u5xx_hal_dcmi.c ****         break;
1229:Drivers/STM32U5xx_HAL_Driver/Src/stm32u5xx_hal_dcmi.c **** 
1230:Drivers/STM32U5xx_HAL_Driver/Src/stm32u5xx_hal_dcmi.c ****       default :
1231:Drivers/STM32U5xx_HAL_Driver/Src/stm32u5xx_hal_dcmi.c ****         /* update the error code */
1232:Drivers/STM32U5xx_HAL_Driver/Src/stm32u5xx_hal_dcmi.c ****         hdcmi->ErrorCode |= HAL_DCMI_ERROR_INVALID_CALLBACK;
1233:Drivers/STM32U5xx_HAL_Driver/Src/stm32u5xx_hal_dcmi.c ****         /* update return status */
1234:Drivers/STM32U5xx_HAL_Driver/Src/stm32u5xx_hal_dcmi.c ****         status = HAL_ERROR;
1235:Drivers/STM32U5xx_HAL_Driver/Src/stm32u5xx_hal_dcmi.c ****         break;
1236:Drivers/STM32U5xx_HAL_Driver/Src/stm32u5xx_hal_dcmi.c ****     }
1237:Drivers/STM32U5xx_HAL_Driver/Src/stm32u5xx_hal_dcmi.c ****   }
1238:Drivers/STM32U5xx_HAL_Driver/Src/stm32u5xx_hal_dcmi.c ****   else
1239:Drivers/STM32U5xx_HAL_Driver/Src/stm32u5xx_hal_dcmi.c ****   {
1240:Drivers/STM32U5xx_HAL_Driver/Src/stm32u5xx_hal_dcmi.c ****     /* update the error code */
1241:Drivers/STM32U5xx_HAL_Driver/Src/stm32u5xx_hal_dcmi.c ****     hdcmi->ErrorCode |= HAL_DCMI_ERROR_INVALID_CALLBACK;
1242:Drivers/STM32U5xx_HAL_Driver/Src/stm32u5xx_hal_dcmi.c ****     /* update return status */
1243:Drivers/STM32U5xx_HAL_Driver/Src/stm32u5xx_hal_dcmi.c ****     status = HAL_ERROR;
1244:Drivers/STM32U5xx_HAL_Driver/Src/stm32u5xx_hal_dcmi.c ****   }
1245:Drivers/STM32U5xx_HAL_Driver/Src/stm32u5xx_hal_dcmi.c **** 
1246:Drivers/STM32U5xx_HAL_Driver/Src/stm32u5xx_hal_dcmi.c ****   return status;
1247:Drivers/STM32U5xx_HAL_Driver/Src/stm32u5xx_hal_dcmi.c **** }
1248:Drivers/STM32U5xx_HAL_Driver/Src/stm32u5xx_hal_dcmi.c **** #endif /* USE_HAL_DCMI_REGISTER_CALLBACKS */
1249:Drivers/STM32U5xx_HAL_Driver/Src/stm32u5xx_hal_dcmi.c **** 
1250:Drivers/STM32U5xx_HAL_Driver/Src/stm32u5xx_hal_dcmi.c **** /**
1251:Drivers/STM32U5xx_HAL_Driver/Src/stm32u5xx_hal_dcmi.c ****   * @}
1252:Drivers/STM32U5xx_HAL_Driver/Src/stm32u5xx_hal_dcmi.c ****   */
1253:Drivers/STM32U5xx_HAL_Driver/Src/stm32u5xx_hal_dcmi.c **** 
1254:Drivers/STM32U5xx_HAL_Driver/Src/stm32u5xx_hal_dcmi.c **** /**
1255:Drivers/STM32U5xx_HAL_Driver/Src/stm32u5xx_hal_dcmi.c ****   * @}
1256:Drivers/STM32U5xx_HAL_Driver/Src/stm32u5xx_hal_dcmi.c ****   */
1257:Drivers/STM32U5xx_HAL_Driver/Src/stm32u5xx_hal_dcmi.c **** 
1258:Drivers/STM32U5xx_HAL_Driver/Src/stm32u5xx_hal_dcmi.c **** /* Private functions ---------------------------------------------------------*/
1259:Drivers/STM32U5xx_HAL_Driver/Src/stm32u5xx_hal_dcmi.c **** /** @defgroup DCMI_Private_Functions DCMI Private Functions
1260:Drivers/STM32U5xx_HAL_Driver/Src/stm32u5xx_hal_dcmi.c ****   * @{
1261:Drivers/STM32U5xx_HAL_Driver/Src/stm32u5xx_hal_dcmi.c ****   */
1262:Drivers/STM32U5xx_HAL_Driver/Src/stm32u5xx_hal_dcmi.c **** /**
1263:Drivers/STM32U5xx_HAL_Driver/Src/stm32u5xx_hal_dcmi.c ****   * @brief  DMA conversion complete callback.
1264:Drivers/STM32U5xx_HAL_Driver/Src/stm32u5xx_hal_dcmi.c ****   * @param  hdma pointer to a DMA_HandleTypeDef structure that contains
1265:Drivers/STM32U5xx_HAL_Driver/Src/stm32u5xx_hal_dcmi.c ****   *                the configuration information for the specified DMA module.
1266:Drivers/STM32U5xx_HAL_Driver/Src/stm32u5xx_hal_dcmi.c ****   * @retval None
1267:Drivers/STM32U5xx_HAL_Driver/Src/stm32u5xx_hal_dcmi.c ****   */
1268:Drivers/STM32U5xx_HAL_Driver/Src/stm32u5xx_hal_dcmi.c **** static void DCMI_DMAXferCplt(DMA_HandleTypeDef *hdma)
1269:Drivers/STM32U5xx_HAL_Driver/Src/stm32u5xx_hal_dcmi.c **** {
  30              		.loc 1 1269 1 view -0
  31              		.cfi_startproc
  32              		@ args = 0, pretend = 0, frame = 0
  33              		@ frame_needed = 0, uses_anonymous_args = 0
  34              		@ link register save eliminated.
1270:Drivers/STM32U5xx_HAL_Driver/Src/stm32u5xx_hal_dcmi.c **** 
1271:Drivers/STM32U5xx_HAL_Driver/Src/stm32u5xx_hal_dcmi.c ****   DCMI_HandleTypeDef *hdcmi = (DCMI_HandleTypeDef *)((DMA_HandleTypeDef *)hdma)->Parent;
  35              		.loc 1 1271 3 view .LVU1
  36              		.loc 1 1271 23 is_stmt 0 view .LVU2
  37 0000 C36D     		ldr	r3, [r0, #92]
  38              	.LVL1:
1272:Drivers/STM32U5xx_HAL_Driver/Src/stm32u5xx_hal_dcmi.c ****   uint32_t tmp1;
  39              		.loc 1 1272 3 is_stmt 1 view .LVU3
1273:Drivers/STM32U5xx_HAL_Driver/Src/stm32u5xx_hal_dcmi.c ****   uint32_t tmp2;
ARM GAS  C:\usertemp\ccMMWJQW.s 			page 24


  40              		.loc 1 1273 3 view .LVU4
1274:Drivers/STM32U5xx_HAL_Driver/Src/stm32u5xx_hal_dcmi.c ****   DMA_NodeTypeDef *pnode;
  41              		.loc 1 1274 3 view .LVU5
1275:Drivers/STM32U5xx_HAL_Driver/Src/stm32u5xx_hal_dcmi.c ****   uint32_t pbuff;
  42              		.loc 1 1275 3 view .LVU6
1276:Drivers/STM32U5xx_HAL_Driver/Src/stm32u5xx_hal_dcmi.c ****   uint32_t transfernumber;
  43              		.loc 1 1276 3 view .LVU7
1277:Drivers/STM32U5xx_HAL_Driver/Src/stm32u5xx_hal_dcmi.c ****   uint32_t transfercount;
  44              		.loc 1 1277 3 view .LVU8
1278:Drivers/STM32U5xx_HAL_Driver/Src/stm32u5xx_hal_dcmi.c ****   uint32_t transfersize ;
  45              		.loc 1 1278 3 view .LVU9
1279:Drivers/STM32U5xx_HAL_Driver/Src/stm32u5xx_hal_dcmi.c **** 
1280:Drivers/STM32U5xx_HAL_Driver/Src/stm32u5xx_hal_dcmi.c ****   /* Update Nodes destinations */
1281:Drivers/STM32U5xx_HAL_Driver/Src/stm32u5xx_hal_dcmi.c ****   if (hdcmi->XferSize != 0U)
  46              		.loc 1 1281 3 view .LVU10
  47              		.loc 1 1281 12 is_stmt 0 view .LVU11
  48 0002 DA6B     		ldr	r2, [r3, #60]
  49              		.loc 1 1281 6 view .LVU12
  50 0004 002A     		cmp	r2, #0
  51 0006 37D0     		beq	.L2
1269:Drivers/STM32U5xx_HAL_Driver/Src/stm32u5xx_hal_dcmi.c **** 
  52              		.loc 1 1269 1 view .LVU13
  53 0008 70B4     		push	{r4, r5, r6}
  54              	.LCFI0:
  55              		.cfi_def_cfa_offset 12
  56              		.cfi_offset 4, -12
  57              		.cfi_offset 5, -8
  58              		.cfi_offset 6, -4
1282:Drivers/STM32U5xx_HAL_Driver/Src/stm32u5xx_hal_dcmi.c ****   {
1283:Drivers/STM32U5xx_HAL_Driver/Src/stm32u5xx_hal_dcmi.c ****     pbuff          = hdcmi->pBuffPtr;
  59              		.loc 1 1283 5 is_stmt 1 view .LVU14
  60              		.loc 1 1283 20 is_stmt 0 view .LVU15
  61 000a 5C6C     		ldr	r4, [r3, #68]
  62              	.LVL2:
1284:Drivers/STM32U5xx_HAL_Driver/Src/stm32u5xx_hal_dcmi.c ****     transfernumber = hdcmi->XferTransferNumber;
  63              		.loc 1 1284 5 is_stmt 1 view .LVU16
  64              		.loc 1 1284 20 is_stmt 0 view .LVU17
  65 000c 196C     		ldr	r1, [r3, #64]
  66              	.LVL3:
1285:Drivers/STM32U5xx_HAL_Driver/Src/stm32u5xx_hal_dcmi.c ****     transfercount  = hdcmi->XferCount;
  67              		.loc 1 1285 5 is_stmt 1 view .LVU18
  68              		.loc 1 1285 20 is_stmt 0 view .LVU19
  69 000e 9E6B     		ldr	r6, [r3, #56]
  70              	.LVL4:
1286:Drivers/STM32U5xx_HAL_Driver/Src/stm32u5xx_hal_dcmi.c ****     transfersize   = hdcmi->XferSize;
  71              		.loc 1 1286 5 is_stmt 1 view .LVU20
  72              		.loc 1 1286 20 is_stmt 0 view .LVU21
  73 0010 DD6B     		ldr	r5, [r3, #60]
  74              	.LVL5:
1287:Drivers/STM32U5xx_HAL_Driver/Src/stm32u5xx_hal_dcmi.c **** 
1288:Drivers/STM32U5xx_HAL_Driver/Src/stm32u5xx_hal_dcmi.c ****     tmp1 = hdcmi->DMA_Handle->Instance->CLLR & DMA_CLLR_LA;
  75              		.loc 1 1288 5 is_stmt 1 view .LVU22
  76              		.loc 1 1288 17 is_stmt 0 view .LVU23
  77 0012 9A6C     		ldr	r2, [r3, #72]
  78              		.loc 1 1288 29 view .LVU24
  79 0014 1068     		ldr	r0, [r2]
  80              	.LVL6:
ARM GAS  C:\usertemp\ccMMWJQW.s 			page 25


  81              		.loc 1 1288 39 view .LVU25
  82 0016 C26F     		ldr	r2, [r0, #124]
  83              		.loc 1 1288 10 view .LVU26
  84 0018 22F00302 		bic	r2, r2, #3
  85 001c 1204     		lsls	r2, r2, #16
  86 001e 120C     		lsrs	r2, r2, #16
  87              	.LVL7:
1289:Drivers/STM32U5xx_HAL_Driver/Src/stm32u5xx_hal_dcmi.c ****     tmp2 = hdcmi->DMA_Handle->Instance->CLBAR & DMA_CLBAR_LBA;
  88              		.loc 1 1289 5 is_stmt 1 view .LVU27
  89              		.loc 1 1289 39 is_stmt 0 view .LVU28
  90 0020 0068     		ldr	r0, [r0]
  91              		.loc 1 1289 10 view .LVU29
  92 0022 6FF30F00 		bfc	r0, #0, #16
  93              	.LVL8:
1290:Drivers/STM32U5xx_HAL_Driver/Src/stm32u5xx_hal_dcmi.c ****     pnode = (DMA_NodeTypeDef *)(uint32_t)(tmp1 | tmp2);
  94              		.loc 1 1290 5 is_stmt 1 view .LVU30
  95              		.loc 1 1290 48 is_stmt 0 view .LVU31
  96 0026 0243     		orrs	r2, r2, r0
  97              	.LVL9:
1291:Drivers/STM32U5xx_HAL_Driver/Src/stm32u5xx_hal_dcmi.c **** 
1292:Drivers/STM32U5xx_HAL_Driver/Src/stm32u5xx_hal_dcmi.c ****     if (hdcmi->XferCount > 1U)
  98              		.loc 1 1292 5 is_stmt 1 view .LVU32
  99              		.loc 1 1292 14 is_stmt 0 view .LVU33
 100 0028 986B     		ldr	r0, [r3, #56]
 101              	.LVL10:
 102              		.loc 1 1292 8 view .LVU34
 103 002a 0128     		cmp	r0, #1
 104 002c 09D9     		bls	.L3
1293:Drivers/STM32U5xx_HAL_Driver/Src/stm32u5xx_hal_dcmi.c ****     {
1294:Drivers/STM32U5xx_HAL_Driver/Src/stm32u5xx_hal_dcmi.c ****       pnode->LinkRegisters[NODE_CDAR_DEFAULT_OFFSET] = pbuff + ((transfernumber - transfercount + 2
 105              		.loc 1 1294 7 is_stmt 1 view .LVU35
 106              		.loc 1 1294 81 is_stmt 0 view .LVU36
 107 002e 891B     		subs	r1, r1, r6
 108              	.LVL11:
 109              		.loc 1 1294 97 view .LVU37
 110 0030 0231     		adds	r1, r1, #2
 111              		.loc 1 1294 62 view .LVU38
 112 0032 05FB0141 		mla	r1, r5, r1, r4
 113              		.loc 1 1294 54 view .LVU39
 114 0036 1161     		str	r1, [r2, #16]
 115              	.LVL12:
1295:Drivers/STM32U5xx_HAL_Driver/Src/stm32u5xx_hal_dcmi.c ****       hdcmi->XferCount--;
 116              		.loc 1 1295 7 is_stmt 1 view .LVU40
 117              		.loc 1 1295 12 is_stmt 0 view .LVU41
 118 0038 9A6B     		ldr	r2, [r3, #56]
 119              	.LVL13:
 120              		.loc 1 1295 23 view .LVU42
 121 003a 013A     		subs	r2, r2, #1
 122 003c 9A63     		str	r2, [r3, #56]
 123              	.LVL14:
 124              	.L1:
1296:Drivers/STM32U5xx_HAL_Driver/Src/stm32u5xx_hal_dcmi.c ****     }
1297:Drivers/STM32U5xx_HAL_Driver/Src/stm32u5xx_hal_dcmi.c **** 
1298:Drivers/STM32U5xx_HAL_Driver/Src/stm32u5xx_hal_dcmi.c ****     else if (hdcmi->XferCount == 1U)
1299:Drivers/STM32U5xx_HAL_Driver/Src/stm32u5xx_hal_dcmi.c ****     {
1300:Drivers/STM32U5xx_HAL_Driver/Src/stm32u5xx_hal_dcmi.c ****       pnode->LinkRegisters[NODE_CDAR_DEFAULT_OFFSET] = hdcmi->pBuffPtr;
1301:Drivers/STM32U5xx_HAL_Driver/Src/stm32u5xx_hal_dcmi.c ****       hdcmi->XferCount--;
ARM GAS  C:\usertemp\ccMMWJQW.s 			page 26


1302:Drivers/STM32U5xx_HAL_Driver/Src/stm32u5xx_hal_dcmi.c ****     }
1303:Drivers/STM32U5xx_HAL_Driver/Src/stm32u5xx_hal_dcmi.c ****     else
1304:Drivers/STM32U5xx_HAL_Driver/Src/stm32u5xx_hal_dcmi.c ****     {
1305:Drivers/STM32U5xx_HAL_Driver/Src/stm32u5xx_hal_dcmi.c ****       pnode->LinkRegisters[NODE_CDAR_DEFAULT_OFFSET] = hdcmi->pBuffPtr + hdcmi->XferSize;
1306:Drivers/STM32U5xx_HAL_Driver/Src/stm32u5xx_hal_dcmi.c **** 
1307:Drivers/STM32U5xx_HAL_Driver/Src/stm32u5xx_hal_dcmi.c ****       /* When Continuous mode, re-set dcmi XferCount */
1308:Drivers/STM32U5xx_HAL_Driver/Src/stm32u5xx_hal_dcmi.c ****       if ((hdcmi->Instance->CR & DCMI_CR_CM) == DCMI_MODE_CONTINUOUS)
1309:Drivers/STM32U5xx_HAL_Driver/Src/stm32u5xx_hal_dcmi.c ****       {
1310:Drivers/STM32U5xx_HAL_Driver/Src/stm32u5xx_hal_dcmi.c ****         hdcmi->XferCount = hdcmi->XferTransferNumber ;
1311:Drivers/STM32U5xx_HAL_Driver/Src/stm32u5xx_hal_dcmi.c ****       }
1312:Drivers/STM32U5xx_HAL_Driver/Src/stm32u5xx_hal_dcmi.c ****       /* When snapshot mode, set dcmi state to ready */
1313:Drivers/STM32U5xx_HAL_Driver/Src/stm32u5xx_hal_dcmi.c ****       else
1314:Drivers/STM32U5xx_HAL_Driver/Src/stm32u5xx_hal_dcmi.c ****       {
1315:Drivers/STM32U5xx_HAL_Driver/Src/stm32u5xx_hal_dcmi.c ****         hdcmi->State = HAL_DCMI_STATE_READY;
1316:Drivers/STM32U5xx_HAL_Driver/Src/stm32u5xx_hal_dcmi.c ****       }
1317:Drivers/STM32U5xx_HAL_Driver/Src/stm32u5xx_hal_dcmi.c **** 
1318:Drivers/STM32U5xx_HAL_Driver/Src/stm32u5xx_hal_dcmi.c ****       __HAL_DCMI_ENABLE_IT(hdcmi, DCMI_IT_FRAME);
1319:Drivers/STM32U5xx_HAL_Driver/Src/stm32u5xx_hal_dcmi.c ****     }
1320:Drivers/STM32U5xx_HAL_Driver/Src/stm32u5xx_hal_dcmi.c ****   }
1321:Drivers/STM32U5xx_HAL_Driver/Src/stm32u5xx_hal_dcmi.c ****   else  /* Snapshot Mode */
1322:Drivers/STM32U5xx_HAL_Driver/Src/stm32u5xx_hal_dcmi.c ****   {
1323:Drivers/STM32U5xx_HAL_Driver/Src/stm32u5xx_hal_dcmi.c ****     /* Enable the Frame interrupt */
1324:Drivers/STM32U5xx_HAL_Driver/Src/stm32u5xx_hal_dcmi.c ****     __HAL_DCMI_ENABLE_IT(hdcmi, DCMI_IT_FRAME);
1325:Drivers/STM32U5xx_HAL_Driver/Src/stm32u5xx_hal_dcmi.c **** 
1326:Drivers/STM32U5xx_HAL_Driver/Src/stm32u5xx_hal_dcmi.c ****     /* When snapshot mode, set dcmi state to ready */
1327:Drivers/STM32U5xx_HAL_Driver/Src/stm32u5xx_hal_dcmi.c ****     if ((hdcmi->Instance->CR & DCMI_CR_CM) == DCMI_MODE_SNAPSHOT)
1328:Drivers/STM32U5xx_HAL_Driver/Src/stm32u5xx_hal_dcmi.c ****     {
1329:Drivers/STM32U5xx_HAL_Driver/Src/stm32u5xx_hal_dcmi.c ****       hdcmi->State = HAL_DCMI_STATE_READY;
1330:Drivers/STM32U5xx_HAL_Driver/Src/stm32u5xx_hal_dcmi.c ****     }
1331:Drivers/STM32U5xx_HAL_Driver/Src/stm32u5xx_hal_dcmi.c ****   }
1332:Drivers/STM32U5xx_HAL_Driver/Src/stm32u5xx_hal_dcmi.c **** }
 125              		.loc 1 1332 1 view .LVU43
 126 003e 70BC     		pop	{r4, r5, r6}
 127              	.LCFI1:
 128              		.cfi_remember_state
 129              		.cfi_restore 6
 130              		.cfi_restore 5
 131              		.cfi_restore 4
 132              		.cfi_def_cfa_offset 0
 133              	.LVL15:
 134              		.loc 1 1332 1 view .LVU44
 135 0040 7047     		bx	lr
 136              	.LVL16:
 137              	.L3:
 138              	.LCFI2:
 139              		.cfi_restore_state
1298:Drivers/STM32U5xx_HAL_Driver/Src/stm32u5xx_hal_dcmi.c ****     {
 140              		.loc 1 1298 10 is_stmt 1 view .LVU45
1298:Drivers/STM32U5xx_HAL_Driver/Src/stm32u5xx_hal_dcmi.c ****     {
 141              		.loc 1 1298 19 is_stmt 0 view .LVU46
 142 0042 996B     		ldr	r1, [r3, #56]
 143              	.LVL17:
1298:Drivers/STM32U5xx_HAL_Driver/Src/stm32u5xx_hal_dcmi.c ****     {
 144              		.loc 1 1298 13 view .LVU47
 145 0044 0129     		cmp	r1, #1
 146 0046 0ED0     		beq	.L12
1305:Drivers/STM32U5xx_HAL_Driver/Src/stm32u5xx_hal_dcmi.c **** 
ARM GAS  C:\usertemp\ccMMWJQW.s 			page 27


 147              		.loc 1 1305 7 is_stmt 1 view .LVU48
1305:Drivers/STM32U5xx_HAL_Driver/Src/stm32u5xx_hal_dcmi.c **** 
 148              		.loc 1 1305 79 is_stmt 0 view .LVU49
 149 0048 D96B     		ldr	r1, [r3, #60]
1305:Drivers/STM32U5xx_HAL_Driver/Src/stm32u5xx_hal_dcmi.c **** 
 150              		.loc 1 1305 72 view .LVU50
 151 004a 2144     		add	r1, r1, r4
1305:Drivers/STM32U5xx_HAL_Driver/Src/stm32u5xx_hal_dcmi.c **** 
 152              		.loc 1 1305 54 view .LVU51
 153 004c 1161     		str	r1, [r2, #16]
 154              	.LVL18:
1308:Drivers/STM32U5xx_HAL_Driver/Src/stm32u5xx_hal_dcmi.c ****       {
 155              		.loc 1 1308 7 is_stmt 1 view .LVU52
1308:Drivers/STM32U5xx_HAL_Driver/Src/stm32u5xx_hal_dcmi.c ****       {
 156              		.loc 1 1308 17 is_stmt 0 view .LVU53
 157 004e 1A68     		ldr	r2, [r3]
 158              	.LVL19:
1308:Drivers/STM32U5xx_HAL_Driver/Src/stm32u5xx_hal_dcmi.c ****       {
 159              		.loc 1 1308 27 view .LVU54
 160 0050 1168     		ldr	r1, [r2]
1308:Drivers/STM32U5xx_HAL_Driver/Src/stm32u5xx_hal_dcmi.c ****       {
 161              		.loc 1 1308 10 view .LVU55
 162 0052 11F0020F 		tst	r1, #2
 163 0056 0BD1     		bne	.L6
1310:Drivers/STM32U5xx_HAL_Driver/Src/stm32u5xx_hal_dcmi.c ****       }
 164              		.loc 1 1310 9 is_stmt 1 view .LVU56
1310:Drivers/STM32U5xx_HAL_Driver/Src/stm32u5xx_hal_dcmi.c ****       }
 165              		.loc 1 1310 33 is_stmt 0 view .LVU57
 166 0058 196C     		ldr	r1, [r3, #64]
1310:Drivers/STM32U5xx_HAL_Driver/Src/stm32u5xx_hal_dcmi.c ****       }
 167              		.loc 1 1310 26 view .LVU58
 168 005a 9963     		str	r1, [r3, #56]
 169              	.L7:
1318:Drivers/STM32U5xx_HAL_Driver/Src/stm32u5xx_hal_dcmi.c ****     }
 170              		.loc 1 1318 7 is_stmt 1 view .LVU59
 171 005c D368     		ldr	r3, [r2, #12]
 172              	.LVL20:
1318:Drivers/STM32U5xx_HAL_Driver/Src/stm32u5xx_hal_dcmi.c ****     }
 173              		.loc 1 1318 7 is_stmt 0 view .LVU60
 174 005e 43F00103 		orr	r3, r3, #1
 175 0062 D360     		str	r3, [r2, #12]
 176 0064 EBE7     		b	.L1
 177              	.LVL21:
 178              	.L12:
1300:Drivers/STM32U5xx_HAL_Driver/Src/stm32u5xx_hal_dcmi.c ****       hdcmi->XferCount--;
 179              		.loc 1 1300 7 is_stmt 1 view .LVU61
1300:Drivers/STM32U5xx_HAL_Driver/Src/stm32u5xx_hal_dcmi.c ****       hdcmi->XferCount--;
 180              		.loc 1 1300 54 is_stmt 0 view .LVU62
 181 0066 1461     		str	r4, [r2, #16]
 182              	.LVL22:
1301:Drivers/STM32U5xx_HAL_Driver/Src/stm32u5xx_hal_dcmi.c ****     }
 183              		.loc 1 1301 7 is_stmt 1 view .LVU63
1301:Drivers/STM32U5xx_HAL_Driver/Src/stm32u5xx_hal_dcmi.c ****     }
 184              		.loc 1 1301 12 is_stmt 0 view .LVU64
 185 0068 9A6B     		ldr	r2, [r3, #56]
 186              	.LVL23:
1301:Drivers/STM32U5xx_HAL_Driver/Src/stm32u5xx_hal_dcmi.c ****     }
ARM GAS  C:\usertemp\ccMMWJQW.s 			page 28


 187              		.loc 1 1301 23 view .LVU65
 188 006a 013A     		subs	r2, r2, #1
 189 006c 9A63     		str	r2, [r3, #56]
 190 006e E6E7     		b	.L1
 191              	.L6:
1315:Drivers/STM32U5xx_HAL_Driver/Src/stm32u5xx_hal_dcmi.c ****       }
 192              		.loc 1 1315 9 is_stmt 1 view .LVU66
1315:Drivers/STM32U5xx_HAL_Driver/Src/stm32u5xx_hal_dcmi.c ****       }
 193              		.loc 1 1315 22 is_stmt 0 view .LVU67
 194 0070 0121     		movs	r1, #1
 195 0072 83F83510 		strb	r1, [r3, #53]
 196 0076 F1E7     		b	.L7
 197              	.LVL24:
 198              	.L2:
 199              	.LCFI3:
 200              		.cfi_def_cfa_offset 0
 201              		.cfi_restore 4
 202              		.cfi_restore 5
 203              		.cfi_restore 6
1324:Drivers/STM32U5xx_HAL_Driver/Src/stm32u5xx_hal_dcmi.c **** 
 204              		.loc 1 1324 5 is_stmt 1 view .LVU68
 205 0078 1968     		ldr	r1, [r3]
 206 007a CA68     		ldr	r2, [r1, #12]
 207 007c 42F00102 		orr	r2, r2, #1
 208 0080 CA60     		str	r2, [r1, #12]
1327:Drivers/STM32U5xx_HAL_Driver/Src/stm32u5xx_hal_dcmi.c ****     {
 209              		.loc 1 1327 5 view .LVU69
1327:Drivers/STM32U5xx_HAL_Driver/Src/stm32u5xx_hal_dcmi.c ****     {
 210              		.loc 1 1327 15 is_stmt 0 view .LVU70
 211 0082 1A68     		ldr	r2, [r3]
1327:Drivers/STM32U5xx_HAL_Driver/Src/stm32u5xx_hal_dcmi.c ****     {
 212              		.loc 1 1327 25 view .LVU71
 213 0084 1268     		ldr	r2, [r2]
1327:Drivers/STM32U5xx_HAL_Driver/Src/stm32u5xx_hal_dcmi.c ****     {
 214              		.loc 1 1327 8 view .LVU72
 215 0086 12F0020F 		tst	r2, #2
 216 008a 03D0     		beq	.L9
1329:Drivers/STM32U5xx_HAL_Driver/Src/stm32u5xx_hal_dcmi.c ****     }
 217              		.loc 1 1329 7 is_stmt 1 view .LVU73
1329:Drivers/STM32U5xx_HAL_Driver/Src/stm32u5xx_hal_dcmi.c ****     }
 218              		.loc 1 1329 20 is_stmt 0 view .LVU74
 219 008c 0122     		movs	r2, #1
 220 008e 83F83520 		strb	r2, [r3, #53]
 221              		.loc 1 1332 1 view .LVU75
 222 0092 7047     		bx	lr
 223              	.L9:
 224 0094 7047     		bx	lr
 225              		.cfi_endproc
 226              	.LFE176:
 228              		.section	.text.HAL_DCMI_MspInit,"ax",%progbits
 229              		.align	1
 230              		.weak	HAL_DCMI_MspInit
 231              		.syntax unified
 232              		.thumb
 233              		.thumb_func
 235              	HAL_DCMI_MspInit:
 236              	.LVL25:
ARM GAS  C:\usertemp\ccMMWJQW.s 			page 29


 237              	.LFB159:
 325:Drivers/STM32U5xx_HAL_Driver/Src/stm32u5xx_hal_dcmi.c ****   /* Prevent unused argument(s) compilation warning */
 238              		.loc 1 325 1 is_stmt 1 view -0
 239              		.cfi_startproc
 240              		@ args = 0, pretend = 0, frame = 0
 241              		@ frame_needed = 0, uses_anonymous_args = 0
 242              		@ link register save eliminated.
 327:Drivers/STM32U5xx_HAL_Driver/Src/stm32u5xx_hal_dcmi.c **** 
 243              		.loc 1 327 3 view .LVU77
 332:Drivers/STM32U5xx_HAL_Driver/Src/stm32u5xx_hal_dcmi.c **** 
 244              		.loc 1 332 1 is_stmt 0 view .LVU78
 245 0000 7047     		bx	lr
 246              		.cfi_endproc
 247              	.LFE159:
 249              		.section	.text.HAL_DCMI_Init,"ax",%progbits
 250              		.align	1
 251              		.global	HAL_DCMI_Init
 252              		.syntax unified
 253              		.thumb
 254              		.thumb_func
 256              	HAL_DCMI_Init:
 257              	.LVL26:
 258              	.LFB157:
 196:Drivers/STM32U5xx_HAL_Driver/Src/stm32u5xx_hal_dcmi.c ****   /* Check the DCMI peripheral state */
 259              		.loc 1 196 1 is_stmt 1 view -0
 260              		.cfi_startproc
 261              		@ args = 0, pretend = 0, frame = 0
 262              		@ frame_needed = 0, uses_anonymous_args = 0
 198:Drivers/STM32U5xx_HAL_Driver/Src/stm32u5xx_hal_dcmi.c ****   {
 263              		.loc 1 198 3 view .LVU80
 198:Drivers/STM32U5xx_HAL_Driver/Src/stm32u5xx_hal_dcmi.c ****   {
 264              		.loc 1 198 6 is_stmt 0 view .LVU81
 265 0000 0028     		cmp	r0, #0
 266 0002 48D0     		beq	.L19
 196:Drivers/STM32U5xx_HAL_Driver/Src/stm32u5xx_hal_dcmi.c ****   /* Check the DCMI peripheral state */
 267              		.loc 1 196 1 view .LVU82
 268 0004 10B5     		push	{r4, lr}
 269              	.LCFI4:
 270              		.cfi_def_cfa_offset 8
 271              		.cfi_offset 4, -8
 272              		.cfi_offset 14, -4
 273 0006 0446     		mov	r4, r0
 204:Drivers/STM32U5xx_HAL_Driver/Src/stm32u5xx_hal_dcmi.c ****   assert_param(IS_DCMI_PCKPOLARITY(hdcmi->Init.PCKPolarity));
 274              		.loc 1 204 3 is_stmt 1 view .LVU83
 205:Drivers/STM32U5xx_HAL_Driver/Src/stm32u5xx_hal_dcmi.c ****   assert_param(IS_DCMI_VSPOLARITY(hdcmi->Init.VSPolarity));
 275              		.loc 1 205 3 view .LVU84
 206:Drivers/STM32U5xx_HAL_Driver/Src/stm32u5xx_hal_dcmi.c ****   assert_param(IS_DCMI_HSPOLARITY(hdcmi->Init.HSPolarity));
 276              		.loc 1 206 3 view .LVU85
 207:Drivers/STM32U5xx_HAL_Driver/Src/stm32u5xx_hal_dcmi.c ****   assert_param(IS_DCMI_SYNCHRO(hdcmi->Init.SynchroMode));
 277              		.loc 1 207 3 view .LVU86
 208:Drivers/STM32U5xx_HAL_Driver/Src/stm32u5xx_hal_dcmi.c ****   assert_param(IS_DCMI_CAPTURE_RATE(hdcmi->Init.CaptureRate));
 278              		.loc 1 208 3 view .LVU87
 209:Drivers/STM32U5xx_HAL_Driver/Src/stm32u5xx_hal_dcmi.c ****   assert_param(IS_DCMI_EXTENDED_DATA(hdcmi->Init.ExtendedDataMode));
 279              		.loc 1 209 3 view .LVU88
 210:Drivers/STM32U5xx_HAL_Driver/Src/stm32u5xx_hal_dcmi.c ****   assert_param(IS_DCMI_MODE_JPEG(hdcmi->Init.JPEGMode));
 280              		.loc 1 210 3 view .LVU89
 211:Drivers/STM32U5xx_HAL_Driver/Src/stm32u5xx_hal_dcmi.c **** 
ARM GAS  C:\usertemp\ccMMWJQW.s 			page 30


 281              		.loc 1 211 3 view .LVU90
 213:Drivers/STM32U5xx_HAL_Driver/Src/stm32u5xx_hal_dcmi.c ****   assert_param(IS_DCMI_BYTE_SELECT_START(hdcmi->Init.ByteSelectStart));
 282              		.loc 1 213 3 view .LVU91
 214:Drivers/STM32U5xx_HAL_Driver/Src/stm32u5xx_hal_dcmi.c ****   assert_param(IS_DCMI_LINE_SELECT_MODE(hdcmi->Init.LineSelectMode));
 283              		.loc 1 214 3 view .LVU92
 215:Drivers/STM32U5xx_HAL_Driver/Src/stm32u5xx_hal_dcmi.c ****   assert_param(IS_DCMI_LINE_SELECT_START(hdcmi->Init.LineSelectStart));
 284              		.loc 1 215 3 view .LVU93
 216:Drivers/STM32U5xx_HAL_Driver/Src/stm32u5xx_hal_dcmi.c **** 
 285              		.loc 1 216 3 view .LVU94
 218:Drivers/STM32U5xx_HAL_Driver/Src/stm32u5xx_hal_dcmi.c ****   {
 286              		.loc 1 218 3 view .LVU95
 218:Drivers/STM32U5xx_HAL_Driver/Src/stm32u5xx_hal_dcmi.c ****   {
 287              		.loc 1 218 12 is_stmt 0 view .LVU96
 288 0008 90F83530 		ldrb	r3, [r0, #53]	@ zero_extendqisi2
 218:Drivers/STM32U5xx_HAL_Driver/Src/stm32u5xx_hal_dcmi.c ****   {
 289              		.loc 1 218 6 view .LVU97
 290 000c 002B     		cmp	r3, #0
 291 000e 32D0     		beq	.L24
 292              	.LVL27:
 293              	.L16:
 242:Drivers/STM32U5xx_HAL_Driver/Src/stm32u5xx_hal_dcmi.c **** 
 294              		.loc 1 242 3 is_stmt 1 view .LVU98
 242:Drivers/STM32U5xx_HAL_Driver/Src/stm32u5xx_hal_dcmi.c **** 
 295              		.loc 1 242 16 is_stmt 0 view .LVU99
 296 0010 0223     		movs	r3, #2
 297 0012 84F83530 		strb	r3, [r4, #53]
 244:Drivers/STM32U5xx_HAL_Driver/Src/stm32u5xx_hal_dcmi.c ****   {
 298              		.loc 1 244 3 is_stmt 1 view .LVU100
 244:Drivers/STM32U5xx_HAL_Driver/Src/stm32u5xx_hal_dcmi.c ****   {
 299              		.loc 1 244 18 is_stmt 0 view .LVU101
 300 0016 A369     		ldr	r3, [r4, #24]
 244:Drivers/STM32U5xx_HAL_Driver/Src/stm32u5xx_hal_dcmi.c ****   {
 301              		.loc 1 244 6 view .LVU102
 302 0018 0BB1     		cbz	r3, .L17
 248:Drivers/STM32U5xx_HAL_Driver/Src/stm32u5xx_hal_dcmi.c ****   }
 303              		.loc 1 248 5 is_stmt 1 view .LVU103
 248:Drivers/STM32U5xx_HAL_Driver/Src/stm32u5xx_hal_dcmi.c ****   }
 304              		.loc 1 248 32 is_stmt 0 view .LVU104
 305 001a 0023     		movs	r3, #0
 306 001c 6362     		str	r3, [r4, #36]
 307              	.L17:
 251:Drivers/STM32U5xx_HAL_Driver/Src/stm32u5xx_hal_dcmi.c ****                            DCMI_CR_EDM_1  | DCMI_CR_FCRC_0 | DCMI_CR_FCRC_1 | DCMI_CR_JPEG  | \
 308              		.loc 1 251 3 is_stmt 1 view .LVU105
 251:Drivers/STM32U5xx_HAL_Driver/Src/stm32u5xx_hal_dcmi.c ****                            DCMI_CR_EDM_1  | DCMI_CR_FCRC_0 | DCMI_CR_FCRC_1 | DCMI_CR_JPEG  | \
 309              		.loc 1 251 8 is_stmt 0 view .LVU106
 310 001e 2268     		ldr	r2, [r4]
 251:Drivers/STM32U5xx_HAL_Driver/Src/stm32u5xx_hal_dcmi.c ****                            DCMI_CR_EDM_1  | DCMI_CR_FCRC_0 | DCMI_CR_FCRC_1 | DCMI_CR_JPEG  | \
 311              		.loc 1 251 18 view .LVU107
 312 0020 1168     		ldr	r1, [r2]
 251:Drivers/STM32U5xx_HAL_Driver/Src/stm32u5xx_hal_dcmi.c ****                            DCMI_CR_EDM_1  | DCMI_CR_FCRC_0 | DCMI_CR_FCRC_1 | DCMI_CR_JPEG  | \
 313              		.loc 1 251 23 view .LVU108
 314 0022 1E4B     		ldr	r3, .L26
 315 0024 0B40     		ands	r3, r3, r1
 316 0026 1360     		str	r3, [r2]
 256:Drivers/STM32U5xx_HAL_Driver/Src/stm32u5xx_hal_dcmi.c ****                                     hdcmi->Init.VSPolarity  | hdcmi->Init.HSPolarity  | \
 317              		.loc 1 256 3 is_stmt 1 view .LVU109
 256:Drivers/STM32U5xx_HAL_Driver/Src/stm32u5xx_hal_dcmi.c ****                                     hdcmi->Init.VSPolarity  | hdcmi->Init.HSPolarity  | \
ARM GAS  C:\usertemp\ccMMWJQW.s 			page 31


 318              		.loc 1 256 8 is_stmt 0 view .LVU110
 319 0028 2268     		ldr	r2, [r4]
 256:Drivers/STM32U5xx_HAL_Driver/Src/stm32u5xx_hal_dcmi.c ****                                     hdcmi->Init.VSPolarity  | hdcmi->Init.HSPolarity  | \
 320              		.loc 1 256 18 view .LVU111
 321 002a 1168     		ldr	r1, [r2]
 256:Drivers/STM32U5xx_HAL_Driver/Src/stm32u5xx_hal_dcmi.c ****                                     hdcmi->Init.VSPolarity  | hdcmi->Init.HSPolarity  | \
 322              		.loc 1 256 48 view .LVU112
 323 002c 6368     		ldr	r3, [r4, #4]
 256:Drivers/STM32U5xx_HAL_Driver/Src/stm32u5xx_hal_dcmi.c ****                                     hdcmi->Init.VSPolarity  | hdcmi->Init.HSPolarity  | \
 324              		.loc 1 256 74 view .LVU113
 325 002e 6069     		ldr	r0, [r4, #20]
 256:Drivers/STM32U5xx_HAL_Driver/Src/stm32u5xx_hal_dcmi.c ****                                     hdcmi->Init.VSPolarity  | hdcmi->Init.HSPolarity  | \
 326              		.loc 1 256 61 view .LVU114
 327 0030 0343     		orrs	r3, r3, r0
 257:Drivers/STM32U5xx_HAL_Driver/Src/stm32u5xx_hal_dcmi.c ****                                     hdcmi->Init.PCKPolarity | hdcmi->Init.ExtendedDataMode | \
 328              		.loc 1 257 48 view .LVU115
 329 0032 E068     		ldr	r0, [r4, #12]
 256:Drivers/STM32U5xx_HAL_Driver/Src/stm32u5xx_hal_dcmi.c ****                                     hdcmi->Init.VSPolarity  | hdcmi->Init.HSPolarity  | \
 330              		.loc 1 256 87 view .LVU116
 331 0034 0343     		orrs	r3, r3, r0
 257:Drivers/STM32U5xx_HAL_Driver/Src/stm32u5xx_hal_dcmi.c ****                                     hdcmi->Init.PCKPolarity | hdcmi->Init.ExtendedDataMode | \
 332              		.loc 1 257 74 view .LVU117
 333 0036 2069     		ldr	r0, [r4, #16]
 257:Drivers/STM32U5xx_HAL_Driver/Src/stm32u5xx_hal_dcmi.c ****                                     hdcmi->Init.PCKPolarity | hdcmi->Init.ExtendedDataMode | \
 334              		.loc 1 257 61 view .LVU118
 335 0038 0343     		orrs	r3, r3, r0
 258:Drivers/STM32U5xx_HAL_Driver/Src/stm32u5xx_hal_dcmi.c ****                                     hdcmi->Init.JPEGMode | hdcmi->Init.ByteSelectMode | \
 336              		.loc 1 258 48 view .LVU119
 337 003a A068     		ldr	r0, [r4, #8]
 257:Drivers/STM32U5xx_HAL_Driver/Src/stm32u5xx_hal_dcmi.c ****                                     hdcmi->Init.PCKPolarity | hdcmi->Init.ExtendedDataMode | \
 338              		.loc 1 257 87 view .LVU120
 339 003c 0343     		orrs	r3, r3, r0
 258:Drivers/STM32U5xx_HAL_Driver/Src/stm32u5xx_hal_dcmi.c ****                                     hdcmi->Init.JPEGMode | hdcmi->Init.ByteSelectMode | \
 340              		.loc 1 258 74 view .LVU121
 341 003e A069     		ldr	r0, [r4, #24]
 258:Drivers/STM32U5xx_HAL_Driver/Src/stm32u5xx_hal_dcmi.c ****                                     hdcmi->Init.JPEGMode | hdcmi->Init.ByteSelectMode | \
 342              		.loc 1 258 61 view .LVU122
 343 0040 0343     		orrs	r3, r3, r0
 259:Drivers/STM32U5xx_HAL_Driver/Src/stm32u5xx_hal_dcmi.c ****                                     hdcmi->Init.ByteSelectStart | hdcmi->Init.LineSelectMode | \
 344              		.loc 1 259 48 view .LVU123
 345 0042 206A     		ldr	r0, [r4, #32]
 258:Drivers/STM32U5xx_HAL_Driver/Src/stm32u5xx_hal_dcmi.c ****                                     hdcmi->Init.JPEGMode | hdcmi->Init.ByteSelectMode | \
 346              		.loc 1 258 92 view .LVU124
 347 0044 0343     		orrs	r3, r3, r0
 259:Drivers/STM32U5xx_HAL_Driver/Src/stm32u5xx_hal_dcmi.c ****                                     hdcmi->Init.ByteSelectStart | hdcmi->Init.LineSelectMode | \
 348              		.loc 1 259 71 view .LVU125
 349 0046 606A     		ldr	r0, [r4, #36]
 259:Drivers/STM32U5xx_HAL_Driver/Src/stm32u5xx_hal_dcmi.c ****                                     hdcmi->Init.ByteSelectStart | hdcmi->Init.LineSelectMode | \
 350              		.loc 1 259 58 view .LVU126
 351 0048 0343     		orrs	r3, r3, r0
 260:Drivers/STM32U5xx_HAL_Driver/Src/stm32u5xx_hal_dcmi.c ****                                     hdcmi->Init.LineSelectStart);
 352              		.loc 1 260 48 view .LVU127
 353 004a A06A     		ldr	r0, [r4, #40]
 259:Drivers/STM32U5xx_HAL_Driver/Src/stm32u5xx_hal_dcmi.c ****                                     hdcmi->Init.ByteSelectStart | hdcmi->Init.LineSelectMode | \
 354              		.loc 1 259 87 view .LVU128
 355 004c 0343     		orrs	r3, r3, r0
 260:Drivers/STM32U5xx_HAL_Driver/Src/stm32u5xx_hal_dcmi.c ****                                     hdcmi->Init.LineSelectStart);
ARM GAS  C:\usertemp\ccMMWJQW.s 			page 32


 356              		.loc 1 260 78 view .LVU129
 357 004e E06A     		ldr	r0, [r4, #44]
 260:Drivers/STM32U5xx_HAL_Driver/Src/stm32u5xx_hal_dcmi.c ****                                     hdcmi->Init.LineSelectStart);
 358              		.loc 1 260 65 view .LVU130
 359 0050 0343     		orrs	r3, r3, r0
 261:Drivers/STM32U5xx_HAL_Driver/Src/stm32u5xx_hal_dcmi.c **** 
 360              		.loc 1 261 48 view .LVU131
 361 0052 206B     		ldr	r0, [r4, #48]
 260:Drivers/STM32U5xx_HAL_Driver/Src/stm32u5xx_hal_dcmi.c ****                                     hdcmi->Init.LineSelectStart);
 362              		.loc 1 260 94 view .LVU132
 363 0054 0343     		orrs	r3, r3, r0
 256:Drivers/STM32U5xx_HAL_Driver/Src/stm32u5xx_hal_dcmi.c ****                                     hdcmi->Init.VSPolarity  | hdcmi->Init.HSPolarity  | \
 364              		.loc 1 256 23 view .LVU133
 365 0056 0B43     		orrs	r3, r3, r1
 366 0058 1360     		str	r3, [r2]
 263:Drivers/STM32U5xx_HAL_Driver/Src/stm32u5xx_hal_dcmi.c ****   {
 367              		.loc 1 263 3 is_stmt 1 view .LVU134
 263:Drivers/STM32U5xx_HAL_Driver/Src/stm32u5xx_hal_dcmi.c ****   {
 368              		.loc 1 263 18 is_stmt 0 view .LVU135
 369 005a 6368     		ldr	r3, [r4, #4]
 263:Drivers/STM32U5xx_HAL_Driver/Src/stm32u5xx_hal_dcmi.c ****   {
 370              		.loc 1 263 6 view .LVU136
 371 005c 102B     		cmp	r3, #16
 372 005e 0DD0     		beq	.L25
 373              	.L18:
 273:Drivers/STM32U5xx_HAL_Driver/Src/stm32u5xx_hal_dcmi.c **** 
 374              		.loc 1 273 3 is_stmt 1 view .LVU137
 375 0060 2268     		ldr	r2, [r4]
 376 0062 D368     		ldr	r3, [r2, #12]
 377 0064 43F01E03 		orr	r3, r3, #30
 378 0068 D360     		str	r3, [r2, #12]
 276:Drivers/STM32U5xx_HAL_Driver/Src/stm32u5xx_hal_dcmi.c **** 
 379              		.loc 1 276 3 view .LVU138
 276:Drivers/STM32U5xx_HAL_Driver/Src/stm32u5xx_hal_dcmi.c **** 
 380              		.loc 1 276 20 is_stmt 0 view .LVU139
 381 006a 0020     		movs	r0, #0
 382 006c E064     		str	r0, [r4, #76]
 279:Drivers/STM32U5xx_HAL_Driver/Src/stm32u5xx_hal_dcmi.c **** 
 383              		.loc 1 279 3 is_stmt 1 view .LVU140
 279:Drivers/STM32U5xx_HAL_Driver/Src/stm32u5xx_hal_dcmi.c **** 
 384              		.loc 1 279 17 is_stmt 0 view .LVU141
 385 006e 0123     		movs	r3, #1
 386 0070 84F83530 		strb	r3, [r4, #53]
 281:Drivers/STM32U5xx_HAL_Driver/Src/stm32u5xx_hal_dcmi.c **** }
 387              		.loc 1 281 3 is_stmt 1 view .LVU142
 282:Drivers/STM32U5xx_HAL_Driver/Src/stm32u5xx_hal_dcmi.c **** 
 388              		.loc 1 282 1 is_stmt 0 view .LVU143
 389 0074 10BD     		pop	{r4, pc}
 390              	.LVL28:
 391              	.L24:
 237:Drivers/STM32U5xx_HAL_Driver/Src/stm32u5xx_hal_dcmi.c **** #endif /* (USE_HAL_DCMI_REGISTER_CALLBACKS) */
 392              		.loc 1 237 5 is_stmt 1 view .LVU144
 393 0076 FFF7FEFF 		bl	HAL_DCMI_MspInit
 394              	.LVL29:
 237:Drivers/STM32U5xx_HAL_Driver/Src/stm32u5xx_hal_dcmi.c **** #endif /* (USE_HAL_DCMI_REGISTER_CALLBACKS) */
 395              		.loc 1 237 5 is_stmt 0 view .LVU145
 396 007a C9E7     		b	.L16
ARM GAS  C:\usertemp\ccMMWJQW.s 			page 33


 397              	.L25:
 265:Drivers/STM32U5xx_HAL_Driver/Src/stm32u5xx_hal_dcmi.c ****                              ((uint32_t)hdcmi->Init.SyncroCode.LineStartCode << DCMI_ESCR_LSC_Pos) 
 398              		.loc 1 265 5 is_stmt 1 view .LVU146
 265:Drivers/STM32U5xx_HAL_Driver/Src/stm32u5xx_hal_dcmi.c ****                              ((uint32_t)hdcmi->Init.SyncroCode.LineStartCode << DCMI_ESCR_LSC_Pos) 
 399              		.loc 1 265 63 is_stmt 0 view .LVU147
 400 007c 237F     		ldrb	r3, [r4, #28]	@ zero_extendqisi2
 266:Drivers/STM32U5xx_HAL_Driver/Src/stm32u5xx_hal_dcmi.c ****                              ((uint32_t)hdcmi->Init.SyncroCode.LineEndCode << DCMI_ESCR_LEC_Pos) | 
 401              		.loc 1 266 63 view .LVU148
 402 007e 627F     		ldrb	r2, [r4, #29]	@ zero_extendqisi2
 265:Drivers/STM32U5xx_HAL_Driver/Src/stm32u5xx_hal_dcmi.c ****                              ((uint32_t)hdcmi->Init.SyncroCode.LineStartCode << DCMI_ESCR_LSC_Pos) 
 403              		.loc 1 265 83 view .LVU149
 404 0080 43EA0223 		orr	r3, r3, r2, lsl #8
 267:Drivers/STM32U5xx_HAL_Driver/Src/stm32u5xx_hal_dcmi.c ****                              ((uint32_t)hdcmi->Init.SyncroCode.FrameEndCode << DCMI_ESCR_FEC_Pos));
 405              		.loc 1 267 63 view .LVU150
 406 0084 A27F     		ldrb	r2, [r4, #30]	@ zero_extendqisi2
 266:Drivers/STM32U5xx_HAL_Driver/Src/stm32u5xx_hal_dcmi.c ****                              ((uint32_t)hdcmi->Init.SyncroCode.LineEndCode << DCMI_ESCR_LEC_Pos) | 
 407              		.loc 1 266 100 view .LVU151
 408 0086 43EA0243 		orr	r3, r3, r2, lsl #16
 268:Drivers/STM32U5xx_HAL_Driver/Src/stm32u5xx_hal_dcmi.c **** 
 409              		.loc 1 268 63 view .LVU152
 410 008a E17F     		ldrb	r1, [r4, #31]	@ zero_extendqisi2
 265:Drivers/STM32U5xx_HAL_Driver/Src/stm32u5xx_hal_dcmi.c ****                              ((uint32_t)hdcmi->Init.SyncroCode.LineStartCode << DCMI_ESCR_LSC_Pos) 
 411              		.loc 1 265 10 view .LVU153
 412 008c 2268     		ldr	r2, [r4]
 267:Drivers/STM32U5xx_HAL_Driver/Src/stm32u5xx_hal_dcmi.c ****                              ((uint32_t)hdcmi->Init.SyncroCode.FrameEndCode << DCMI_ESCR_FEC_Pos));
 413              		.loc 1 267 98 view .LVU154
 414 008e 43EA0163 		orr	r3, r3, r1, lsl #24
 265:Drivers/STM32U5xx_HAL_Driver/Src/stm32u5xx_hal_dcmi.c ****                              ((uint32_t)hdcmi->Init.SyncroCode.LineStartCode << DCMI_ESCR_LSC_Pos) 
 415              		.loc 1 265 27 view .LVU155
 416 0092 9361     		str	r3, [r2, #24]
 417 0094 E4E7     		b	.L18
 418              	.LVL30:
 419              	.L19:
 420              	.LCFI5:
 421              		.cfi_def_cfa_offset 0
 422              		.cfi_restore 4
 423              		.cfi_restore 14
 200:Drivers/STM32U5xx_HAL_Driver/Src/stm32u5xx_hal_dcmi.c ****   }
 424              		.loc 1 200 12 view .LVU156
 425 0096 0120     		movs	r0, #1
 426              	.LVL31:
 282:Drivers/STM32U5xx_HAL_Driver/Src/stm32u5xx_hal_dcmi.c **** 
 427              		.loc 1 282 1 view .LVU157
 428 0098 7047     		bx	lr
 429              	.L27:
 430 009a 00BF     		.align	2
 431              	.L26:
 432 009c 07F0E0FF 		.word	-2035705
 433              		.cfi_endproc
 434              	.LFE157:
 436              		.section	.text.HAL_DCMI_MspDeInit,"ax",%progbits
 437              		.align	1
 438              		.weak	HAL_DCMI_MspDeInit
 439              		.syntax unified
 440              		.thumb
 441              		.thumb_func
 443              	HAL_DCMI_MspDeInit:
ARM GAS  C:\usertemp\ccMMWJQW.s 			page 34


 444              	.LVL32:
 445              	.LFB160:
 341:Drivers/STM32U5xx_HAL_Driver/Src/stm32u5xx_hal_dcmi.c ****   /* Prevent unused argument(s) compilation warning */
 446              		.loc 1 341 1 is_stmt 1 view -0
 447              		.cfi_startproc
 448              		@ args = 0, pretend = 0, frame = 0
 449              		@ frame_needed = 0, uses_anonymous_args = 0
 450              		@ link register save eliminated.
 343:Drivers/STM32U5xx_HAL_Driver/Src/stm32u5xx_hal_dcmi.c **** 
 451              		.loc 1 343 3 view .LVU159
 348:Drivers/STM32U5xx_HAL_Driver/Src/stm32u5xx_hal_dcmi.c **** 
 452              		.loc 1 348 1 is_stmt 0 view .LVU160
 453 0000 7047     		bx	lr
 454              		.cfi_endproc
 455              	.LFE160:
 457              		.section	.text.HAL_DCMI_DeInit,"ax",%progbits
 458              		.align	1
 459              		.global	HAL_DCMI_DeInit
 460              		.syntax unified
 461              		.thumb
 462              		.thumb_func
 464              	HAL_DCMI_DeInit:
 465              	.LVL33:
 466              	.LFB158:
 293:Drivers/STM32U5xx_HAL_Driver/Src/stm32u5xx_hal_dcmi.c **** #if (USE_HAL_DCMI_REGISTER_CALLBACKS == 1)
 467              		.loc 1 293 1 is_stmt 1 view -0
 468              		.cfi_startproc
 469              		@ args = 0, pretend = 0, frame = 0
 470              		@ frame_needed = 0, uses_anonymous_args = 0
 293:Drivers/STM32U5xx_HAL_Driver/Src/stm32u5xx_hal_dcmi.c **** #if (USE_HAL_DCMI_REGISTER_CALLBACKS == 1)
 471              		.loc 1 293 1 is_stmt 0 view .LVU162
 472 0000 10B5     		push	{r4, lr}
 473              	.LCFI6:
 474              		.cfi_def_cfa_offset 8
 475              		.cfi_offset 4, -8
 476              		.cfi_offset 14, -4
 477 0002 0446     		mov	r4, r0
 303:Drivers/STM32U5xx_HAL_Driver/Src/stm32u5xx_hal_dcmi.c **** #endif /* (USE_HAL_DCMI_REGISTER_CALLBACKS) */
 478              		.loc 1 303 3 is_stmt 1 view .LVU163
 479 0004 FFF7FEFF 		bl	HAL_DCMI_MspDeInit
 480              	.LVL34:
 307:Drivers/STM32U5xx_HAL_Driver/Src/stm32u5xx_hal_dcmi.c **** 
 481              		.loc 1 307 3 view .LVU164
 307:Drivers/STM32U5xx_HAL_Driver/Src/stm32u5xx_hal_dcmi.c **** 
 482              		.loc 1 307 20 is_stmt 0 view .LVU165
 483 0008 0020     		movs	r0, #0
 484 000a E064     		str	r0, [r4, #76]
 310:Drivers/STM32U5xx_HAL_Driver/Src/stm32u5xx_hal_dcmi.c **** 
 485              		.loc 1 310 3 is_stmt 1 view .LVU166
 310:Drivers/STM32U5xx_HAL_Driver/Src/stm32u5xx_hal_dcmi.c **** 
 486              		.loc 1 310 16 is_stmt 0 view .LVU167
 487 000c 84F83500 		strb	r0, [r4, #53]
 313:Drivers/STM32U5xx_HAL_Driver/Src/stm32u5xx_hal_dcmi.c **** 
 488              		.loc 1 313 3 is_stmt 1 view .LVU168
 313:Drivers/STM32U5xx_HAL_Driver/Src/stm32u5xx_hal_dcmi.c **** 
 489              		.loc 1 313 3 view .LVU169
 490 0010 84F83400 		strb	r0, [r4, #52]
ARM GAS  C:\usertemp\ccMMWJQW.s 			page 35


 313:Drivers/STM32U5xx_HAL_Driver/Src/stm32u5xx_hal_dcmi.c **** 
 491              		.loc 1 313 3 view .LVU170
 315:Drivers/STM32U5xx_HAL_Driver/Src/stm32u5xx_hal_dcmi.c **** }
 492              		.loc 1 315 3 view .LVU171
 316:Drivers/STM32U5xx_HAL_Driver/Src/stm32u5xx_hal_dcmi.c **** 
 493              		.loc 1 316 1 is_stmt 0 view .LVU172
 494 0014 10BD     		pop	{r4, pc}
 316:Drivers/STM32U5xx_HAL_Driver/Src/stm32u5xx_hal_dcmi.c **** 
 495              		.loc 1 316 1 view .LVU173
 496              		.cfi_endproc
 497              	.LFE158:
 499              		.section	.text.HAL_DCMI_Start_DMA,"ax",%progbits
 500              		.align	1
 501              		.global	HAL_DCMI_Start_DMA
 502              		.syntax unified
 503              		.thumb
 504              		.thumb_func
 506              	HAL_DCMI_Start_DMA:
 507              	.LVL35:
 508              	.LFB161:
 380:Drivers/STM32U5xx_HAL_Driver/Src/stm32u5xx_hal_dcmi.c ****   uint32_t tmp_length = Length;
 509              		.loc 1 380 1 is_stmt 1 view -0
 510              		.cfi_startproc
 511              		@ args = 0, pretend = 0, frame = 0
 512              		@ frame_needed = 0, uses_anonymous_args = 0
 380:Drivers/STM32U5xx_HAL_Driver/Src/stm32u5xx_hal_dcmi.c ****   uint32_t tmp_length = Length;
 513              		.loc 1 380 1 is_stmt 0 view .LVU175
 514 0000 38B5     		push	{r3, r4, r5, lr}
 515              	.LCFI7:
 516              		.cfi_def_cfa_offset 16
 517              		.cfi_offset 3, -16
 518              		.cfi_offset 4, -12
 519              		.cfi_offset 5, -8
 520              		.cfi_offset 14, -4
 521 0002 0446     		mov	r4, r0
 381:Drivers/STM32U5xx_HAL_Driver/Src/stm32u5xx_hal_dcmi.c ****   HAL_StatusTypeDef status = HAL_OK;
 522              		.loc 1 381 3 is_stmt 1 view .LVU176
 523              	.LVL36:
 382:Drivers/STM32U5xx_HAL_Driver/Src/stm32u5xx_hal_dcmi.c ****   uint32_t cllr_offset;
 524              		.loc 1 382 3 view .LVU177
 383:Drivers/STM32U5xx_HAL_Driver/Src/stm32u5xx_hal_dcmi.c ****   uint32_t tmp1;
 525              		.loc 1 383 3 view .LVU178
 384:Drivers/STM32U5xx_HAL_Driver/Src/stm32u5xx_hal_dcmi.c ****   uint32_t tmp2;
 526              		.loc 1 384 3 view .LVU179
 385:Drivers/STM32U5xx_HAL_Driver/Src/stm32u5xx_hal_dcmi.c **** 
 527              		.loc 1 385 3 view .LVU180
 388:Drivers/STM32U5xx_HAL_Driver/Src/stm32u5xx_hal_dcmi.c **** 
 528              		.loc 1 388 3 view .LVU181
 391:Drivers/STM32U5xx_HAL_Driver/Src/stm32u5xx_hal_dcmi.c **** 
 529              		.loc 1 391 3 view .LVU182
 391:Drivers/STM32U5xx_HAL_Driver/Src/stm32u5xx_hal_dcmi.c **** 
 530              		.loc 1 391 3 view .LVU183
 531 0004 90F83400 		ldrb	r0, [r0, #52]	@ zero_extendqisi2
 532              	.LVL37:
 391:Drivers/STM32U5xx_HAL_Driver/Src/stm32u5xx_hal_dcmi.c **** 
 533              		.loc 1 391 3 is_stmt 0 view .LVU184
 534 0008 0128     		cmp	r0, #1
ARM GAS  C:\usertemp\ccMMWJQW.s 			page 36


 535 000a 00F0C980 		beq	.L44
 391:Drivers/STM32U5xx_HAL_Driver/Src/stm32u5xx_hal_dcmi.c **** 
 536              		.loc 1 391 3 is_stmt 1 discriminator 2 view .LVU185
 537 000e 0120     		movs	r0, #1
 538 0010 84F83400 		strb	r0, [r4, #52]
 391:Drivers/STM32U5xx_HAL_Driver/Src/stm32u5xx_hal_dcmi.c **** 
 539              		.loc 1 391 3 discriminator 2 view .LVU186
 394:Drivers/STM32U5xx_HAL_Driver/Src/stm32u5xx_hal_dcmi.c **** 
 540              		.loc 1 394 3 view .LVU187
 394:Drivers/STM32U5xx_HAL_Driver/Src/stm32u5xx_hal_dcmi.c **** 
 541              		.loc 1 394 16 is_stmt 0 view .LVU188
 542 0014 0220     		movs	r0, #2
 543 0016 84F83500 		strb	r0, [r4, #53]
 397:Drivers/STM32U5xx_HAL_Driver/Src/stm32u5xx_hal_dcmi.c **** 
 544              		.loc 1 397 3 is_stmt 1 view .LVU189
 545 001a 2568     		ldr	r5, [r4]
 546 001c 2868     		ldr	r0, [r5]
 547 001e 40F48040 		orr	r0, r0, #16384
 548 0022 2860     		str	r0, [r5]
 400:Drivers/STM32U5xx_HAL_Driver/Src/stm32u5xx_hal_dcmi.c ****   hdcmi->Instance->CR |= (uint32_t)(DCMI_Mode);
 549              		.loc 1 400 3 view .LVU190
 400:Drivers/STM32U5xx_HAL_Driver/Src/stm32u5xx_hal_dcmi.c ****   hdcmi->Instance->CR |= (uint32_t)(DCMI_Mode);
 550              		.loc 1 400 8 is_stmt 0 view .LVU191
 551 0024 2568     		ldr	r5, [r4]
 400:Drivers/STM32U5xx_HAL_Driver/Src/stm32u5xx_hal_dcmi.c ****   hdcmi->Instance->CR |= (uint32_t)(DCMI_Mode);
 552              		.loc 1 400 18 view .LVU192
 553 0026 2868     		ldr	r0, [r5]
 400:Drivers/STM32U5xx_HAL_Driver/Src/stm32u5xx_hal_dcmi.c ****   hdcmi->Instance->CR |= (uint32_t)(DCMI_Mode);
 554              		.loc 1 400 23 view .LVU193
 555 0028 20F00200 		bic	r0, r0, #2
 556 002c 2860     		str	r0, [r5]
 401:Drivers/STM32U5xx_HAL_Driver/Src/stm32u5xx_hal_dcmi.c **** 
 557              		.loc 1 401 3 is_stmt 1 view .LVU194
 401:Drivers/STM32U5xx_HAL_Driver/Src/stm32u5xx_hal_dcmi.c **** 
 558              		.loc 1 401 8 is_stmt 0 view .LVU195
 559 002e 2568     		ldr	r5, [r4]
 401:Drivers/STM32U5xx_HAL_Driver/Src/stm32u5xx_hal_dcmi.c **** 
 560              		.loc 1 401 18 view .LVU196
 561 0030 2868     		ldr	r0, [r5]
 401:Drivers/STM32U5xx_HAL_Driver/Src/stm32u5xx_hal_dcmi.c **** 
 562              		.loc 1 401 23 view .LVU197
 563 0032 0143     		orrs	r1, r1, r0
 564              	.LVL38:
 401:Drivers/STM32U5xx_HAL_Driver/Src/stm32u5xx_hal_dcmi.c **** 
 565              		.loc 1 401 23 view .LVU198
 566 0034 2960     		str	r1, [r5]
 404:Drivers/STM32U5xx_HAL_Driver/Src/stm32u5xx_hal_dcmi.c **** 
 567              		.loc 1 404 3 is_stmt 1 view .LVU199
 404:Drivers/STM32U5xx_HAL_Driver/Src/stm32u5xx_hal_dcmi.c **** 
 568              		.loc 1 404 8 is_stmt 0 view .LVU200
 569 0036 A16C     		ldr	r1, [r4, #72]
 404:Drivers/STM32U5xx_HAL_Driver/Src/stm32u5xx_hal_dcmi.c **** 
 570              		.loc 1 404 39 view .LVU201
 571 0038 5A48     		ldr	r0, .L47
 572 003a 0866     		str	r0, [r1, #96]
 407:Drivers/STM32U5xx_HAL_Driver/Src/stm32u5xx_hal_dcmi.c **** 
 573              		.loc 1 407 3 is_stmt 1 view .LVU202
ARM GAS  C:\usertemp\ccMMWJQW.s 			page 37


 407:Drivers/STM32U5xx_HAL_Driver/Src/stm32u5xx_hal_dcmi.c **** 
 574              		.loc 1 407 8 is_stmt 0 view .LVU203
 575 003c A16C     		ldr	r1, [r4, #72]
 407:Drivers/STM32U5xx_HAL_Driver/Src/stm32u5xx_hal_dcmi.c **** 
 576              		.loc 1 407 40 view .LVU204
 577 003e 5A48     		ldr	r0, .L47+4
 578 0040 8866     		str	r0, [r1, #104]
 410:Drivers/STM32U5xx_HAL_Driver/Src/stm32u5xx_hal_dcmi.c **** 
 579              		.loc 1 410 3 is_stmt 1 view .LVU205
 410:Drivers/STM32U5xx_HAL_Driver/Src/stm32u5xx_hal_dcmi.c **** 
 580              		.loc 1 410 8 is_stmt 0 view .LVU206
 581 0042 A06C     		ldr	r0, [r4, #72]
 410:Drivers/STM32U5xx_HAL_Driver/Src/stm32u5xx_hal_dcmi.c **** 
 582              		.loc 1 410 40 view .LVU207
 583 0044 0021     		movs	r1, #0
 584 0046 C166     		str	r1, [r0, #108]
 413:Drivers/STM32U5xx_HAL_Driver/Src/stm32u5xx_hal_dcmi.c ****   hdcmi->XferTransferNumber = 0;
 585              		.loc 1 413 3 is_stmt 1 view .LVU208
 413:Drivers/STM32U5xx_HAL_Driver/Src/stm32u5xx_hal_dcmi.c ****   hdcmi->XferTransferNumber = 0;
 586              		.loc 1 413 20 is_stmt 0 view .LVU209
 587 0048 A163     		str	r1, [r4, #56]
 414:Drivers/STM32U5xx_HAL_Driver/Src/stm32u5xx_hal_dcmi.c ****   hdcmi->XferSize = 0;
 588              		.loc 1 414 3 is_stmt 1 view .LVU210
 414:Drivers/STM32U5xx_HAL_Driver/Src/stm32u5xx_hal_dcmi.c ****   hdcmi->XferSize = 0;
 589              		.loc 1 414 29 is_stmt 0 view .LVU211
 590 004a 2164     		str	r1, [r4, #64]
 415:Drivers/STM32U5xx_HAL_Driver/Src/stm32u5xx_hal_dcmi.c ****   hdcmi->pBuffPtr = 0;
 591              		.loc 1 415 3 is_stmt 1 view .LVU212
 415:Drivers/STM32U5xx_HAL_Driver/Src/stm32u5xx_hal_dcmi.c ****   hdcmi->pBuffPtr = 0;
 592              		.loc 1 415 19 is_stmt 0 view .LVU213
 593 004c E163     		str	r1, [r4, #60]
 416:Drivers/STM32U5xx_HAL_Driver/Src/stm32u5xx_hal_dcmi.c **** 
 594              		.loc 1 416 3 is_stmt 1 view .LVU214
 416:Drivers/STM32U5xx_HAL_Driver/Src/stm32u5xx_hal_dcmi.c **** 
 595              		.loc 1 416 19 is_stmt 0 view .LVU215
 596 004e 6164     		str	r1, [r4, #68]
 419:Drivers/STM32U5xx_HAL_Driver/Src/stm32u5xx_hal_dcmi.c **** 
 597              		.loc 1 419 3 is_stmt 1 view .LVU216
 419:Drivers/STM32U5xx_HAL_Driver/Src/stm32u5xx_hal_dcmi.c **** 
 598              		.loc 1 419 14 is_stmt 0 view .LVU217
 599 0050 9B00     		lsls	r3, r3, #2
 600              	.LVL39:
 421:Drivers/STM32U5xx_HAL_Driver/Src/stm32u5xx_hal_dcmi.c ****   {
 601              		.loc 1 421 3 is_stmt 1 view .LVU218
 421:Drivers/STM32U5xx_HAL_Driver/Src/stm32u5xx_hal_dcmi.c ****   {
 602              		.loc 1 421 6 is_stmt 0 view .LVU219
 603 0052 B3F5803F 		cmp	r3, #65536
 604 0056 2FD2     		bcs	.L33
 425:Drivers/STM32U5xx_HAL_Driver/Src/stm32u5xx_hal_dcmi.c ****     {
 605              		.loc 1 425 5 is_stmt 1 view .LVU220
 425:Drivers/STM32U5xx_HAL_Driver/Src/stm32u5xx_hal_dcmi.c ****     {
 606              		.loc 1 425 15 is_stmt 0 view .LVU221
 607 0058 A06C     		ldr	r0, [r4, #72]
 425:Drivers/STM32U5xx_HAL_Driver/Src/stm32u5xx_hal_dcmi.c ****     {
 608              		.loc 1 425 27 view .LVU222
 609 005a 016D     		ldr	r1, [r0, #80]
 425:Drivers/STM32U5xx_HAL_Driver/Src/stm32u5xx_hal_dcmi.c ****     {
ARM GAS  C:\usertemp\ccMMWJQW.s 			page 38


 610              		.loc 1 425 8 view .LVU223
 611 005c 11F0800F 		tst	r1, #128
 612 0060 1BD0     		beq	.L34
 427:Drivers/STM32U5xx_HAL_Driver/Src/stm32u5xx_hal_dcmi.c ****       {
 613              		.loc 1 427 7 is_stmt 1 view .LVU224
 427:Drivers/STM32U5xx_HAL_Driver/Src/stm32u5xx_hal_dcmi.c ****       {
 614              		.loc 1 427 29 is_stmt 0 view .LVU225
 615 0062 416F     		ldr	r1, [r0, #116]
 427:Drivers/STM32U5xx_HAL_Driver/Src/stm32u5xx_hal_dcmi.c ****       {
 616              		.loc 1 427 10 view .LVU226
 617 0064 81B1     		cbz	r1, .L35
 427:Drivers/STM32U5xx_HAL_Driver/Src/stm32u5xx_hal_dcmi.c ****       {
 618              		.loc 1 427 92 discriminator 1 view .LVU227
 619 0066 0968     		ldr	r1, [r1]
 427:Drivers/STM32U5xx_HAL_Driver/Src/stm32u5xx_hal_dcmi.c ****       {
 620              		.loc 1 427 54 discriminator 1 view .LVU228
 621 0068 71B1     		cbz	r1, .L35
 432:Drivers/STM32U5xx_HAL_Driver/Src/stm32u5xx_hal_dcmi.c ****         /* Set DMA source address      */
 622              		.loc 1 432 9 is_stmt 1 view .LVU229
 432:Drivers/STM32U5xx_HAL_Driver/Src/stm32u5xx_hal_dcmi.c ****         /* Set DMA source address      */
 623              		.loc 1 432 91 is_stmt 0 view .LVU230
 624 006a 8B60     		str	r3, [r1, #8]
 434:Drivers/STM32U5xx_HAL_Driver/Src/stm32u5xx_hal_dcmi.c ****             (uint32_t)&hdcmi->Instance->DR;
 625              		.loc 1 434 9 is_stmt 1 view .LVU231
 435:Drivers/STM32U5xx_HAL_Driver/Src/stm32u5xx_hal_dcmi.c ****         /* Set DMA destination address */
 626              		.loc 1 435 29 is_stmt 0 view .LVU232
 627 006c 2368     		ldr	r3, [r4]
 628              	.LVL40:
 435:Drivers/STM32U5xx_HAL_Driver/Src/stm32u5xx_hal_dcmi.c ****         /* Set DMA destination address */
 629              		.loc 1 435 23 view .LVU233
 630 006e 2833     		adds	r3, r3, #40
 434:Drivers/STM32U5xx_HAL_Driver/Src/stm32u5xx_hal_dcmi.c ****             (uint32_t)&hdcmi->Instance->DR;
 631              		.loc 1 434 14 view .LVU234
 632 0070 A16C     		ldr	r1, [r4, #72]
 633              	.LVL41:
 434:Drivers/STM32U5xx_HAL_Driver/Src/stm32u5xx_hal_dcmi.c ****             (uint32_t)&hdcmi->Instance->DR;
 634              		.loc 1 434 26 view .LVU235
 635 0072 496F     		ldr	r1, [r1, #116]
 434:Drivers/STM32U5xx_HAL_Driver/Src/stm32u5xx_hal_dcmi.c ****             (uint32_t)&hdcmi->Instance->DR;
 636              		.loc 1 434 43 view .LVU236
 637 0074 0968     		ldr	r1, [r1]
 434:Drivers/STM32U5xx_HAL_Driver/Src/stm32u5xx_hal_dcmi.c ****             (uint32_t)&hdcmi->Instance->DR;
 638              		.loc 1 434 91 view .LVU237
 639 0076 CB60     		str	r3, [r1, #12]
 437:Drivers/STM32U5xx_HAL_Driver/Src/stm32u5xx_hal_dcmi.c **** 
 640              		.loc 1 437 9 is_stmt 1 view .LVU238
 437:Drivers/STM32U5xx_HAL_Driver/Src/stm32u5xx_hal_dcmi.c **** 
 641              		.loc 1 437 14 is_stmt 0 view .LVU239
 642 0078 A36C     		ldr	r3, [r4, #72]
 437:Drivers/STM32U5xx_HAL_Driver/Src/stm32u5xx_hal_dcmi.c **** 
 643              		.loc 1 437 26 view .LVU240
 644 007a 5B6F     		ldr	r3, [r3, #116]
 437:Drivers/STM32U5xx_HAL_Driver/Src/stm32u5xx_hal_dcmi.c **** 
 645              		.loc 1 437 43 view .LVU241
 646 007c 1B68     		ldr	r3, [r3]
 437:Drivers/STM32U5xx_HAL_Driver/Src/stm32u5xx_hal_dcmi.c **** 
 647              		.loc 1 437 91 view .LVU242
ARM GAS  C:\usertemp\ccMMWJQW.s 			page 39


 648 007e 1A61     		str	r2, [r3, #16]
 439:Drivers/STM32U5xx_HAL_Driver/Src/stm32u5xx_hal_dcmi.c ****       }
 649              		.loc 1 439 9 is_stmt 1 view .LVU243
 439:Drivers/STM32U5xx_HAL_Driver/Src/stm32u5xx_hal_dcmi.c ****       }
 650              		.loc 1 439 18 is_stmt 0 view .LVU244
 651 0080 A06C     		ldr	r0, [r4, #72]
 652 0082 FFF7FEFF 		bl	HAL_DMAEx_List_Start_IT
 653              	.LVL42:
 439:Drivers/STM32U5xx_HAL_Driver/Src/stm32u5xx_hal_dcmi.c ****       }
 654              		.loc 1 439 16 view .LVU245
 655 0086 0CE0     		b	.L36
 656              	.LVL43:
 657              	.L35:
 444:Drivers/STM32U5xx_HAL_Driver/Src/stm32u5xx_hal_dcmi.c ****         /* Change DCMI state */
 658              		.loc 1 444 9 is_stmt 1 view .LVU246
 444:Drivers/STM32U5xx_HAL_Driver/Src/stm32u5xx_hal_dcmi.c ****         /* Change DCMI state */
 659              		.loc 1 444 26 is_stmt 0 view .LVU247
 660 0088 4023     		movs	r3, #64
 661              	.LVL44:
 444:Drivers/STM32U5xx_HAL_Driver/Src/stm32u5xx_hal_dcmi.c ****         /* Change DCMI state */
 662              		.loc 1 444 26 view .LVU248
 663 008a E364     		str	r3, [r4, #76]
 446:Drivers/STM32U5xx_HAL_Driver/Src/stm32u5xx_hal_dcmi.c ****         /* Release Lock */
 664              		.loc 1 446 9 is_stmt 1 view .LVU249
 446:Drivers/STM32U5xx_HAL_Driver/Src/stm32u5xx_hal_dcmi.c ****         /* Release Lock */
 665              		.loc 1 446 22 is_stmt 0 view .LVU250
 666 008c 0123     		movs	r3, #1
 667 008e 84F83530 		strb	r3, [r4, #53]
 448:Drivers/STM32U5xx_HAL_Driver/Src/stm32u5xx_hal_dcmi.c ****         /* Return function status */
 668              		.loc 1 448 9 is_stmt 1 view .LVU251
 448:Drivers/STM32U5xx_HAL_Driver/Src/stm32u5xx_hal_dcmi.c ****         /* Return function status */
 669              		.loc 1 448 9 view .LVU252
 670 0092 0023     		movs	r3, #0
 671 0094 84F83430 		strb	r3, [r4, #52]
 448:Drivers/STM32U5xx_HAL_Driver/Src/stm32u5xx_hal_dcmi.c ****         /* Return function status */
 672              		.loc 1 448 9 view .LVU253
 450:Drivers/STM32U5xx_HAL_Driver/Src/stm32u5xx_hal_dcmi.c ****       }
 673              		.loc 1 450 9 view .LVU254
 674              	.LVL45:
 567:Drivers/STM32U5xx_HAL_Driver/Src/stm32u5xx_hal_dcmi.c ****   {
 675              		.loc 1 567 3 view .LVU255
 676 0098 79E0     		b	.L37
 677              	.LVL46:
 678              	.L34:
 455:Drivers/STM32U5xx_HAL_Driver/Src/stm32u5xx_hal_dcmi.c ****     }
 679              		.loc 1 455 7 view .LVU256
 455:Drivers/STM32U5xx_HAL_Driver/Src/stm32u5xx_hal_dcmi.c ****     }
 680              		.loc 1 455 68 is_stmt 0 view .LVU257
 681 009a 2168     		ldr	r1, [r4]
 455:Drivers/STM32U5xx_HAL_Driver/Src/stm32u5xx_hal_dcmi.c ****     }
 682              		.loc 1 455 16 view .LVU258
 683 009c 2831     		adds	r1, r1, #40
 684 009e FFF7FEFF 		bl	HAL_DMA_Start_IT
 685              	.LVL47:
 686              	.L36:
 567:Drivers/STM32U5xx_HAL_Driver/Src/stm32u5xx_hal_dcmi.c ****   {
 687              		.loc 1 567 3 is_stmt 1 view .LVU259
ARM GAS  C:\usertemp\ccMMWJQW.s 			page 40


 567:Drivers/STM32U5xx_HAL_Driver/Src/stm32u5xx_hal_dcmi.c ****   {
 688              		.loc 1 567 6 is_stmt 0 view .LVU260
 689 00a2 0028     		cmp	r0, #0
 690 00a4 73D1     		bne	.L37
 691              	.LVL48:
 692              	.L43:
 570:Drivers/STM32U5xx_HAL_Driver/Src/stm32u5xx_hal_dcmi.c **** 
 693              		.loc 1 570 5 is_stmt 1 view .LVU261
 570:Drivers/STM32U5xx_HAL_Driver/Src/stm32u5xx_hal_dcmi.c **** 
 694              		.loc 1 570 10 is_stmt 0 view .LVU262
 695 00a6 2268     		ldr	r2, [r4]
 570:Drivers/STM32U5xx_HAL_Driver/Src/stm32u5xx_hal_dcmi.c **** 
 696              		.loc 1 570 20 view .LVU263
 697 00a8 1368     		ldr	r3, [r2]
 570:Drivers/STM32U5xx_HAL_Driver/Src/stm32u5xx_hal_dcmi.c **** 
 698              		.loc 1 570 25 view .LVU264
 699 00aa 43F00103 		orr	r3, r3, #1
 700 00ae 1360     		str	r3, [r2]
 573:Drivers/STM32U5xx_HAL_Driver/Src/stm32u5xx_hal_dcmi.c ****   }
 701              		.loc 1 573 5 is_stmt 1 view .LVU265
 573:Drivers/STM32U5xx_HAL_Driver/Src/stm32u5xx_hal_dcmi.c ****   }
 702              		.loc 1 573 5 view .LVU266
 703 00b0 0023     		movs	r3, #0
 704 00b2 84F83430 		strb	r3, [r4, #52]
 573:Drivers/STM32U5xx_HAL_Driver/Src/stm32u5xx_hal_dcmi.c ****   }
 705              		.loc 1 573 5 view .LVU267
 706 00b6 72E0     		b	.L32
 707              	.LVL49:
 708              	.L33:
 464:Drivers/STM32U5xx_HAL_Driver/Src/stm32u5xx_hal_dcmi.c ****     hdcmi->XferSize = tmp_length;
 709              		.loc 1 464 5 view .LVU268
 464:Drivers/STM32U5xx_HAL_Driver/Src/stm32u5xx_hal_dcmi.c ****     hdcmi->XferSize = tmp_length;
 710              		.loc 1 464 22 is_stmt 0 view .LVU269
 711 00b8 0121     		movs	r1, #1
 712 00ba A163     		str	r1, [r4, #56]
 465:Drivers/STM32U5xx_HAL_Driver/Src/stm32u5xx_hal_dcmi.c ****     hdcmi->pBuffPtr = pData;
 713              		.loc 1 465 5 is_stmt 1 view .LVU270
 465:Drivers/STM32U5xx_HAL_Driver/Src/stm32u5xx_hal_dcmi.c ****     hdcmi->pBuffPtr = pData;
 714              		.loc 1 465 21 is_stmt 0 view .LVU271
 715 00bc E363     		str	r3, [r4, #60]
 466:Drivers/STM32U5xx_HAL_Driver/Src/stm32u5xx_hal_dcmi.c **** 
 716              		.loc 1 466 5 is_stmt 1 view .LVU272
 466:Drivers/STM32U5xx_HAL_Driver/Src/stm32u5xx_hal_dcmi.c **** 
 717              		.loc 1 466 21 is_stmt 0 view .LVU273
 718 00be 6264     		str	r2, [r4, #68]
 469:Drivers/STM32U5xx_HAL_Driver/Src/stm32u5xx_hal_dcmi.c ****     {
 719              		.loc 1 469 5 is_stmt 1 view .LVU274
 469:Drivers/STM32U5xx_HAL_Driver/Src/stm32u5xx_hal_dcmi.c ****     {
 720              		.loc 1 469 11 is_stmt 0 view .LVU275
 721 00c0 05E0     		b	.L38
 722              	.LVL50:
 723              	.L39:
 471:Drivers/STM32U5xx_HAL_Driver/Src/stm32u5xx_hal_dcmi.c ****       hdcmi->XferCount = hdcmi->XferCount * 2U;
 724              		.loc 1 471 7 is_stmt 1 view .LVU276
 471:Drivers/STM32U5xx_HAL_Driver/Src/stm32u5xx_hal_dcmi.c ****       hdcmi->XferCount = hdcmi->XferCount * 2U;
 725              		.loc 1 471 31 is_stmt 0 view .LVU277
 726 00c2 E36B     		ldr	r3, [r4, #60]
ARM GAS  C:\usertemp\ccMMWJQW.s 			page 41


 471:Drivers/STM32U5xx_HAL_Driver/Src/stm32u5xx_hal_dcmi.c ****       hdcmi->XferCount = hdcmi->XferCount * 2U;
 727              		.loc 1 471 42 view .LVU278
 728 00c4 5B08     		lsrs	r3, r3, #1
 471:Drivers/STM32U5xx_HAL_Driver/Src/stm32u5xx_hal_dcmi.c ****       hdcmi->XferCount = hdcmi->XferCount * 2U;
 729              		.loc 1 471 23 view .LVU279
 730 00c6 E363     		str	r3, [r4, #60]
 472:Drivers/STM32U5xx_HAL_Driver/Src/stm32u5xx_hal_dcmi.c ****     }
 731              		.loc 1 472 7 is_stmt 1 view .LVU280
 472:Drivers/STM32U5xx_HAL_Driver/Src/stm32u5xx_hal_dcmi.c ****     }
 732              		.loc 1 472 31 is_stmt 0 view .LVU281
 733 00c8 A36B     		ldr	r3, [r4, #56]
 472:Drivers/STM32U5xx_HAL_Driver/Src/stm32u5xx_hal_dcmi.c ****     }
 734              		.loc 1 472 43 view .LVU282
 735 00ca 5B00     		lsls	r3, r3, #1
 472:Drivers/STM32U5xx_HAL_Driver/Src/stm32u5xx_hal_dcmi.c ****     }
 736              		.loc 1 472 24 view .LVU283
 737 00cc A363     		str	r3, [r4, #56]
 738              	.L38:
 469:Drivers/STM32U5xx_HAL_Driver/Src/stm32u5xx_hal_dcmi.c ****     {
 739              		.loc 1 469 28 is_stmt 1 view .LVU284
 469:Drivers/STM32U5xx_HAL_Driver/Src/stm32u5xx_hal_dcmi.c ****     {
 740              		.loc 1 469 17 is_stmt 0 view .LVU285
 741 00ce E36B     		ldr	r3, [r4, #60]
 469:Drivers/STM32U5xx_HAL_Driver/Src/stm32u5xx_hal_dcmi.c ****     {
 742              		.loc 1 469 28 view .LVU286
 743 00d0 B3F5803F 		cmp	r3, #65536
 744 00d4 F5D2     		bcs	.L39
 476:Drivers/STM32U5xx_HAL_Driver/Src/stm32u5xx_hal_dcmi.c ****     hdcmi->XferTransferNumber = hdcmi->XferCount;
 745              		.loc 1 476 5 is_stmt 1 view .LVU287
 476:Drivers/STM32U5xx_HAL_Driver/Src/stm32u5xx_hal_dcmi.c ****     hdcmi->XferTransferNumber = hdcmi->XferCount;
 746              		.loc 1 476 30 is_stmt 0 view .LVU288
 747 00d6 A36B     		ldr	r3, [r4, #56]
 476:Drivers/STM32U5xx_HAL_Driver/Src/stm32u5xx_hal_dcmi.c ****     hdcmi->XferTransferNumber = hdcmi->XferCount;
 748              		.loc 1 476 42 view .LVU289
 749 00d8 013B     		subs	r3, r3, #1
 476:Drivers/STM32U5xx_HAL_Driver/Src/stm32u5xx_hal_dcmi.c ****     hdcmi->XferTransferNumber = hdcmi->XferCount;
 750              		.loc 1 476 22 view .LVU290
 751 00da A363     		str	r3, [r4, #56]
 477:Drivers/STM32U5xx_HAL_Driver/Src/stm32u5xx_hal_dcmi.c **** 
 752              		.loc 1 477 5 is_stmt 1 view .LVU291
 477:Drivers/STM32U5xx_HAL_Driver/Src/stm32u5xx_hal_dcmi.c **** 
 753              		.loc 1 477 38 is_stmt 0 view .LVU292
 754 00dc A36B     		ldr	r3, [r4, #56]
 477:Drivers/STM32U5xx_HAL_Driver/Src/stm32u5xx_hal_dcmi.c **** 
 755              		.loc 1 477 31 view .LVU293
 756 00de 2364     		str	r3, [r4, #64]
 479:Drivers/STM32U5xx_HAL_Driver/Src/stm32u5xx_hal_dcmi.c ****     {
 757              		.loc 1 479 5 is_stmt 1 view .LVU294
 479:Drivers/STM32U5xx_HAL_Driver/Src/stm32u5xx_hal_dcmi.c ****     {
 758              		.loc 1 479 15 is_stmt 0 view .LVU295
 759 00e0 A36C     		ldr	r3, [r4, #72]
 479:Drivers/STM32U5xx_HAL_Driver/Src/stm32u5xx_hal_dcmi.c ****     {
 760              		.loc 1 479 27 view .LVU296
 761 00e2 196D     		ldr	r1, [r3, #80]
 479:Drivers/STM32U5xx_HAL_Driver/Src/stm32u5xx_hal_dcmi.c ****     {
 762              		.loc 1 479 8 view .LVU297
 763 00e4 11F0800F 		tst	r1, #128
ARM GAS  C:\usertemp\ccMMWJQW.s 			page 42


 764 00e8 49D0     		beq	.L40
 481:Drivers/STM32U5xx_HAL_Driver/Src/stm32u5xx_hal_dcmi.c ****       {
 765              		.loc 1 481 7 is_stmt 1 view .LVU298
 481:Drivers/STM32U5xx_HAL_Driver/Src/stm32u5xx_hal_dcmi.c ****       {
 766              		.loc 1 481 29 is_stmt 0 view .LVU299
 767 00ea 5B6F     		ldr	r3, [r3, #116]
 481:Drivers/STM32U5xx_HAL_Driver/Src/stm32u5xx_hal_dcmi.c ****       {
 768              		.loc 1 481 10 view .LVU300
 769 00ec 002B     		cmp	r3, #0
 770 00ee 3DD0     		beq	.L41
 481:Drivers/STM32U5xx_HAL_Driver/Src/stm32u5xx_hal_dcmi.c ****       {
 771              		.loc 1 481 92 discriminator 1 view .LVU301
 772 00f0 1B68     		ldr	r3, [r3]
 481:Drivers/STM32U5xx_HAL_Driver/Src/stm32u5xx_hal_dcmi.c ****       {
 773              		.loc 1 481 54 discriminator 1 view .LVU302
 774 00f2 002B     		cmp	r3, #0
 775 00f4 3AD0     		beq	.L41
 486:Drivers/STM32U5xx_HAL_Driver/Src/stm32u5xx_hal_dcmi.c **** 
 776              		.loc 1 486 9 is_stmt 1 view .LVU303
 486:Drivers/STM32U5xx_HAL_Driver/Src/stm32u5xx_hal_dcmi.c **** 
 777              		.loc 1 486 98 is_stmt 0 view .LVU304
 778 00f6 E16B     		ldr	r1, [r4, #60]
 486:Drivers/STM32U5xx_HAL_Driver/Src/stm32u5xx_hal_dcmi.c **** 
 779              		.loc 1 486 91 view .LVU305
 780 00f8 9960     		str	r1, [r3, #8]
 489:Drivers/STM32U5xx_HAL_Driver/Src/stm32u5xx_hal_dcmi.c ****             (uint32_t)&hdcmi->Instance->DR;
 781              		.loc 1 489 9 is_stmt 1 view .LVU306
 490:Drivers/STM32U5xx_HAL_Driver/Src/stm32u5xx_hal_dcmi.c **** 
 782              		.loc 1 490 29 is_stmt 0 view .LVU307
 783 00fa 2368     		ldr	r3, [r4]
 490:Drivers/STM32U5xx_HAL_Driver/Src/stm32u5xx_hal_dcmi.c **** 
 784              		.loc 1 490 23 view .LVU308
 785 00fc 2833     		adds	r3, r3, #40
 489:Drivers/STM32U5xx_HAL_Driver/Src/stm32u5xx_hal_dcmi.c ****             (uint32_t)&hdcmi->Instance->DR;
 786              		.loc 1 489 14 view .LVU309
 787 00fe A16C     		ldr	r1, [r4, #72]
 489:Drivers/STM32U5xx_HAL_Driver/Src/stm32u5xx_hal_dcmi.c ****             (uint32_t)&hdcmi->Instance->DR;
 788              		.loc 1 489 26 view .LVU310
 789 0100 496F     		ldr	r1, [r1, #116]
 489:Drivers/STM32U5xx_HAL_Driver/Src/stm32u5xx_hal_dcmi.c ****             (uint32_t)&hdcmi->Instance->DR;
 790              		.loc 1 489 43 view .LVU311
 791 0102 0968     		ldr	r1, [r1]
 489:Drivers/STM32U5xx_HAL_Driver/Src/stm32u5xx_hal_dcmi.c ****             (uint32_t)&hdcmi->Instance->DR;
 792              		.loc 1 489 91 view .LVU312
 793 0104 CB60     		str	r3, [r1, #12]
 493:Drivers/STM32U5xx_HAL_Driver/Src/stm32u5xx_hal_dcmi.c **** 
 794              		.loc 1 493 9 is_stmt 1 view .LVU313
 493:Drivers/STM32U5xx_HAL_Driver/Src/stm32u5xx_hal_dcmi.c **** 
 795              		.loc 1 493 14 is_stmt 0 view .LVU314
 796 0106 A36C     		ldr	r3, [r4, #72]
 493:Drivers/STM32U5xx_HAL_Driver/Src/stm32u5xx_hal_dcmi.c **** 
 797              		.loc 1 493 26 view .LVU315
 798 0108 5B6F     		ldr	r3, [r3, #116]
 493:Drivers/STM32U5xx_HAL_Driver/Src/stm32u5xx_hal_dcmi.c **** 
 799              		.loc 1 493 43 view .LVU316
 800 010a 1B68     		ldr	r3, [r3]
 493:Drivers/STM32U5xx_HAL_Driver/Src/stm32u5xx_hal_dcmi.c **** 
ARM GAS  C:\usertemp\ccMMWJQW.s 			page 43


 801              		.loc 1 493 91 view .LVU317
 802 010c 1A61     		str	r2, [r3, #16]
 496:Drivers/STM32U5xx_HAL_Driver/Src/stm32u5xx_hal_dcmi.c **** 
 803              		.loc 1 496 9 is_stmt 1 view .LVU318
 496:Drivers/STM32U5xx_HAL_Driver/Src/stm32u5xx_hal_dcmi.c **** 
 804              		.loc 1 496 29 is_stmt 0 view .LVU319
 805 010e A36C     		ldr	r3, [r4, #72]
 496:Drivers/STM32U5xx_HAL_Driver/Src/stm32u5xx_hal_dcmi.c **** 
 806              		.loc 1 496 41 view .LVU320
 807 0110 5B6F     		ldr	r3, [r3, #116]
 496:Drivers/STM32U5xx_HAL_Driver/Src/stm32u5xx_hal_dcmi.c **** 
 808              		.loc 1 496 58 view .LVU321
 809 0112 1B68     		ldr	r3, [r3]
 496:Drivers/STM32U5xx_HAL_Driver/Src/stm32u5xx_hal_dcmi.c **** 
 810              		.loc 1 496 64 view .LVU322
 811 0114 196A     		ldr	r1, [r3, #32]
 496:Drivers/STM32U5xx_HAL_Driver/Src/stm32u5xx_hal_dcmi.c **** 
 812              		.loc 1 496 21 view .LVU323
 813 0116 C1F30221 		ubfx	r1, r1, #8, #3
 814              	.LVL51:
 499:Drivers/STM32U5xx_HAL_Driver/Src/stm32u5xx_hal_dcmi.c ****         {
 815              		.loc 1 499 9 is_stmt 1 view .LVU324
 499:Drivers/STM32U5xx_HAL_Driver/Src/stm32u5xx_hal_dcmi.c ****         {
 816              		.loc 1 499 68 is_stmt 0 view .LVU325
 817 011a 53F82110 		ldr	r1, [r3, r1, lsl #2]
 818              	.LVL52:
 499:Drivers/STM32U5xx_HAL_Driver/Src/stm32u5xx_hal_dcmi.c ****         {
 819              		.loc 1 499 12 view .LVU326
 820 011e 41B9     		cbnz	r1, .L46
 534:Drivers/STM32U5xx_HAL_Driver/Src/stm32u5xx_hal_dcmi.c ****           /* Change DCMI state */
 821              		.loc 1 534 11 is_stmt 1 view .LVU327
 534:Drivers/STM32U5xx_HAL_Driver/Src/stm32u5xx_hal_dcmi.c ****           /* Change DCMI state */
 822              		.loc 1 534 28 is_stmt 0 view .LVU328
 823 0120 4023     		movs	r3, #64
 824              	.LVL53:
 534:Drivers/STM32U5xx_HAL_Driver/Src/stm32u5xx_hal_dcmi.c ****           /* Change DCMI state */
 825              		.loc 1 534 28 view .LVU329
 826 0122 E364     		str	r3, [r4, #76]
 827              	.LVL54:
 536:Drivers/STM32U5xx_HAL_Driver/Src/stm32u5xx_hal_dcmi.c ****           /* Release Lock */
 828              		.loc 1 536 11 is_stmt 1 view .LVU330
 536:Drivers/STM32U5xx_HAL_Driver/Src/stm32u5xx_hal_dcmi.c ****           /* Release Lock */
 829              		.loc 1 536 24 is_stmt 0 view .LVU331
 830 0124 0123     		movs	r3, #1
 831 0126 84F83530 		strb	r3, [r4, #53]
 538:Drivers/STM32U5xx_HAL_Driver/Src/stm32u5xx_hal_dcmi.c ****           /* Return function status */
 832              		.loc 1 538 11 is_stmt 1 view .LVU332
 538:Drivers/STM32U5xx_HAL_Driver/Src/stm32u5xx_hal_dcmi.c ****           /* Return function status */
 833              		.loc 1 538 11 view .LVU333
 834 012a 0023     		movs	r3, #0
 835 012c 84F83430 		strb	r3, [r4, #52]
 538:Drivers/STM32U5xx_HAL_Driver/Src/stm32u5xx_hal_dcmi.c ****           /* Return function status */
 836              		.loc 1 538 11 view .LVU334
 540:Drivers/STM32U5xx_HAL_Driver/Src/stm32u5xx_hal_dcmi.c ****         }
 837              		.loc 1 540 11 view .LVU335
 838              	.LVL55:
 567:Drivers/STM32U5xx_HAL_Driver/Src/stm32u5xx_hal_dcmi.c ****   {
ARM GAS  C:\usertemp\ccMMWJQW.s 			page 44


 839              		.loc 1 567 3 view .LVU336
 840 0130 2DE0     		b	.L37
 841              	.LVL56:
 842              	.L46:
 501:Drivers/STM32U5xx_HAL_Driver/Src/stm32u5xx_hal_dcmi.c ****           tmp2 = hdcmi->DMA_Handle->LinkedListQueue->Head->LinkRegisters[cllr_offset];
 843              		.loc 1 501 11 view .LVU337
 502:Drivers/STM32U5xx_HAL_Driver/Src/stm32u5xx_hal_dcmi.c ****           /* Update second node */
 844              		.loc 1 502 11 view .LVU338
 506:Drivers/STM32U5xx_HAL_Driver/Src/stm32u5xx_hal_dcmi.c ****                                (tmp2 & DMA_CLLR_LA)))->LinkRegisters[NODE_CBR1_DEFAULT_OFFSET] = hd
 845              		.loc 1 506 11 view .LVU339
 506:Drivers/STM32U5xx_HAL_Driver/Src/stm32u5xx_hal_dcmi.c ****                                (tmp2 & DMA_CLLR_LA)))->LinkRegisters[NODE_CBR1_DEFAULT_OFFSET] = hd
 846              		.loc 1 506 38 is_stmt 0 view .LVU340
 847 0132 6FF30F03 		bfc	r3, #0, #16
 848              	.LVL57:
 507:Drivers/STM32U5xx_HAL_Driver/Src/stm32u5xx_hal_dcmi.c **** 
 849              		.loc 1 507 38 view .LVU341
 850 0136 21F00301 		bic	r1, r1, #3
 851              	.LVL58:
 507:Drivers/STM32U5xx_HAL_Driver/Src/stm32u5xx_hal_dcmi.c **** 
 852              		.loc 1 507 38 view .LVU342
 853 013a 0904     		lsls	r1, r1, #16
 854 013c 090C     		lsrs	r1, r1, #16
 506:Drivers/STM32U5xx_HAL_Driver/Src/stm32u5xx_hal_dcmi.c ****                                (tmp2 & DMA_CLLR_LA)))->LinkRegisters[NODE_CBR1_DEFAULT_OFFSET] = hd
 855              		.loc 1 506 55 view .LVU343
 856 013e 0B43     		orrs	r3, r3, r1
 507:Drivers/STM32U5xx_HAL_Driver/Src/stm32u5xx_hal_dcmi.c **** 
 857              		.loc 1 507 103 view .LVU344
 858 0140 E16B     		ldr	r1, [r4, #60]
 507:Drivers/STM32U5xx_HAL_Driver/Src/stm32u5xx_hal_dcmi.c **** 
 859              		.loc 1 507 96 view .LVU345
 860 0142 9960     		str	r1, [r3, #8]
 861              	.LVL59:
 510:Drivers/STM32U5xx_HAL_Driver/Src/stm32u5xx_hal_dcmi.c ****                                (tmp2 & DMA_CLLR_LA)))->LinkRegisters[NODE_CSAR_DEFAULT_OFFSET] = \
 862              		.loc 1 510 11 is_stmt 1 view .LVU346
 512:Drivers/STM32U5xx_HAL_Driver/Src/stm32u5xx_hal_dcmi.c **** 
 863              		.loc 1 512 52 is_stmt 0 view .LVU347
 864 0144 2168     		ldr	r1, [r4]
 512:Drivers/STM32U5xx_HAL_Driver/Src/stm32u5xx_hal_dcmi.c **** 
 865              		.loc 1 512 46 view .LVU348
 866 0146 2831     		adds	r1, r1, #40
 511:Drivers/STM32U5xx_HAL_Driver/Src/stm32u5xx_hal_dcmi.c ****                                    (uint32_t)&hdcmi->Instance->DR;
 867              		.loc 1 511 96 view .LVU349
 868 0148 D960     		str	r1, [r3, #12]
 515:Drivers/STM32U5xx_HAL_Driver/Src/stm32u5xx_hal_dcmi.c ****                                (tmp2 & DMA_CLLR_LA)))->LinkRegisters[NODE_CDAR_DEFAULT_OFFSET] = \
 869              		.loc 1 515 11 is_stmt 1 view .LVU350
 517:Drivers/STM32U5xx_HAL_Driver/Src/stm32u5xx_hal_dcmi.c **** 
 870              		.loc 1 517 59 is_stmt 0 view .LVU351
 871 014a E16B     		ldr	r1, [r4, #60]
 517:Drivers/STM32U5xx_HAL_Driver/Src/stm32u5xx_hal_dcmi.c **** 
 872              		.loc 1 517 52 view .LVU352
 873 014c 1144     		add	r1, r1, r2
 516:Drivers/STM32U5xx_HAL_Driver/Src/stm32u5xx_hal_dcmi.c ****                                    (uint32_t)pData + hdcmi->XferSize;
 874              		.loc 1 516 96 view .LVU353
 875 014e 1961     		str	r1, [r3, #16]
 519:Drivers/STM32U5xx_HAL_Driver/Src/stm32u5xx_hal_dcmi.c ****           {
 876              		.loc 1 519 11 is_stmt 1 view .LVU354
 519:Drivers/STM32U5xx_HAL_Driver/Src/stm32u5xx_hal_dcmi.c ****           {
ARM GAS  C:\usertemp\ccMMWJQW.s 			page 45


 877              		.loc 1 519 15 is_stmt 0 view .LVU355
 878 0150 A06C     		ldr	r0, [r4, #72]
 879 0152 FFF7FEFF 		bl	HAL_DMAEx_List_Start_IT
 880              	.LVL60:
 519:Drivers/STM32U5xx_HAL_Driver/Src/stm32u5xx_hal_dcmi.c ****           {
 881              		.loc 1 519 14 discriminator 1 view .LVU356
 882 0156 0028     		cmp	r0, #0
 883 0158 A5D0     		beq	.L43
 522:Drivers/STM32U5xx_HAL_Driver/Src/stm32u5xx_hal_dcmi.c ****             /* Change DCMI state */
 884              		.loc 1 522 13 is_stmt 1 view .LVU357
 522:Drivers/STM32U5xx_HAL_Driver/Src/stm32u5xx_hal_dcmi.c ****             /* Change DCMI state */
 885              		.loc 1 522 30 is_stmt 0 view .LVU358
 886 015a 4023     		movs	r3, #64
 887 015c E364     		str	r3, [r4, #76]
 524:Drivers/STM32U5xx_HAL_Driver/Src/stm32u5xx_hal_dcmi.c ****             /* Release Lock */
 888              		.loc 1 524 13 is_stmt 1 view .LVU359
 524:Drivers/STM32U5xx_HAL_Driver/Src/stm32u5xx_hal_dcmi.c ****             /* Release Lock */
 889              		.loc 1 524 26 is_stmt 0 view .LVU360
 890 015e 0123     		movs	r3, #1
 891 0160 84F83530 		strb	r3, [r4, #53]
 526:Drivers/STM32U5xx_HAL_Driver/Src/stm32u5xx_hal_dcmi.c ****             /* Return function status */
 892              		.loc 1 526 13 is_stmt 1 view .LVU361
 526:Drivers/STM32U5xx_HAL_Driver/Src/stm32u5xx_hal_dcmi.c ****             /* Return function status */
 893              		.loc 1 526 13 view .LVU362
 894 0164 0023     		movs	r3, #0
 895 0166 84F83430 		strb	r3, [r4, #52]
 526:Drivers/STM32U5xx_HAL_Driver/Src/stm32u5xx_hal_dcmi.c ****             /* Return function status */
 896              		.loc 1 526 13 view .LVU363
 528:Drivers/STM32U5xx_HAL_Driver/Src/stm32u5xx_hal_dcmi.c ****           }
 897              		.loc 1 528 13 view .LVU364
 898              	.LVL61:
 567:Drivers/STM32U5xx_HAL_Driver/Src/stm32u5xx_hal_dcmi.c ****   {
 899              		.loc 1 567 3 view .LVU365
 900 016a 10E0     		b	.L37
 901              	.LVL62:
 902              	.L41:
 546:Drivers/STM32U5xx_HAL_Driver/Src/stm32u5xx_hal_dcmi.c ****         /* Change DCMI state */
 903              		.loc 1 546 9 view .LVU366
 546:Drivers/STM32U5xx_HAL_Driver/Src/stm32u5xx_hal_dcmi.c ****         /* Change DCMI state */
 904              		.loc 1 546 26 is_stmt 0 view .LVU367
 905 016c 4023     		movs	r3, #64
 906 016e E364     		str	r3, [r4, #76]
 548:Drivers/STM32U5xx_HAL_Driver/Src/stm32u5xx_hal_dcmi.c ****         /* Release Lock */
 907              		.loc 1 548 9 is_stmt 1 view .LVU368
 548:Drivers/STM32U5xx_HAL_Driver/Src/stm32u5xx_hal_dcmi.c ****         /* Release Lock */
 908              		.loc 1 548 22 is_stmt 0 view .LVU369
 909 0170 0123     		movs	r3, #1
 910 0172 84F83530 		strb	r3, [r4, #53]
 550:Drivers/STM32U5xx_HAL_Driver/Src/stm32u5xx_hal_dcmi.c ****         /* Return function status */
 911              		.loc 1 550 9 is_stmt 1 view .LVU370
 550:Drivers/STM32U5xx_HAL_Driver/Src/stm32u5xx_hal_dcmi.c ****         /* Return function status */
 912              		.loc 1 550 9 view .LVU371
 913 0176 0023     		movs	r3, #0
 914 0178 84F83430 		strb	r3, [r4, #52]
 550:Drivers/STM32U5xx_HAL_Driver/Src/stm32u5xx_hal_dcmi.c ****         /* Return function status */
 915              		.loc 1 550 9 view .LVU372
 552:Drivers/STM32U5xx_HAL_Driver/Src/stm32u5xx_hal_dcmi.c ****       }
ARM GAS  C:\usertemp\ccMMWJQW.s 			page 46


 916              		.loc 1 552 9 view .LVU373
 917              	.LVL63:
 567:Drivers/STM32U5xx_HAL_Driver/Src/stm32u5xx_hal_dcmi.c ****   {
 918              		.loc 1 567 3 view .LVU374
 919 017c 07E0     		b	.L37
 920              	.LVL64:
 921              	.L40:
 558:Drivers/STM32U5xx_HAL_Driver/Src/stm32u5xx_hal_dcmi.c ****       /* Change DCMI state */
 922              		.loc 1 558 7 view .LVU375
 558:Drivers/STM32U5xx_HAL_Driver/Src/stm32u5xx_hal_dcmi.c ****       /* Change DCMI state */
 923              		.loc 1 558 24 is_stmt 0 view .LVU376
 924 017e 4023     		movs	r3, #64
 925 0180 E364     		str	r3, [r4, #76]
 560:Drivers/STM32U5xx_HAL_Driver/Src/stm32u5xx_hal_dcmi.c ****       /* Release Lock */
 926              		.loc 1 560 7 is_stmt 1 view .LVU377
 560:Drivers/STM32U5xx_HAL_Driver/Src/stm32u5xx_hal_dcmi.c ****       /* Release Lock */
 927              		.loc 1 560 20 is_stmt 0 view .LVU378
 928 0182 0123     		movs	r3, #1
 929 0184 84F83530 		strb	r3, [r4, #53]
 562:Drivers/STM32U5xx_HAL_Driver/Src/stm32u5xx_hal_dcmi.c ****       /* Return function status */
 930              		.loc 1 562 7 is_stmt 1 view .LVU379
 562:Drivers/STM32U5xx_HAL_Driver/Src/stm32u5xx_hal_dcmi.c ****       /* Return function status */
 931              		.loc 1 562 7 view .LVU380
 932 0188 0023     		movs	r3, #0
 933 018a 84F83430 		strb	r3, [r4, #52]
 562:Drivers/STM32U5xx_HAL_Driver/Src/stm32u5xx_hal_dcmi.c ****       /* Return function status */
 934              		.loc 1 562 7 view .LVU381
 564:Drivers/STM32U5xx_HAL_Driver/Src/stm32u5xx_hal_dcmi.c ****     }
 935              		.loc 1 564 7 view .LVU382
 936              	.LVL65:
 567:Drivers/STM32U5xx_HAL_Driver/Src/stm32u5xx_hal_dcmi.c ****   {
 937              		.loc 1 567 3 view .LVU383
 938              	.L37:
 578:Drivers/STM32U5xx_HAL_Driver/Src/stm32u5xx_hal_dcmi.c ****     /* Change DCMI state */
 939              		.loc 1 578 5 view .LVU384
 578:Drivers/STM32U5xx_HAL_Driver/Src/stm32u5xx_hal_dcmi.c ****     /* Change DCMI state */
 940              		.loc 1 578 22 is_stmt 0 view .LVU385
 941 018e 4023     		movs	r3, #64
 942 0190 E364     		str	r3, [r4, #76]
 580:Drivers/STM32U5xx_HAL_Driver/Src/stm32u5xx_hal_dcmi.c ****     /* Release Lock */
 943              		.loc 1 580 5 is_stmt 1 view .LVU386
 580:Drivers/STM32U5xx_HAL_Driver/Src/stm32u5xx_hal_dcmi.c ****     /* Release Lock */
 944              		.loc 1 580 18 is_stmt 0 view .LVU387
 945 0192 0120     		movs	r0, #1
 946 0194 84F83500 		strb	r0, [r4, #53]
 582:Drivers/STM32U5xx_HAL_Driver/Src/stm32u5xx_hal_dcmi.c ****     /* Return function status */
 947              		.loc 1 582 5 is_stmt 1 view .LVU388
 582:Drivers/STM32U5xx_HAL_Driver/Src/stm32u5xx_hal_dcmi.c ****     /* Return function status */
 948              		.loc 1 582 5 view .LVU389
 949 0198 0023     		movs	r3, #0
 950 019a 84F83430 		strb	r3, [r4, #52]
 582:Drivers/STM32U5xx_HAL_Driver/Src/stm32u5xx_hal_dcmi.c ****     /* Return function status */
 951              		.loc 1 582 5 view .LVU390
 584:Drivers/STM32U5xx_HAL_Driver/Src/stm32u5xx_hal_dcmi.c ****   }
 952              		.loc 1 584 5 view .LVU391
 953              	.LVL66:
 954              	.L32:
ARM GAS  C:\usertemp\ccMMWJQW.s 			page 47


 589:Drivers/STM32U5xx_HAL_Driver/Src/stm32u5xx_hal_dcmi.c **** 
 955              		.loc 1 589 1 is_stmt 0 view .LVU392
 956 019e 38BD     		pop	{r3, r4, r5, pc}
 957              	.LVL67:
 958              	.L44:
 391:Drivers/STM32U5xx_HAL_Driver/Src/stm32u5xx_hal_dcmi.c **** 
 959              		.loc 1 391 3 discriminator 1 view .LVU393
 960 01a0 0220     		movs	r0, #2
 961 01a2 FCE7     		b	.L32
 962              	.L48:
 963              		.align	2
 964              	.L47:
 965 01a4 00000000 		.word	DCMI_DMAXferCplt
 966 01a8 00000000 		.word	DCMI_DMAError
 967              		.cfi_endproc
 968              	.LFE161:
 970              		.section	.text.HAL_DCMI_Stop,"ax",%progbits
 971              		.align	1
 972              		.global	HAL_DCMI_Stop
 973              		.syntax unified
 974              		.thumb
 975              		.thumb_func
 977              	HAL_DCMI_Stop:
 978              	.LVL68:
 979              	.LFB162:
 598:Drivers/STM32U5xx_HAL_Driver/Src/stm32u5xx_hal_dcmi.c ****   uint32_t count = HAL_TIMEOUT_DCMI_STOP * (SystemCoreClock / 8U / 1000U);
 980              		.loc 1 598 1 is_stmt 1 view -0
 981              		.cfi_startproc
 982              		@ args = 0, pretend = 0, frame = 0
 983              		@ frame_needed = 0, uses_anonymous_args = 0
 598:Drivers/STM32U5xx_HAL_Driver/Src/stm32u5xx_hal_dcmi.c ****   uint32_t count = HAL_TIMEOUT_DCMI_STOP * (SystemCoreClock / 8U / 1000U);
 984              		.loc 1 598 1 is_stmt 0 view .LVU395
 985 0000 38B5     		push	{r3, r4, r5, lr}
 986              	.LCFI8:
 987              		.cfi_def_cfa_offset 16
 988              		.cfi_offset 3, -16
 989              		.cfi_offset 4, -12
 990              		.cfi_offset 5, -8
 991              		.cfi_offset 14, -4
 599:Drivers/STM32U5xx_HAL_Driver/Src/stm32u5xx_hal_dcmi.c ****   HAL_StatusTypeDef status = HAL_OK;
 992              		.loc 1 599 3 is_stmt 1 view .LVU396
 599:Drivers/STM32U5xx_HAL_Driver/Src/stm32u5xx_hal_dcmi.c ****   HAL_StatusTypeDef status = HAL_OK;
 993              		.loc 1 599 66 is_stmt 0 view .LVU397
 994 0002 1E4B     		ldr	r3, .L57
 995 0004 1B68     		ldr	r3, [r3]
 996 0006 1E4A     		ldr	r2, .L57+4
 997 0008 A2FB0323 		umull	r2, r3, r2, r3
 998 000c 5B0A     		lsrs	r3, r3, #9
 599:Drivers/STM32U5xx_HAL_Driver/Src/stm32u5xx_hal_dcmi.c ****   HAL_StatusTypeDef status = HAL_OK;
 999              		.loc 1 599 12 view .LVU398
 1000 000e 4FF47A72 		mov	r2, #1000
 1001 0012 02FB03F3 		mul	r3, r2, r3
 1002              	.LVL69:
 600:Drivers/STM32U5xx_HAL_Driver/Src/stm32u5xx_hal_dcmi.c **** 
 1003              		.loc 1 600 3 is_stmt 1 view .LVU399
 603:Drivers/STM32U5xx_HAL_Driver/Src/stm32u5xx_hal_dcmi.c **** 
 1004              		.loc 1 603 3 view .LVU400
ARM GAS  C:\usertemp\ccMMWJQW.s 			page 48


 603:Drivers/STM32U5xx_HAL_Driver/Src/stm32u5xx_hal_dcmi.c **** 
 1005              		.loc 1 603 3 view .LVU401
 1006 0016 90F83420 		ldrb	r2, [r0, #52]	@ zero_extendqisi2
 1007 001a 012A     		cmp	r2, #1
 1008 001c 2BD0     		beq	.L54
 1009 001e 0446     		mov	r4, r0
 603:Drivers/STM32U5xx_HAL_Driver/Src/stm32u5xx_hal_dcmi.c **** 
 1010              		.loc 1 603 3 discriminator 2 view .LVU402
 1011 0020 0122     		movs	r2, #1
 1012 0022 80F83420 		strb	r2, [r0, #52]
 603:Drivers/STM32U5xx_HAL_Driver/Src/stm32u5xx_hal_dcmi.c **** 
 1013              		.loc 1 603 3 discriminator 2 view .LVU403
 606:Drivers/STM32U5xx_HAL_Driver/Src/stm32u5xx_hal_dcmi.c **** 
 1014              		.loc 1 606 3 view .LVU404
 606:Drivers/STM32U5xx_HAL_Driver/Src/stm32u5xx_hal_dcmi.c **** 
 1015              		.loc 1 606 16 is_stmt 0 view .LVU405
 1016 0026 0222     		movs	r2, #2
 1017 0028 80F83520 		strb	r2, [r0, #53]
 609:Drivers/STM32U5xx_HAL_Driver/Src/stm32u5xx_hal_dcmi.c **** 
 1018              		.loc 1 609 3 is_stmt 1 view .LVU406
 609:Drivers/STM32U5xx_HAL_Driver/Src/stm32u5xx_hal_dcmi.c **** 
 1019              		.loc 1 609 8 is_stmt 0 view .LVU407
 1020 002c 0168     		ldr	r1, [r0]
 609:Drivers/STM32U5xx_HAL_Driver/Src/stm32u5xx_hal_dcmi.c **** 
 1021              		.loc 1 609 18 view .LVU408
 1022 002e 0A68     		ldr	r2, [r1]
 609:Drivers/STM32U5xx_HAL_Driver/Src/stm32u5xx_hal_dcmi.c **** 
 1023              		.loc 1 609 23 view .LVU409
 1024 0030 22F00102 		bic	r2, r2, #1
 1025 0034 0A60     		str	r2, [r1]
 1026              	.L53:
 612:Drivers/STM32U5xx_HAL_Driver/Src/stm32u5xx_hal_dcmi.c ****   {
 1027              		.loc 1 612 3 is_stmt 1 view .LVU410
 614:Drivers/STM32U5xx_HAL_Driver/Src/stm32u5xx_hal_dcmi.c ****     if (count == 0U)
 1028              		.loc 1 614 5 view .LVU411
 1029              	.LVL70:
 615:Drivers/STM32U5xx_HAL_Driver/Src/stm32u5xx_hal_dcmi.c ****     {
 1030              		.loc 1 615 5 view .LVU412
 615:Drivers/STM32U5xx_HAL_Driver/Src/stm32u5xx_hal_dcmi.c ****     {
 1031              		.loc 1 615 8 is_stmt 0 view .LVU413
 1032 0036 013B     		subs	r3, r3, #1
 1033              	.LVL71:
 615:Drivers/STM32U5xx_HAL_Driver/Src/stm32u5xx_hal_dcmi.c ****     {
 1034              		.loc 1 615 8 view .LVU414
 1035 0038 06D0     		beq	.L56
 623:Drivers/STM32U5xx_HAL_Driver/Src/stm32u5xx_hal_dcmi.c **** 
 1036              		.loc 1 623 52 is_stmt 1 view .LVU415
 623:Drivers/STM32U5xx_HAL_Driver/Src/stm32u5xx_hal_dcmi.c **** 
 1037              		.loc 1 623 18 is_stmt 0 view .LVU416
 1038 003a 2268     		ldr	r2, [r4]
 623:Drivers/STM32U5xx_HAL_Driver/Src/stm32u5xx_hal_dcmi.c **** 
 1039              		.loc 1 623 28 view .LVU417
 1040 003c 1268     		ldr	r2, [r2]
 623:Drivers/STM32U5xx_HAL_Driver/Src/stm32u5xx_hal_dcmi.c **** 
 1041              		.loc 1 623 52 view .LVU418
 1042 003e 12F0010F 		tst	r2, #1
 1043 0042 F8D1     		bne	.L53
ARM GAS  C:\usertemp\ccMMWJQW.s 			page 49


 600:Drivers/STM32U5xx_HAL_Driver/Src/stm32u5xx_hal_dcmi.c **** 
 1044              		.loc 1 600 21 view .LVU419
 1045 0044 0025     		movs	r5, #0
 1046 0046 04E0     		b	.L52
 1047              	.L56:
 618:Drivers/STM32U5xx_HAL_Driver/Src/stm32u5xx_hal_dcmi.c **** 
 1048              		.loc 1 618 7 is_stmt 1 view .LVU420
 618:Drivers/STM32U5xx_HAL_Driver/Src/stm32u5xx_hal_dcmi.c **** 
 1049              		.loc 1 618 12 is_stmt 0 view .LVU421
 1050 0048 E36C     		ldr	r3, [r4, #76]
 1051              	.LVL72:
 618:Drivers/STM32U5xx_HAL_Driver/Src/stm32u5xx_hal_dcmi.c **** 
 1052              		.loc 1 618 24 view .LVU422
 1053 004a 43F02003 		orr	r3, r3, #32
 1054 004e E364     		str	r3, [r4, #76]
 620:Drivers/STM32U5xx_HAL_Driver/Src/stm32u5xx_hal_dcmi.c ****       break;
 1055              		.loc 1 620 7 is_stmt 1 view .LVU423
 1056              	.LVL73:
 621:Drivers/STM32U5xx_HAL_Driver/Src/stm32u5xx_hal_dcmi.c ****     }
 1057              		.loc 1 621 7 view .LVU424
 620:Drivers/STM32U5xx_HAL_Driver/Src/stm32u5xx_hal_dcmi.c ****       break;
 1058              		.loc 1 620 14 is_stmt 0 view .LVU425
 1059 0050 0325     		movs	r5, #3
 1060              	.LVL74:
 1061              	.L52:
 626:Drivers/STM32U5xx_HAL_Driver/Src/stm32u5xx_hal_dcmi.c **** 
 1062              		.loc 1 626 3 is_stmt 1 view .LVU426
 1063 0052 2268     		ldr	r2, [r4]
 1064 0054 1368     		ldr	r3, [r2]
 1065 0056 23F48043 		bic	r3, r3, #16384
 1066 005a 1360     		str	r3, [r2]
 629:Drivers/STM32U5xx_HAL_Driver/Src/stm32u5xx_hal_dcmi.c **** 
 1067              		.loc 1 629 3 view .LVU427
 629:Drivers/STM32U5xx_HAL_Driver/Src/stm32u5xx_hal_dcmi.c **** 
 1068              		.loc 1 629 9 is_stmt 0 view .LVU428
 1069 005c A06C     		ldr	r0, [r4, #72]
 1070              	.LVL75:
 629:Drivers/STM32U5xx_HAL_Driver/Src/stm32u5xx_hal_dcmi.c **** 
 1071              		.loc 1 629 9 view .LVU429
 1072 005e FFF7FEFF 		bl	HAL_DMA_Abort
 1073              	.LVL76:
 632:Drivers/STM32U5xx_HAL_Driver/Src/stm32u5xx_hal_dcmi.c **** 
 1074              		.loc 1 632 3 is_stmt 1 view .LVU430
 632:Drivers/STM32U5xx_HAL_Driver/Src/stm32u5xx_hal_dcmi.c **** 
 1075              		.loc 1 632 8 is_stmt 0 view .LVU431
 1076 0062 E36C     		ldr	r3, [r4, #76]
 632:Drivers/STM32U5xx_HAL_Driver/Src/stm32u5xx_hal_dcmi.c **** 
 1077              		.loc 1 632 20 view .LVU432
 1078 0064 E364     		str	r3, [r4, #76]
 635:Drivers/STM32U5xx_HAL_Driver/Src/stm32u5xx_hal_dcmi.c **** 
 1079              		.loc 1 635 3 is_stmt 1 view .LVU433
 635:Drivers/STM32U5xx_HAL_Driver/Src/stm32u5xx_hal_dcmi.c **** 
 1080              		.loc 1 635 16 is_stmt 0 view .LVU434
 1081 0066 0123     		movs	r3, #1
 1082 0068 84F83530 		strb	r3, [r4, #53]
 638:Drivers/STM32U5xx_HAL_Driver/Src/stm32u5xx_hal_dcmi.c **** 
 1083              		.loc 1 638 3 is_stmt 1 view .LVU435
ARM GAS  C:\usertemp\ccMMWJQW.s 			page 50


 638:Drivers/STM32U5xx_HAL_Driver/Src/stm32u5xx_hal_dcmi.c **** 
 1084              		.loc 1 638 3 view .LVU436
 1085 006c 0023     		movs	r3, #0
 1086 006e 84F83430 		strb	r3, [r4, #52]
 638:Drivers/STM32U5xx_HAL_Driver/Src/stm32u5xx_hal_dcmi.c **** 
 1087              		.loc 1 638 3 view .LVU437
 641:Drivers/STM32U5xx_HAL_Driver/Src/stm32u5xx_hal_dcmi.c **** }
 1088              		.loc 1 641 3 view .LVU438
 1089              	.LVL77:
 1090              	.L50:
 642:Drivers/STM32U5xx_HAL_Driver/Src/stm32u5xx_hal_dcmi.c **** 
 1091              		.loc 1 642 1 is_stmt 0 view .LVU439
 1092 0072 2846     		mov	r0, r5
 1093 0074 38BD     		pop	{r3, r4, r5, pc}
 1094              	.LVL78:
 1095              	.L54:
 603:Drivers/STM32U5xx_HAL_Driver/Src/stm32u5xx_hal_dcmi.c **** 
 1096              		.loc 1 603 3 discriminator 1 view .LVU440
 1097 0076 0225     		movs	r5, #2
 1098 0078 FBE7     		b	.L50
 1099              	.L58:
 1100 007a 00BF     		.align	2
 1101              	.L57:
 1102 007c 00000000 		.word	SystemCoreClock
 1103 0080 D34D6210 		.word	274877907
 1104              		.cfi_endproc
 1105              	.LFE162:
 1107              		.section	.text.HAL_DCMI_Suspend,"ax",%progbits
 1108              		.align	1
 1109              		.global	HAL_DCMI_Suspend
 1110              		.syntax unified
 1111              		.thumb
 1112              		.thumb_func
 1114              	HAL_DCMI_Suspend:
 1115              	.LVL79:
 1116              	.LFB163:
 651:Drivers/STM32U5xx_HAL_Driver/Src/stm32u5xx_hal_dcmi.c ****   uint32_t count = HAL_TIMEOUT_DCMI_STOP * (SystemCoreClock / 8U / 1000U);
 1117              		.loc 1 651 1 is_stmt 1 view -0
 1118              		.cfi_startproc
 1119              		@ args = 0, pretend = 0, frame = 0
 1120              		@ frame_needed = 0, uses_anonymous_args = 0
 1121              		@ link register save eliminated.
 651:Drivers/STM32U5xx_HAL_Driver/Src/stm32u5xx_hal_dcmi.c ****   uint32_t count = HAL_TIMEOUT_DCMI_STOP * (SystemCoreClock / 8U / 1000U);
 1122              		.loc 1 651 1 is_stmt 0 view .LVU442
 1123 0000 0246     		mov	r2, r0
 652:Drivers/STM32U5xx_HAL_Driver/Src/stm32u5xx_hal_dcmi.c ****   HAL_StatusTypeDef status = HAL_OK;
 1124              		.loc 1 652 3 is_stmt 1 view .LVU443
 652:Drivers/STM32U5xx_HAL_Driver/Src/stm32u5xx_hal_dcmi.c ****   HAL_StatusTypeDef status = HAL_OK;
 1125              		.loc 1 652 66 is_stmt 0 view .LVU444
 1126 0002 1B4B     		ldr	r3, .L68
 1127 0004 1B68     		ldr	r3, [r3]
 1128 0006 1B49     		ldr	r1, .L68+4
 1129 0008 A1FB0313 		umull	r1, r3, r1, r3
 1130 000c 5B0A     		lsrs	r3, r3, #9
 652:Drivers/STM32U5xx_HAL_Driver/Src/stm32u5xx_hal_dcmi.c ****   HAL_StatusTypeDef status = HAL_OK;
 1131              		.loc 1 652 12 view .LVU445
 1132 000e 4FF47A71 		mov	r1, #1000
ARM GAS  C:\usertemp\ccMMWJQW.s 			page 51


 1133 0012 01FB03F3 		mul	r3, r1, r3
 1134              	.LVL80:
 653:Drivers/STM32U5xx_HAL_Driver/Src/stm32u5xx_hal_dcmi.c **** 
 1135              		.loc 1 653 3 is_stmt 1 view .LVU446
 656:Drivers/STM32U5xx_HAL_Driver/Src/stm32u5xx_hal_dcmi.c **** 
 1136              		.loc 1 656 3 view .LVU447
 656:Drivers/STM32U5xx_HAL_Driver/Src/stm32u5xx_hal_dcmi.c **** 
 1137              		.loc 1 656 3 view .LVU448
 1138 0016 90F83410 		ldrb	r1, [r0, #52]	@ zero_extendqisi2
 1139 001a 0129     		cmp	r1, #1
 1140 001c 26D0     		beq	.L64
 656:Drivers/STM32U5xx_HAL_Driver/Src/stm32u5xx_hal_dcmi.c **** 
 1141              		.loc 1 656 3 discriminator 2 view .LVU449
 1142 001e 0121     		movs	r1, #1
 1143 0020 80F83410 		strb	r1, [r0, #52]
 656:Drivers/STM32U5xx_HAL_Driver/Src/stm32u5xx_hal_dcmi.c **** 
 1144              		.loc 1 656 3 discriminator 2 view .LVU450
 658:Drivers/STM32U5xx_HAL_Driver/Src/stm32u5xx_hal_dcmi.c ****   {
 1145              		.loc 1 658 3 view .LVU451
 658:Drivers/STM32U5xx_HAL_Driver/Src/stm32u5xx_hal_dcmi.c ****   {
 1146              		.loc 1 658 12 is_stmt 0 view .LVU452
 1147 0024 90F83510 		ldrb	r1, [r0, #53]	@ zero_extendqisi2
 1148 0028 C9B2     		uxtb	r1, r1
 658:Drivers/STM32U5xx_HAL_Driver/Src/stm32u5xx_hal_dcmi.c ****   {
 1149              		.loc 1 658 6 view .LVU453
 1150 002a 0229     		cmp	r1, #2
 1151 002c 04D0     		beq	.L66
 653:Drivers/STM32U5xx_HAL_Driver/Src/stm32u5xx_hal_dcmi.c **** 
 1152              		.loc 1 653 21 view .LVU454
 1153 002e 0020     		movs	r0, #0
 1154              	.LVL81:
 1155              	.L61:
 684:Drivers/STM32U5xx_HAL_Driver/Src/stm32u5xx_hal_dcmi.c **** 
 1156              		.loc 1 684 3 is_stmt 1 view .LVU455
 684:Drivers/STM32U5xx_HAL_Driver/Src/stm32u5xx_hal_dcmi.c **** 
 1157              		.loc 1 684 3 view .LVU456
 1158 0030 0023     		movs	r3, #0
 1159 0032 82F83430 		strb	r3, [r2, #52]
 684:Drivers/STM32U5xx_HAL_Driver/Src/stm32u5xx_hal_dcmi.c **** 
 1160              		.loc 1 684 3 view .LVU457
 687:Drivers/STM32U5xx_HAL_Driver/Src/stm32u5xx_hal_dcmi.c **** }
 1161              		.loc 1 687 3 view .LVU458
 687:Drivers/STM32U5xx_HAL_Driver/Src/stm32u5xx_hal_dcmi.c **** }
 1162              		.loc 1 687 10 is_stmt 0 view .LVU459
 1163 0036 7047     		bx	lr
 1164              	.LVL82:
 1165              	.L66:
 661:Drivers/STM32U5xx_HAL_Driver/Src/stm32u5xx_hal_dcmi.c **** 
 1166              		.loc 1 661 5 is_stmt 1 view .LVU460
 661:Drivers/STM32U5xx_HAL_Driver/Src/stm32u5xx_hal_dcmi.c **** 
 1167              		.loc 1 661 18 is_stmt 0 view .LVU461
 1168 0038 0521     		movs	r1, #5
 1169 003a 80F83510 		strb	r1, [r0, #53]
 664:Drivers/STM32U5xx_HAL_Driver/Src/stm32u5xx_hal_dcmi.c **** 
 1170              		.loc 1 664 5 is_stmt 1 view .LVU462
 664:Drivers/STM32U5xx_HAL_Driver/Src/stm32u5xx_hal_dcmi.c **** 
 1171              		.loc 1 664 10 is_stmt 0 view .LVU463
ARM GAS  C:\usertemp\ccMMWJQW.s 			page 52


 1172 003e 0068     		ldr	r0, [r0]
 1173              	.LVL83:
 664:Drivers/STM32U5xx_HAL_Driver/Src/stm32u5xx_hal_dcmi.c **** 
 1174              		.loc 1 664 20 view .LVU464
 1175 0040 0168     		ldr	r1, [r0]
 664:Drivers/STM32U5xx_HAL_Driver/Src/stm32u5xx_hal_dcmi.c **** 
 1176              		.loc 1 664 25 view .LVU465
 1177 0042 21F00101 		bic	r1, r1, #1
 1178 0046 0160     		str	r1, [r0]
 1179              	.L63:
 667:Drivers/STM32U5xx_HAL_Driver/Src/stm32u5xx_hal_dcmi.c ****     {
 1180              		.loc 1 667 5 is_stmt 1 view .LVU466
 669:Drivers/STM32U5xx_HAL_Driver/Src/stm32u5xx_hal_dcmi.c ****       if (count == 0U)
 1181              		.loc 1 669 7 view .LVU467
 1182              	.LVL84:
 670:Drivers/STM32U5xx_HAL_Driver/Src/stm32u5xx_hal_dcmi.c ****       {
 1183              		.loc 1 670 7 view .LVU468
 670:Drivers/STM32U5xx_HAL_Driver/Src/stm32u5xx_hal_dcmi.c ****       {
 1184              		.loc 1 670 10 is_stmt 0 view .LVU469
 1185 0048 013B     		subs	r3, r3, #1
 1186              	.LVL85:
 670:Drivers/STM32U5xx_HAL_Driver/Src/stm32u5xx_hal_dcmi.c ****       {
 1187              		.loc 1 670 10 view .LVU470
 1188 004a 06D0     		beq	.L67
 681:Drivers/STM32U5xx_HAL_Driver/Src/stm32u5xx_hal_dcmi.c ****   }
 1189              		.loc 1 681 54 is_stmt 1 view .LVU471
 681:Drivers/STM32U5xx_HAL_Driver/Src/stm32u5xx_hal_dcmi.c ****   }
 1190              		.loc 1 681 20 is_stmt 0 view .LVU472
 1191 004c 1168     		ldr	r1, [r2]
 681:Drivers/STM32U5xx_HAL_Driver/Src/stm32u5xx_hal_dcmi.c ****   }
 1192              		.loc 1 681 30 view .LVU473
 1193 004e 0968     		ldr	r1, [r1]
 681:Drivers/STM32U5xx_HAL_Driver/Src/stm32u5xx_hal_dcmi.c ****   }
 1194              		.loc 1 681 54 view .LVU474
 1195 0050 11F0010F 		tst	r1, #1
 1196 0054 F8D1     		bne	.L63
 653:Drivers/STM32U5xx_HAL_Driver/Src/stm32u5xx_hal_dcmi.c **** 
 1197              		.loc 1 653 21 view .LVU475
 1198 0056 0020     		movs	r0, #0
 1199 0058 EAE7     		b	.L61
 1200              	.L67:
 673:Drivers/STM32U5xx_HAL_Driver/Src/stm32u5xx_hal_dcmi.c **** 
 1201              		.loc 1 673 9 is_stmt 1 view .LVU476
 673:Drivers/STM32U5xx_HAL_Driver/Src/stm32u5xx_hal_dcmi.c **** 
 1202              		.loc 1 673 14 is_stmt 0 view .LVU477
 1203 005a D36C     		ldr	r3, [r2, #76]
 1204              	.LVL86:
 673:Drivers/STM32U5xx_HAL_Driver/Src/stm32u5xx_hal_dcmi.c **** 
 1205              		.loc 1 673 26 view .LVU478
 1206 005c 43F02003 		orr	r3, r3, #32
 1207 0060 D364     		str	r3, [r2, #76]
 676:Drivers/STM32U5xx_HAL_Driver/Src/stm32u5xx_hal_dcmi.c **** 
 1208              		.loc 1 676 9 is_stmt 1 view .LVU479
 676:Drivers/STM32U5xx_HAL_Driver/Src/stm32u5xx_hal_dcmi.c **** 
 1209              		.loc 1 676 22 is_stmt 0 view .LVU480
 1210 0062 0123     		movs	r3, #1
 1211 0064 82F83530 		strb	r3, [r2, #53]
ARM GAS  C:\usertemp\ccMMWJQW.s 			page 53


 678:Drivers/STM32U5xx_HAL_Driver/Src/stm32u5xx_hal_dcmi.c ****         break;
 1212              		.loc 1 678 9 is_stmt 1 view .LVU481
 1213              	.LVL87:
 679:Drivers/STM32U5xx_HAL_Driver/Src/stm32u5xx_hal_dcmi.c ****       }
 1214              		.loc 1 679 9 view .LVU482
 678:Drivers/STM32U5xx_HAL_Driver/Src/stm32u5xx_hal_dcmi.c ****         break;
 1215              		.loc 1 678 16 is_stmt 0 view .LVU483
 1216 0068 0320     		movs	r0, #3
 679:Drivers/STM32U5xx_HAL_Driver/Src/stm32u5xx_hal_dcmi.c ****       }
 1217              		.loc 1 679 9 view .LVU484
 1218 006a E1E7     		b	.L61
 1219              	.LVL88:
 1220              	.L64:
 656:Drivers/STM32U5xx_HAL_Driver/Src/stm32u5xx_hal_dcmi.c **** 
 1221              		.loc 1 656 3 discriminator 1 view .LVU485
 1222 006c 0220     		movs	r0, #2
 1223              	.LVL89:
 688:Drivers/STM32U5xx_HAL_Driver/Src/stm32u5xx_hal_dcmi.c **** 
 1224              		.loc 1 688 1 view .LVU486
 1225 006e 7047     		bx	lr
 1226              	.L69:
 1227              		.align	2
 1228              	.L68:
 1229 0070 00000000 		.word	SystemCoreClock
 1230 0074 D34D6210 		.word	274877907
 1231              		.cfi_endproc
 1232              	.LFE163:
 1234              		.section	.text.HAL_DCMI_Resume,"ax",%progbits
 1235              		.align	1
 1236              		.global	HAL_DCMI_Resume
 1237              		.syntax unified
 1238              		.thumb
 1239              		.thumb_func
 1241              	HAL_DCMI_Resume:
 1242              	.LVL90:
 1243              	.LFB164:
 697:Drivers/STM32U5xx_HAL_Driver/Src/stm32u5xx_hal_dcmi.c ****   /* Process locked */
 1244              		.loc 1 697 1 is_stmt 1 view -0
 1245              		.cfi_startproc
 1246              		@ args = 0, pretend = 0, frame = 0
 1247              		@ frame_needed = 0, uses_anonymous_args = 0
 1248              		@ link register save eliminated.
 699:Drivers/STM32U5xx_HAL_Driver/Src/stm32u5xx_hal_dcmi.c **** 
 1249              		.loc 1 699 3 view .LVU488
 699:Drivers/STM32U5xx_HAL_Driver/Src/stm32u5xx_hal_dcmi.c **** 
 1250              		.loc 1 699 3 view .LVU489
 1251 0000 90F83430 		ldrb	r3, [r0, #52]	@ zero_extendqisi2
 1252 0004 012B     		cmp	r3, #1
 1253 0006 15D0     		beq	.L73
 699:Drivers/STM32U5xx_HAL_Driver/Src/stm32u5xx_hal_dcmi.c **** 
 1254              		.loc 1 699 3 discriminator 2 view .LVU490
 1255 0008 0123     		movs	r3, #1
 1256 000a 80F83430 		strb	r3, [r0, #52]
 699:Drivers/STM32U5xx_HAL_Driver/Src/stm32u5xx_hal_dcmi.c **** 
 1257              		.loc 1 699 3 discriminator 2 view .LVU491
 701:Drivers/STM32U5xx_HAL_Driver/Src/stm32u5xx_hal_dcmi.c ****   {
 1258              		.loc 1 701 3 view .LVU492
ARM GAS  C:\usertemp\ccMMWJQW.s 			page 54


 701:Drivers/STM32U5xx_HAL_Driver/Src/stm32u5xx_hal_dcmi.c ****   {
 1259              		.loc 1 701 12 is_stmt 0 view .LVU493
 1260 000e 90F83530 		ldrb	r3, [r0, #53]	@ zero_extendqisi2
 1261 0012 DBB2     		uxtb	r3, r3
 701:Drivers/STM32U5xx_HAL_Driver/Src/stm32u5xx_hal_dcmi.c ****   {
 1262              		.loc 1 701 6 view .LVU494
 1263 0014 052B     		cmp	r3, #5
 1264 0016 04D0     		beq	.L74
 1265              	.L72:
 710:Drivers/STM32U5xx_HAL_Driver/Src/stm32u5xx_hal_dcmi.c **** 
 1266              		.loc 1 710 3 is_stmt 1 view .LVU495
 710:Drivers/STM32U5xx_HAL_Driver/Src/stm32u5xx_hal_dcmi.c **** 
 1267              		.loc 1 710 3 view .LVU496
 1268 0018 0023     		movs	r3, #0
 1269 001a 80F83430 		strb	r3, [r0, #52]
 710:Drivers/STM32U5xx_HAL_Driver/Src/stm32u5xx_hal_dcmi.c **** 
 1270              		.loc 1 710 3 view .LVU497
 713:Drivers/STM32U5xx_HAL_Driver/Src/stm32u5xx_hal_dcmi.c **** }
 1271              		.loc 1 713 3 view .LVU498
 713:Drivers/STM32U5xx_HAL_Driver/Src/stm32u5xx_hal_dcmi.c **** }
 1272              		.loc 1 713 10 is_stmt 0 view .LVU499
 1273 001e 1846     		mov	r0, r3
 1274              	.LVL91:
 713:Drivers/STM32U5xx_HAL_Driver/Src/stm32u5xx_hal_dcmi.c **** }
 1275              		.loc 1 713 10 view .LVU500
 1276 0020 7047     		bx	lr
 1277              	.LVL92:
 1278              	.L74:
 704:Drivers/STM32U5xx_HAL_Driver/Src/stm32u5xx_hal_dcmi.c **** 
 1279              		.loc 1 704 5 is_stmt 1 view .LVU501
 704:Drivers/STM32U5xx_HAL_Driver/Src/stm32u5xx_hal_dcmi.c **** 
 1280              		.loc 1 704 18 is_stmt 0 view .LVU502
 1281 0022 0223     		movs	r3, #2
 1282 0024 80F83530 		strb	r3, [r0, #53]
 707:Drivers/STM32U5xx_HAL_Driver/Src/stm32u5xx_hal_dcmi.c ****   }
 1283              		.loc 1 707 5 is_stmt 1 view .LVU503
 707:Drivers/STM32U5xx_HAL_Driver/Src/stm32u5xx_hal_dcmi.c ****   }
 1284              		.loc 1 707 10 is_stmt 0 view .LVU504
 1285 0028 0268     		ldr	r2, [r0]
 707:Drivers/STM32U5xx_HAL_Driver/Src/stm32u5xx_hal_dcmi.c ****   }
 1286              		.loc 1 707 20 view .LVU505
 1287 002a 1368     		ldr	r3, [r2]
 707:Drivers/STM32U5xx_HAL_Driver/Src/stm32u5xx_hal_dcmi.c ****   }
 1288              		.loc 1 707 25 view .LVU506
 1289 002c 43F00103 		orr	r3, r3, #1
 1290 0030 1360     		str	r3, [r2]
 1291 0032 F1E7     		b	.L72
 1292              	.L73:
 699:Drivers/STM32U5xx_HAL_Driver/Src/stm32u5xx_hal_dcmi.c **** 
 1293              		.loc 1 699 3 discriminator 1 view .LVU507
 1294 0034 0220     		movs	r0, #2
 1295              	.LVL93:
 714:Drivers/STM32U5xx_HAL_Driver/Src/stm32u5xx_hal_dcmi.c **** 
 1296              		.loc 1 714 1 view .LVU508
 1297 0036 7047     		bx	lr
 1298              		.cfi_endproc
 1299              	.LFE164:
ARM GAS  C:\usertemp\ccMMWJQW.s 			page 55


 1301              		.section	.text.HAL_DCMI_ErrorCallback,"ax",%progbits
 1302              		.align	1
 1303              		.weak	HAL_DCMI_ErrorCallback
 1304              		.syntax unified
 1305              		.thumb
 1306              		.thumb_func
 1308              	HAL_DCMI_ErrorCallback:
 1309              	.LVL94:
 1310              	.LFB166:
 829:Drivers/STM32U5xx_HAL_Driver/Src/stm32u5xx_hal_dcmi.c ****   /* Prevent unused argument(s) compilation warning */
 1311              		.loc 1 829 1 is_stmt 1 view -0
 1312              		.cfi_startproc
 1313              		@ args = 0, pretend = 0, frame = 0
 1314              		@ frame_needed = 0, uses_anonymous_args = 0
 1315              		@ link register save eliminated.
 831:Drivers/STM32U5xx_HAL_Driver/Src/stm32u5xx_hal_dcmi.c **** 
 1316              		.loc 1 831 3 view .LVU510
 836:Drivers/STM32U5xx_HAL_Driver/Src/stm32u5xx_hal_dcmi.c **** 
 1317              		.loc 1 836 1 is_stmt 0 view .LVU511
 1318 0000 7047     		bx	lr
 1319              		.cfi_endproc
 1320              	.LFE166:
 1322              		.section	.text.DCMI_DMAError,"ax",%progbits
 1323              		.align	1
 1324              		.syntax unified
 1325              		.thumb
 1326              		.thumb_func
 1328              	DCMI_DMAError:
 1329              	.LVL95:
 1330              	.LFB177:
1333:Drivers/STM32U5xx_HAL_Driver/Src/stm32u5xx_hal_dcmi.c **** 
1334:Drivers/STM32U5xx_HAL_Driver/Src/stm32u5xx_hal_dcmi.c **** /**
1335:Drivers/STM32U5xx_HAL_Driver/Src/stm32u5xx_hal_dcmi.c ****   * @brief  DMA error callback
1336:Drivers/STM32U5xx_HAL_Driver/Src/stm32u5xx_hal_dcmi.c ****   * @param  hdma pointer to a DMA_HandleTypeDef structure that contains
1337:Drivers/STM32U5xx_HAL_Driver/Src/stm32u5xx_hal_dcmi.c ****   *                the configuration information for the specified DMA module.
1338:Drivers/STM32U5xx_HAL_Driver/Src/stm32u5xx_hal_dcmi.c ****   * @retval None
1339:Drivers/STM32U5xx_HAL_Driver/Src/stm32u5xx_hal_dcmi.c ****   */
1340:Drivers/STM32U5xx_HAL_Driver/Src/stm32u5xx_hal_dcmi.c **** static void DCMI_DMAError(DMA_HandleTypeDef *hdma)
1341:Drivers/STM32U5xx_HAL_Driver/Src/stm32u5xx_hal_dcmi.c **** {
 1331              		.loc 1 1341 1 is_stmt 1 view -0
 1332              		.cfi_startproc
 1333              		@ args = 0, pretend = 0, frame = 0
 1334              		@ frame_needed = 0, uses_anonymous_args = 0
 1335              		.loc 1 1341 1 is_stmt 0 view .LVU513
 1336 0000 08B5     		push	{r3, lr}
 1337              	.LCFI9:
 1338              		.cfi_def_cfa_offset 8
 1339              		.cfi_offset 3, -8
 1340              		.cfi_offset 14, -4
1342:Drivers/STM32U5xx_HAL_Driver/Src/stm32u5xx_hal_dcmi.c ****   DCMI_HandleTypeDef *hdcmi = (DCMI_HandleTypeDef *)((DMA_HandleTypeDef *)hdma)->Parent;
 1341              		.loc 1 1342 3 is_stmt 1 view .LVU514
 1342              		.loc 1 1342 23 is_stmt 0 view .LVU515
 1343 0002 C06D     		ldr	r0, [r0, #92]
 1344              	.LVL96:
1343:Drivers/STM32U5xx_HAL_Driver/Src/stm32u5xx_hal_dcmi.c **** 
1344:Drivers/STM32U5xx_HAL_Driver/Src/stm32u5xx_hal_dcmi.c ****   if (hdcmi->DMA_Handle->ErrorCode != HAL_DMA_ERROR_ULE)
 1345              		.loc 1 1344 3 is_stmt 1 view .LVU516
ARM GAS  C:\usertemp\ccMMWJQW.s 			page 56


 1346              		.loc 1 1344 12 is_stmt 0 view .LVU517
 1347 0004 836C     		ldr	r3, [r0, #72]
 1348              		.loc 1 1344 24 view .LVU518
 1349 0006 9B6D     		ldr	r3, [r3, #88]
 1350              		.loc 1 1344 6 view .LVU519
 1351 0008 022B     		cmp	r3, #2
 1352 000a 06D0     		beq	.L77
1345:Drivers/STM32U5xx_HAL_Driver/Src/stm32u5xx_hal_dcmi.c ****   {
1346:Drivers/STM32U5xx_HAL_Driver/Src/stm32u5xx_hal_dcmi.c ****     /* Initialize the DCMI state*/
1347:Drivers/STM32U5xx_HAL_Driver/Src/stm32u5xx_hal_dcmi.c ****     hdcmi->State = HAL_DCMI_STATE_READY;
 1353              		.loc 1 1347 5 is_stmt 1 view .LVU520
 1354              		.loc 1 1347 18 is_stmt 0 view .LVU521
 1355 000c 0123     		movs	r3, #1
 1356 000e 80F83530 		strb	r3, [r0, #53]
1348:Drivers/STM32U5xx_HAL_Driver/Src/stm32u5xx_hal_dcmi.c **** 
1349:Drivers/STM32U5xx_HAL_Driver/Src/stm32u5xx_hal_dcmi.c ****     /* Set DCMI Error Code */
1350:Drivers/STM32U5xx_HAL_Driver/Src/stm32u5xx_hal_dcmi.c ****     hdcmi->ErrorCode |= HAL_DCMI_ERROR_DMA;
 1357              		.loc 1 1350 5 is_stmt 1 view .LVU522
 1358              		.loc 1 1350 10 is_stmt 0 view .LVU523
 1359 0012 C36C     		ldr	r3, [r0, #76]
 1360              		.loc 1 1350 22 view .LVU524
 1361 0014 43F04003 		orr	r3, r3, #64
 1362 0018 C364     		str	r3, [r0, #76]
 1363              	.L77:
1351:Drivers/STM32U5xx_HAL_Driver/Src/stm32u5xx_hal_dcmi.c ****   }
1352:Drivers/STM32U5xx_HAL_Driver/Src/stm32u5xx_hal_dcmi.c **** 
1353:Drivers/STM32U5xx_HAL_Driver/Src/stm32u5xx_hal_dcmi.c ****   /* DCMI error Callback */
1354:Drivers/STM32U5xx_HAL_Driver/Src/stm32u5xx_hal_dcmi.c **** #if (USE_HAL_DCMI_REGISTER_CALLBACKS == 1)
1355:Drivers/STM32U5xx_HAL_Driver/Src/stm32u5xx_hal_dcmi.c ****   /*Call registered DCMI error callback*/
1356:Drivers/STM32U5xx_HAL_Driver/Src/stm32u5xx_hal_dcmi.c ****   hdcmi->ErrorCallback(hdcmi);
1357:Drivers/STM32U5xx_HAL_Driver/Src/stm32u5xx_hal_dcmi.c **** #else
1358:Drivers/STM32U5xx_HAL_Driver/Src/stm32u5xx_hal_dcmi.c ****   HAL_DCMI_ErrorCallback(hdcmi);
 1364              		.loc 1 1358 3 is_stmt 1 view .LVU525
 1365 001a FFF7FEFF 		bl	HAL_DCMI_ErrorCallback
 1366              	.LVL97:
1359:Drivers/STM32U5xx_HAL_Driver/Src/stm32u5xx_hal_dcmi.c **** #endif /* USE_HAL_DCMI_REGISTER_CALLBACKS */
1360:Drivers/STM32U5xx_HAL_Driver/Src/stm32u5xx_hal_dcmi.c **** 
1361:Drivers/STM32U5xx_HAL_Driver/Src/stm32u5xx_hal_dcmi.c **** }
 1367              		.loc 1 1361 1 is_stmt 0 view .LVU526
 1368 001e 08BD     		pop	{r3, pc}
 1369              		.cfi_endproc
 1370              	.LFE177:
 1372              		.section	.text.HAL_DCMI_LineEventCallback,"ax",%progbits
 1373              		.align	1
 1374              		.weak	HAL_DCMI_LineEventCallback
 1375              		.syntax unified
 1376              		.thumb
 1377              		.thumb_func
 1379              	HAL_DCMI_LineEventCallback:
 1380              	.LVL98:
 1381              	.LFB167:
 845:Drivers/STM32U5xx_HAL_Driver/Src/stm32u5xx_hal_dcmi.c ****   /* Prevent unused argument(s) compilation warning */
 1382              		.loc 1 845 1 is_stmt 1 view -0
 1383              		.cfi_startproc
 1384              		@ args = 0, pretend = 0, frame = 0
 1385              		@ frame_needed = 0, uses_anonymous_args = 0
 1386              		@ link register save eliminated.
ARM GAS  C:\usertemp\ccMMWJQW.s 			page 57


 847:Drivers/STM32U5xx_HAL_Driver/Src/stm32u5xx_hal_dcmi.c ****   /* NOTE : This function Should not be modified, when the callback is needed,
 1387              		.loc 1 847 3 view .LVU528
 851:Drivers/STM32U5xx_HAL_Driver/Src/stm32u5xx_hal_dcmi.c **** 
 1388              		.loc 1 851 1 is_stmt 0 view .LVU529
 1389 0000 7047     		bx	lr
 1390              		.cfi_endproc
 1391              	.LFE167:
 1393              		.section	.text.HAL_DCMI_VsyncEventCallback,"ax",%progbits
 1394              		.align	1
 1395              		.weak	HAL_DCMI_VsyncEventCallback
 1396              		.syntax unified
 1397              		.thumb
 1398              		.thumb_func
 1400              	HAL_DCMI_VsyncEventCallback:
 1401              	.LVL99:
 1402              	.LFB168:
 860:Drivers/STM32U5xx_HAL_Driver/Src/stm32u5xx_hal_dcmi.c ****   /* Prevent unused argument(s) compilation warning */
 1403              		.loc 1 860 1 is_stmt 1 view -0
 1404              		.cfi_startproc
 1405              		@ args = 0, pretend = 0, frame = 0
 1406              		@ frame_needed = 0, uses_anonymous_args = 0
 1407              		@ link register save eliminated.
 862:Drivers/STM32U5xx_HAL_Driver/Src/stm32u5xx_hal_dcmi.c **** 
 1408              		.loc 1 862 3 view .LVU531
 867:Drivers/STM32U5xx_HAL_Driver/Src/stm32u5xx_hal_dcmi.c **** 
 1409              		.loc 1 867 1 is_stmt 0 view .LVU532
 1410 0000 7047     		bx	lr
 1411              		.cfi_endproc
 1412              	.LFE168:
 1414              		.section	.text.HAL_DCMI_FrameEventCallback,"ax",%progbits
 1415              		.align	1
 1416              		.weak	HAL_DCMI_FrameEventCallback
 1417              		.syntax unified
 1418              		.thumb
 1419              		.thumb_func
 1421              	HAL_DCMI_FrameEventCallback:
 1422              	.LVL100:
 1423              	.LFB169:
 876:Drivers/STM32U5xx_HAL_Driver/Src/stm32u5xx_hal_dcmi.c ****   /* Prevent unused argument(s) compilation warning */
 1424              		.loc 1 876 1 is_stmt 1 view -0
 1425              		.cfi_startproc
 1426              		@ args = 0, pretend = 0, frame = 0
 1427              		@ frame_needed = 0, uses_anonymous_args = 0
 1428              		@ link register save eliminated.
 878:Drivers/STM32U5xx_HAL_Driver/Src/stm32u5xx_hal_dcmi.c **** 
 1429              		.loc 1 878 3 view .LVU534
 883:Drivers/STM32U5xx_HAL_Driver/Src/stm32u5xx_hal_dcmi.c **** 
 1430              		.loc 1 883 1 is_stmt 0 view .LVU535
 1431 0000 7047     		bx	lr
 1432              		.cfi_endproc
 1433              	.LFE169:
 1435              		.section	.text.HAL_DCMI_IRQHandler,"ax",%progbits
 1436              		.align	1
 1437              		.global	HAL_DCMI_IRQHandler
 1438              		.syntax unified
 1439              		.thumb
 1440              		.thumb_func
ARM GAS  C:\usertemp\ccMMWJQW.s 			page 58


 1442              	HAL_DCMI_IRQHandler:
 1443              	.LVL101:
 1444              	.LFB165:
 723:Drivers/STM32U5xx_HAL_Driver/Src/stm32u5xx_hal_dcmi.c ****   uint32_t isr_value = READ_REG(hdcmi->Instance->MISR);
 1445              		.loc 1 723 1 is_stmt 1 view -0
 1446              		.cfi_startproc
 1447              		@ args = 0, pretend = 0, frame = 0
 1448              		@ frame_needed = 0, uses_anonymous_args = 0
 723:Drivers/STM32U5xx_HAL_Driver/Src/stm32u5xx_hal_dcmi.c ****   uint32_t isr_value = READ_REG(hdcmi->Instance->MISR);
 1449              		.loc 1 723 1 is_stmt 0 view .LVU537
 1450 0000 38B5     		push	{r3, r4, r5, lr}
 1451              	.LCFI10:
 1452              		.cfi_def_cfa_offset 16
 1453              		.cfi_offset 3, -16
 1454              		.cfi_offset 4, -12
 1455              		.cfi_offset 5, -8
 1456              		.cfi_offset 14, -4
 1457 0002 0446     		mov	r4, r0
 724:Drivers/STM32U5xx_HAL_Driver/Src/stm32u5xx_hal_dcmi.c **** 
 1458              		.loc 1 724 3 is_stmt 1 view .LVU538
 724:Drivers/STM32U5xx_HAL_Driver/Src/stm32u5xx_hal_dcmi.c **** 
 1459              		.loc 1 724 24 is_stmt 0 view .LVU539
 1460 0004 0368     		ldr	r3, [r0]
 724:Drivers/STM32U5xx_HAL_Driver/Src/stm32u5xx_hal_dcmi.c **** 
 1461              		.loc 1 724 12 view .LVU540
 1462 0006 1D69     		ldr	r5, [r3, #16]
 1463              	.LVL102:
 727:Drivers/STM32U5xx_HAL_Driver/Src/stm32u5xx_hal_dcmi.c ****   {
 1464              		.loc 1 727 3 is_stmt 1 view .LVU541
 727:Drivers/STM32U5xx_HAL_Driver/Src/stm32u5xx_hal_dcmi.c ****   {
 1465              		.loc 1 727 6 is_stmt 0 view .LVU542
 1466 0008 15F0040F 		tst	r5, #4
 1467 000c 20D1     		bne	.L90
 1468              	.LVL103:
 1469              	.L83:
 748:Drivers/STM32U5xx_HAL_Driver/Src/stm32u5xx_hal_dcmi.c ****   {
 1470              		.loc 1 748 3 is_stmt 1 view .LVU543
 748:Drivers/STM32U5xx_HAL_Driver/Src/stm32u5xx_hal_dcmi.c ****   {
 1471              		.loc 1 748 6 is_stmt 0 view .LVU544
 1472 000e 15F0020F 		tst	r5, #2
 1473 0012 31D1     		bne	.L91
 1474              	.L84:
 769:Drivers/STM32U5xx_HAL_Driver/Src/stm32u5xx_hal_dcmi.c ****   {
 1475              		.loc 1 769 3 is_stmt 1 view .LVU545
 769:Drivers/STM32U5xx_HAL_Driver/Src/stm32u5xx_hal_dcmi.c ****   {
 1476              		.loc 1 769 6 is_stmt 0 view .LVU546
 1477 0014 15F0100F 		tst	r5, #16
 1478 0018 44D1     		bne	.L92
 1479              	.L85:
 783:Drivers/STM32U5xx_HAL_Driver/Src/stm32u5xx_hal_dcmi.c ****   {
 1480              		.loc 1 783 3 is_stmt 1 view .LVU547
 783:Drivers/STM32U5xx_HAL_Driver/Src/stm32u5xx_hal_dcmi.c ****   {
 1481              		.loc 1 783 6 is_stmt 0 view .LVU548
 1482 001a 15F0080F 		tst	r5, #8
 1483 001e 48D1     		bne	.L93
 1484              	.L86:
 797:Drivers/STM32U5xx_HAL_Driver/Src/stm32u5xx_hal_dcmi.c ****   {
ARM GAS  C:\usertemp\ccMMWJQW.s 			page 59


 1485              		.loc 1 797 3 is_stmt 1 view .LVU549
 797:Drivers/STM32U5xx_HAL_Driver/Src/stm32u5xx_hal_dcmi.c ****   {
 1486              		.loc 1 797 6 is_stmt 0 view .LVU550
 1487 0020 15F0010F 		tst	r5, #1
 1488 0024 13D0     		beq	.L82
 800:Drivers/STM32U5xx_HAL_Driver/Src/stm32u5xx_hal_dcmi.c ****     {
 1489              		.loc 1 800 5 is_stmt 1 view .LVU551
 800:Drivers/STM32U5xx_HAL_Driver/Src/stm32u5xx_hal_dcmi.c ****     {
 1490              		.loc 1 800 15 is_stmt 0 view .LVU552
 1491 0026 2368     		ldr	r3, [r4]
 800:Drivers/STM32U5xx_HAL_Driver/Src/stm32u5xx_hal_dcmi.c ****     {
 1492              		.loc 1 800 25 view .LVU553
 1493 0028 1A68     		ldr	r2, [r3]
 800:Drivers/STM32U5xx_HAL_Driver/Src/stm32u5xx_hal_dcmi.c ****     {
 1494              		.loc 1 800 8 view .LVU554
 1495 002a 12F0020F 		tst	r2, #2
 1496 002e 03D0     		beq	.L88
 803:Drivers/STM32U5xx_HAL_Driver/Src/stm32u5xx_hal_dcmi.c ****     }
 1497              		.loc 1 803 7 is_stmt 1 view .LVU555
 1498 0030 DA68     		ldr	r2, [r3, #12]
 1499 0032 22F01E02 		bic	r2, r2, #30
 1500 0036 DA60     		str	r2, [r3, #12]
 1501              	.L88:
 807:Drivers/STM32U5xx_HAL_Driver/Src/stm32u5xx_hal_dcmi.c **** 
 1502              		.loc 1 807 5 view .LVU556
 1503 0038 2268     		ldr	r2, [r4]
 1504 003a D368     		ldr	r3, [r2, #12]
 1505 003c 23F00103 		bic	r3, r3, #1
 1506 0040 D360     		str	r3, [r2, #12]
 810:Drivers/STM32U5xx_HAL_Driver/Src/stm32u5xx_hal_dcmi.c **** 
 1507              		.loc 1 810 5 view .LVU557
 1508 0042 2368     		ldr	r3, [r4]
 1509 0044 0122     		movs	r2, #1
 1510 0046 5A61     		str	r2, [r3, #20]
 817:Drivers/STM32U5xx_HAL_Driver/Src/stm32u5xx_hal_dcmi.c **** #endif /* USE_HAL_DCMI_REGISTER_CALLBACKS */
 1511              		.loc 1 817 5 view .LVU558
 1512 0048 2046     		mov	r0, r4
 1513 004a FFF7FEFF 		bl	HAL_DCMI_FrameEventCallback
 1514              	.LVL104:
 1515              	.L82:
 820:Drivers/STM32U5xx_HAL_Driver/Src/stm32u5xx_hal_dcmi.c **** 
 1516              		.loc 1 820 1 is_stmt 0 view .LVU559
 1517 004e 38BD     		pop	{r3, r4, r5, pc}
 1518              	.LVL105:
 1519              	.L90:
 730:Drivers/STM32U5xx_HAL_Driver/Src/stm32u5xx_hal_dcmi.c **** 
 1520              		.loc 1 730 5 is_stmt 1 view .LVU560
 1521 0050 0422     		movs	r2, #4
 1522 0052 5A61     		str	r2, [r3, #20]
 733:Drivers/STM32U5xx_HAL_Driver/Src/stm32u5xx_hal_dcmi.c **** 
 1523              		.loc 1 733 5 view .LVU561
 733:Drivers/STM32U5xx_HAL_Driver/Src/stm32u5xx_hal_dcmi.c **** 
 1524              		.loc 1 733 10 is_stmt 0 view .LVU562
 1525 0054 C36C     		ldr	r3, [r0, #76]
 733:Drivers/STM32U5xx_HAL_Driver/Src/stm32u5xx_hal_dcmi.c **** 
 1526              		.loc 1 733 22 view .LVU563
 1527 0056 43F00203 		orr	r3, r3, #2
ARM GAS  C:\usertemp\ccMMWJQW.s 			page 60


 1528 005a C364     		str	r3, [r0, #76]
 736:Drivers/STM32U5xx_HAL_Driver/Src/stm32u5xx_hal_dcmi.c **** 
 1529              		.loc 1 736 5 is_stmt 1 view .LVU564
 736:Drivers/STM32U5xx_HAL_Driver/Src/stm32u5xx_hal_dcmi.c **** 
 1530              		.loc 1 736 18 is_stmt 0 view .LVU565
 1531 005c 80F83520 		strb	r2, [r0, #53]
 739:Drivers/STM32U5xx_HAL_Driver/Src/stm32u5xx_hal_dcmi.c **** 
 1532              		.loc 1 739 5 is_stmt 1 view .LVU566
 739:Drivers/STM32U5xx_HAL_Driver/Src/stm32u5xx_hal_dcmi.c **** 
 1533              		.loc 1 739 10 is_stmt 0 view .LVU567
 1534 0060 836C     		ldr	r3, [r0, #72]
 739:Drivers/STM32U5xx_HAL_Driver/Src/stm32u5xx_hal_dcmi.c **** 
 1535              		.loc 1 739 42 view .LVU568
 1536 0062 174A     		ldr	r2, .L94
 1537 0064 DA66     		str	r2, [r3, #108]
 742:Drivers/STM32U5xx_HAL_Driver/Src/stm32u5xx_hal_dcmi.c ****     {
 1538              		.loc 1 742 5 is_stmt 1 view .LVU569
 742:Drivers/STM32U5xx_HAL_Driver/Src/stm32u5xx_hal_dcmi.c ****     {
 1539              		.loc 1 742 9 is_stmt 0 view .LVU570
 1540 0066 806C     		ldr	r0, [r0, #72]
 1541              	.LVL106:
 742:Drivers/STM32U5xx_HAL_Driver/Src/stm32u5xx_hal_dcmi.c ****     {
 1542              		.loc 1 742 9 view .LVU571
 1543 0068 FFF7FEFF 		bl	HAL_DMA_Abort_IT
 1544              	.LVL107:
 742:Drivers/STM32U5xx_HAL_Driver/Src/stm32u5xx_hal_dcmi.c ****     {
 1545              		.loc 1 742 8 discriminator 1 view .LVU572
 1546 006c 0028     		cmp	r0, #0
 1547 006e CED0     		beq	.L83
 744:Drivers/STM32U5xx_HAL_Driver/Src/stm32u5xx_hal_dcmi.c ****     }
 1548              		.loc 1 744 7 is_stmt 1 view .LVU573
 1549 0070 A06C     		ldr	r0, [r4, #72]
 1550 0072 FFF7FEFF 		bl	DCMI_DMAError
 1551              	.LVL108:
 1552 0076 CAE7     		b	.L83
 1553              	.L91:
 751:Drivers/STM32U5xx_HAL_Driver/Src/stm32u5xx_hal_dcmi.c **** 
 1554              		.loc 1 751 5 view .LVU574
 1555 0078 2368     		ldr	r3, [r4]
 1556 007a 0222     		movs	r2, #2
 1557 007c 5A61     		str	r2, [r3, #20]
 754:Drivers/STM32U5xx_HAL_Driver/Src/stm32u5xx_hal_dcmi.c **** 
 1558              		.loc 1 754 5 view .LVU575
 754:Drivers/STM32U5xx_HAL_Driver/Src/stm32u5xx_hal_dcmi.c **** 
 1559              		.loc 1 754 10 is_stmt 0 view .LVU576
 1560 007e E36C     		ldr	r3, [r4, #76]
 754:Drivers/STM32U5xx_HAL_Driver/Src/stm32u5xx_hal_dcmi.c **** 
 1561              		.loc 1 754 22 view .LVU577
 1562 0080 43F00103 		orr	r3, r3, #1
 1563 0084 E364     		str	r3, [r4, #76]
 757:Drivers/STM32U5xx_HAL_Driver/Src/stm32u5xx_hal_dcmi.c **** 
 1564              		.loc 1 757 5 is_stmt 1 view .LVU578
 757:Drivers/STM32U5xx_HAL_Driver/Src/stm32u5xx_hal_dcmi.c **** 
 1565              		.loc 1 757 18 is_stmt 0 view .LVU579
 1566 0086 0423     		movs	r3, #4
 1567 0088 84F83530 		strb	r3, [r4, #53]
 760:Drivers/STM32U5xx_HAL_Driver/Src/stm32u5xx_hal_dcmi.c **** 
ARM GAS  C:\usertemp\ccMMWJQW.s 			page 61


 1568              		.loc 1 760 5 is_stmt 1 view .LVU580
 760:Drivers/STM32U5xx_HAL_Driver/Src/stm32u5xx_hal_dcmi.c **** 
 1569              		.loc 1 760 10 is_stmt 0 view .LVU581
 1570 008c A36C     		ldr	r3, [r4, #72]
 760:Drivers/STM32U5xx_HAL_Driver/Src/stm32u5xx_hal_dcmi.c **** 
 1571              		.loc 1 760 42 view .LVU582
 1572 008e 0C4A     		ldr	r2, .L94
 1573 0090 DA66     		str	r2, [r3, #108]
 763:Drivers/STM32U5xx_HAL_Driver/Src/stm32u5xx_hal_dcmi.c ****     {
 1574              		.loc 1 763 5 is_stmt 1 view .LVU583
 763:Drivers/STM32U5xx_HAL_Driver/Src/stm32u5xx_hal_dcmi.c ****     {
 1575              		.loc 1 763 9 is_stmt 0 view .LVU584
 1576 0092 A06C     		ldr	r0, [r4, #72]
 1577 0094 FFF7FEFF 		bl	HAL_DMA_Abort_IT
 1578              	.LVL109:
 763:Drivers/STM32U5xx_HAL_Driver/Src/stm32u5xx_hal_dcmi.c ****     {
 1579              		.loc 1 763 8 discriminator 1 view .LVU585
 1580 0098 0028     		cmp	r0, #0
 1581 009a BBD0     		beq	.L84
 765:Drivers/STM32U5xx_HAL_Driver/Src/stm32u5xx_hal_dcmi.c ****     }
 1582              		.loc 1 765 7 is_stmt 1 view .LVU586
 1583 009c A06C     		ldr	r0, [r4, #72]
 1584 009e FFF7FEFF 		bl	DCMI_DMAError
 1585              	.LVL110:
 1586 00a2 B7E7     		b	.L84
 1587              	.L92:
 772:Drivers/STM32U5xx_HAL_Driver/Src/stm32u5xx_hal_dcmi.c **** 
 1588              		.loc 1 772 5 view .LVU587
 1589 00a4 2368     		ldr	r3, [r4]
 1590 00a6 1022     		movs	r2, #16
 1591 00a8 5A61     		str	r2, [r3, #20]
 779:Drivers/STM32U5xx_HAL_Driver/Src/stm32u5xx_hal_dcmi.c **** #endif /* USE_HAL_DCMI_REGISTER_CALLBACKS */
 1592              		.loc 1 779 5 view .LVU588
 1593 00aa 2046     		mov	r0, r4
 1594 00ac FFF7FEFF 		bl	HAL_DCMI_LineEventCallback
 1595              	.LVL111:
 1596 00b0 B3E7     		b	.L85
 1597              	.L93:
 786:Drivers/STM32U5xx_HAL_Driver/Src/stm32u5xx_hal_dcmi.c **** 
 1598              		.loc 1 786 5 view .LVU589
 1599 00b2 2368     		ldr	r3, [r4]
 1600 00b4 0822     		movs	r2, #8
 1601 00b6 5A61     		str	r2, [r3, #20]
 793:Drivers/STM32U5xx_HAL_Driver/Src/stm32u5xx_hal_dcmi.c **** #endif /* USE_HAL_DCMI_REGISTER_CALLBACKS */
 1602              		.loc 1 793 5 view .LVU590
 1603 00b8 2046     		mov	r0, r4
 1604 00ba FFF7FEFF 		bl	HAL_DCMI_VsyncEventCallback
 1605              	.LVL112:
 1606 00be AFE7     		b	.L86
 1607              	.L95:
 1608              		.align	2
 1609              	.L94:
 1610 00c0 00000000 		.word	DCMI_DMAError
 1611              		.cfi_endproc
 1612              	.LFE165:
 1614              		.section	.text.HAL_DCMI_ConfigCrop,"ax",%progbits
 1615              		.align	1
ARM GAS  C:\usertemp\ccMMWJQW.s 			page 62


 1616              		.global	HAL_DCMI_ConfigCrop
 1617              		.syntax unified
 1618              		.thumb
 1619              		.thumb_func
 1621              	HAL_DCMI_ConfigCrop:
 1622              	.LVL113:
 1623              	.LFB170:
 917:Drivers/STM32U5xx_HAL_Driver/Src/stm32u5xx_hal_dcmi.c ****   /* Process Locked */
 1624              		.loc 1 917 1 view -0
 1625              		.cfi_startproc
 1626              		@ args = 4, pretend = 0, frame = 0
 1627              		@ frame_needed = 0, uses_anonymous_args = 0
 917:Drivers/STM32U5xx_HAL_Driver/Src/stm32u5xx_hal_dcmi.c ****   /* Process Locked */
 1628              		.loc 1 917 1 is_stmt 0 view .LVU592
 1629 0000 8446     		mov	ip, r0
 919:Drivers/STM32U5xx_HAL_Driver/Src/stm32u5xx_hal_dcmi.c **** 
 1630              		.loc 1 919 3 is_stmt 1 view .LVU593
 919:Drivers/STM32U5xx_HAL_Driver/Src/stm32u5xx_hal_dcmi.c **** 
 1631              		.loc 1 919 3 view .LVU594
 1632 0002 90F83400 		ldrb	r0, [r0, #52]	@ zero_extendqisi2
 1633              	.LVL114:
 919:Drivers/STM32U5xx_HAL_Driver/Src/stm32u5xx_hal_dcmi.c **** 
 1634              		.loc 1 919 3 is_stmt 0 view .LVU595
 1635 0006 0128     		cmp	r0, #1
 1636 0008 18D0     		beq	.L98
 917:Drivers/STM32U5xx_HAL_Driver/Src/stm32u5xx_hal_dcmi.c ****   /* Process Locked */
 1637              		.loc 1 917 1 view .LVU596
 1638 000a 10B5     		push	{r4, lr}
 1639              	.LCFI11:
 1640              		.cfi_def_cfa_offset 8
 1641              		.cfi_offset 4, -8
 1642              		.cfi_offset 14, -4
 919:Drivers/STM32U5xx_HAL_Driver/Src/stm32u5xx_hal_dcmi.c **** 
 1643              		.loc 1 919 3 is_stmt 1 discriminator 2 view .LVU597
 1644 000c 0120     		movs	r0, #1
 1645 000e 8CF83400 		strb	r0, [ip, #52]
 919:Drivers/STM32U5xx_HAL_Driver/Src/stm32u5xx_hal_dcmi.c **** 
 1646              		.loc 1 919 3 discriminator 2 view .LVU598
 922:Drivers/STM32U5xx_HAL_Driver/Src/stm32u5xx_hal_dcmi.c **** 
 1647              		.loc 1 922 3 view .LVU599
 922:Drivers/STM32U5xx_HAL_Driver/Src/stm32u5xx_hal_dcmi.c **** 
 1648              		.loc 1 922 16 is_stmt 0 view .LVU600
 1649 0012 4FF0020E 		mov	lr, #2
 1650 0016 8CF835E0 		strb	lr, [ip, #53]
 925:Drivers/STM32U5xx_HAL_Driver/Src/stm32u5xx_hal_dcmi.c ****   assert_param(IS_DCMI_WINDOW_HEIGHT(Y0));
 1651              		.loc 1 925 3 is_stmt 1 view .LVU601
 926:Drivers/STM32U5xx_HAL_Driver/Src/stm32u5xx_hal_dcmi.c ****   assert_param(IS_DCMI_WINDOW_COORDINATE(XSize));
 1652              		.loc 1 926 3 view .LVU602
 927:Drivers/STM32U5xx_HAL_Driver/Src/stm32u5xx_hal_dcmi.c ****   assert_param(IS_DCMI_WINDOW_COORDINATE(YSize));
 1653              		.loc 1 927 3 view .LVU603
 928:Drivers/STM32U5xx_HAL_Driver/Src/stm32u5xx_hal_dcmi.c **** 
 1654              		.loc 1 928 3 view .LVU604
 931:Drivers/STM32U5xx_HAL_Driver/Src/stm32u5xx_hal_dcmi.c ****   hdcmi->Instance->CWSTRTR = (X0 | (Y0 << DCMI_CWSTRT_VST_Pos));
 1655              		.loc 1 931 3 view .LVU605
 931:Drivers/STM32U5xx_HAL_Driver/Src/stm32u5xx_hal_dcmi.c ****   hdcmi->Instance->CWSTRTR = (X0 | (Y0 << DCMI_CWSTRT_VST_Pos));
 1656              		.loc 1 931 37 is_stmt 0 view .LVU606
 1657 001a 029C     		ldr	r4, [sp, #8]
ARM GAS  C:\usertemp\ccMMWJQW.s 			page 63


 1658 001c 43EA0443 		orr	r3, r3, r4, lsl #16
 1659              	.LVL115:
 931:Drivers/STM32U5xx_HAL_Driver/Src/stm32u5xx_hal_dcmi.c ****   hdcmi->Instance->CWSTRTR = (X0 | (Y0 << DCMI_CWSTRT_VST_Pos));
 1660              		.loc 1 931 28 view .LVU607
 1661 0020 DCF80040 		ldr	r4, [ip]
 1662 0024 6362     		str	r3, [r4, #36]
 932:Drivers/STM32U5xx_HAL_Driver/Src/stm32u5xx_hal_dcmi.c **** 
 1663              		.loc 1 932 3 is_stmt 1 view .LVU608
 932:Drivers/STM32U5xx_HAL_Driver/Src/stm32u5xx_hal_dcmi.c **** 
 1664              		.loc 1 932 8 is_stmt 0 view .LVU609
 1665 0026 DCF80030 		ldr	r3, [ip]
 932:Drivers/STM32U5xx_HAL_Driver/Src/stm32u5xx_hal_dcmi.c **** 
 1666              		.loc 1 932 34 view .LVU610
 1667 002a 41EA0241 		orr	r1, r1, r2, lsl #16
 1668              	.LVL116:
 932:Drivers/STM32U5xx_HAL_Driver/Src/stm32u5xx_hal_dcmi.c **** 
 1669              		.loc 1 932 28 view .LVU611
 1670 002e 1962     		str	r1, [r3, #32]
 935:Drivers/STM32U5xx_HAL_Driver/Src/stm32u5xx_hal_dcmi.c **** 
 1671              		.loc 1 935 3 is_stmt 1 view .LVU612
 935:Drivers/STM32U5xx_HAL_Driver/Src/stm32u5xx_hal_dcmi.c **** 
 1672              		.loc 1 935 17 is_stmt 0 view .LVU613
 1673 0030 8CF83500 		strb	r0, [ip, #53]
 938:Drivers/STM32U5xx_HAL_Driver/Src/stm32u5xx_hal_dcmi.c **** 
 1674              		.loc 1 938 3 is_stmt 1 view .LVU614
 938:Drivers/STM32U5xx_HAL_Driver/Src/stm32u5xx_hal_dcmi.c **** 
 1675              		.loc 1 938 3 view .LVU615
 1676 0034 0020     		movs	r0, #0
 1677 0036 8CF83400 		strb	r0, [ip, #52]
 938:Drivers/STM32U5xx_HAL_Driver/Src/stm32u5xx_hal_dcmi.c **** 
 1678              		.loc 1 938 3 view .LVU616
 940:Drivers/STM32U5xx_HAL_Driver/Src/stm32u5xx_hal_dcmi.c **** }
 1679              		.loc 1 940 3 view .LVU617
 941:Drivers/STM32U5xx_HAL_Driver/Src/stm32u5xx_hal_dcmi.c **** 
 1680              		.loc 1 941 1 is_stmt 0 view .LVU618
 1681 003a 10BD     		pop	{r4, pc}
 1682              	.LVL117:
 1683              	.L98:
 1684              	.LCFI12:
 1685              		.cfi_def_cfa_offset 0
 1686              		.cfi_restore 4
 1687              		.cfi_restore 14
 919:Drivers/STM32U5xx_HAL_Driver/Src/stm32u5xx_hal_dcmi.c **** 
 1688              		.loc 1 919 3 discriminator 1 view .LVU619
 1689 003c 0220     		movs	r0, #2
 941:Drivers/STM32U5xx_HAL_Driver/Src/stm32u5xx_hal_dcmi.c **** 
 1690              		.loc 1 941 1 view .LVU620
 1691 003e 7047     		bx	lr
 1692              		.cfi_endproc
 1693              	.LFE170:
 1695              		.section	.text.HAL_DCMI_DisableCrop,"ax",%progbits
 1696              		.align	1
 1697              		.global	HAL_DCMI_DisableCrop
 1698              		.syntax unified
 1699              		.thumb
 1700              		.thumb_func
 1702              	HAL_DCMI_DisableCrop:
ARM GAS  C:\usertemp\ccMMWJQW.s 			page 64


 1703              	.LVL118:
 1704              	.LFB171:
 950:Drivers/STM32U5xx_HAL_Driver/Src/stm32u5xx_hal_dcmi.c ****   /* Process Locked */
 1705              		.loc 1 950 1 is_stmt 1 view -0
 1706              		.cfi_startproc
 1707              		@ args = 0, pretend = 0, frame = 0
 1708              		@ frame_needed = 0, uses_anonymous_args = 0
 1709              		@ link register save eliminated.
 952:Drivers/STM32U5xx_HAL_Driver/Src/stm32u5xx_hal_dcmi.c **** 
 1710              		.loc 1 952 3 view .LVU622
 952:Drivers/STM32U5xx_HAL_Driver/Src/stm32u5xx_hal_dcmi.c **** 
 1711              		.loc 1 952 3 view .LVU623
 1712 0000 90F83430 		ldrb	r3, [r0, #52]	@ zero_extendqisi2
 1713 0004 012B     		cmp	r3, #1
 1714 0006 11D0     		beq	.L105
 952:Drivers/STM32U5xx_HAL_Driver/Src/stm32u5xx_hal_dcmi.c **** 
 1715              		.loc 1 952 3 discriminator 2 view .LVU624
 1716 0008 0122     		movs	r2, #1
 1717 000a 80F83420 		strb	r2, [r0, #52]
 952:Drivers/STM32U5xx_HAL_Driver/Src/stm32u5xx_hal_dcmi.c **** 
 1718              		.loc 1 952 3 discriminator 2 view .LVU625
 955:Drivers/STM32U5xx_HAL_Driver/Src/stm32u5xx_hal_dcmi.c **** 
 1719              		.loc 1 955 3 view .LVU626
 955:Drivers/STM32U5xx_HAL_Driver/Src/stm32u5xx_hal_dcmi.c **** 
 1720              		.loc 1 955 16 is_stmt 0 view .LVU627
 1721 000e 0223     		movs	r3, #2
 1722 0010 80F83530 		strb	r3, [r0, #53]
 958:Drivers/STM32U5xx_HAL_Driver/Src/stm32u5xx_hal_dcmi.c **** 
 1723              		.loc 1 958 3 is_stmt 1 view .LVU628
 958:Drivers/STM32U5xx_HAL_Driver/Src/stm32u5xx_hal_dcmi.c **** 
 1724              		.loc 1 958 8 is_stmt 0 view .LVU629
 1725 0014 0168     		ldr	r1, [r0]
 958:Drivers/STM32U5xx_HAL_Driver/Src/stm32u5xx_hal_dcmi.c **** 
 1726              		.loc 1 958 18 view .LVU630
 1727 0016 0B68     		ldr	r3, [r1]
 958:Drivers/STM32U5xx_HAL_Driver/Src/stm32u5xx_hal_dcmi.c **** 
 1728              		.loc 1 958 23 view .LVU631
 1729 0018 23F00403 		bic	r3, r3, #4
 1730 001c 0B60     		str	r3, [r1]
 961:Drivers/STM32U5xx_HAL_Driver/Src/stm32u5xx_hal_dcmi.c **** 
 1731              		.loc 1 961 3 is_stmt 1 view .LVU632
 961:Drivers/STM32U5xx_HAL_Driver/Src/stm32u5xx_hal_dcmi.c **** 
 1732              		.loc 1 961 16 is_stmt 0 view .LVU633
 1733 001e 80F83520 		strb	r2, [r0, #53]
 964:Drivers/STM32U5xx_HAL_Driver/Src/stm32u5xx_hal_dcmi.c **** 
 1734              		.loc 1 964 3 is_stmt 1 view .LVU634
 964:Drivers/STM32U5xx_HAL_Driver/Src/stm32u5xx_hal_dcmi.c **** 
 1735              		.loc 1 964 3 view .LVU635
 1736 0022 0023     		movs	r3, #0
 1737 0024 80F83430 		strb	r3, [r0, #52]
 964:Drivers/STM32U5xx_HAL_Driver/Src/stm32u5xx_hal_dcmi.c **** 
 1738              		.loc 1 964 3 view .LVU636
 966:Drivers/STM32U5xx_HAL_Driver/Src/stm32u5xx_hal_dcmi.c **** }
 1739              		.loc 1 966 3 view .LVU637
 966:Drivers/STM32U5xx_HAL_Driver/Src/stm32u5xx_hal_dcmi.c **** }
 1740              		.loc 1 966 10 is_stmt 0 view .LVU638
 1741 0028 1846     		mov	r0, r3
ARM GAS  C:\usertemp\ccMMWJQW.s 			page 65


 1742              	.LVL119:
 966:Drivers/STM32U5xx_HAL_Driver/Src/stm32u5xx_hal_dcmi.c **** }
 1743              		.loc 1 966 10 view .LVU639
 1744 002a 7047     		bx	lr
 1745              	.LVL120:
 1746              	.L105:
 952:Drivers/STM32U5xx_HAL_Driver/Src/stm32u5xx_hal_dcmi.c **** 
 1747              		.loc 1 952 3 discriminator 1 view .LVU640
 1748 002c 0220     		movs	r0, #2
 1749              	.LVL121:
 967:Drivers/STM32U5xx_HAL_Driver/Src/stm32u5xx_hal_dcmi.c **** 
 1750              		.loc 1 967 1 view .LVU641
 1751 002e 7047     		bx	lr
 1752              		.cfi_endproc
 1753              	.LFE171:
 1755              		.section	.text.HAL_DCMI_EnableCrop,"ax",%progbits
 1756              		.align	1
 1757              		.global	HAL_DCMI_EnableCrop
 1758              		.syntax unified
 1759              		.thumb
 1760              		.thumb_func
 1762              	HAL_DCMI_EnableCrop:
 1763              	.LVL122:
 1764              	.LFB172:
 976:Drivers/STM32U5xx_HAL_Driver/Src/stm32u5xx_hal_dcmi.c ****   /* Process Locked */
 1765              		.loc 1 976 1 is_stmt 1 view -0
 1766              		.cfi_startproc
 1767              		@ args = 0, pretend = 0, frame = 0
 1768              		@ frame_needed = 0, uses_anonymous_args = 0
 1769              		@ link register save eliminated.
 978:Drivers/STM32U5xx_HAL_Driver/Src/stm32u5xx_hal_dcmi.c **** 
 1770              		.loc 1 978 3 view .LVU643
 978:Drivers/STM32U5xx_HAL_Driver/Src/stm32u5xx_hal_dcmi.c **** 
 1771              		.loc 1 978 3 view .LVU644
 1772 0000 90F83430 		ldrb	r3, [r0, #52]	@ zero_extendqisi2
 1773 0004 012B     		cmp	r3, #1
 1774 0006 11D0     		beq	.L108
 978:Drivers/STM32U5xx_HAL_Driver/Src/stm32u5xx_hal_dcmi.c **** 
 1775              		.loc 1 978 3 discriminator 2 view .LVU645
 1776 0008 0122     		movs	r2, #1
 1777 000a 80F83420 		strb	r2, [r0, #52]
 978:Drivers/STM32U5xx_HAL_Driver/Src/stm32u5xx_hal_dcmi.c **** 
 1778              		.loc 1 978 3 discriminator 2 view .LVU646
 981:Drivers/STM32U5xx_HAL_Driver/Src/stm32u5xx_hal_dcmi.c **** 
 1779              		.loc 1 981 3 view .LVU647
 981:Drivers/STM32U5xx_HAL_Driver/Src/stm32u5xx_hal_dcmi.c **** 
 1780              		.loc 1 981 16 is_stmt 0 view .LVU648
 1781 000e 0223     		movs	r3, #2
 1782 0010 80F83530 		strb	r3, [r0, #53]
 984:Drivers/STM32U5xx_HAL_Driver/Src/stm32u5xx_hal_dcmi.c **** 
 1783              		.loc 1 984 3 is_stmt 1 view .LVU649
 984:Drivers/STM32U5xx_HAL_Driver/Src/stm32u5xx_hal_dcmi.c **** 
 1784              		.loc 1 984 8 is_stmt 0 view .LVU650
 1785 0014 0168     		ldr	r1, [r0]
 984:Drivers/STM32U5xx_HAL_Driver/Src/stm32u5xx_hal_dcmi.c **** 
 1786              		.loc 1 984 18 view .LVU651
 1787 0016 0B68     		ldr	r3, [r1]
ARM GAS  C:\usertemp\ccMMWJQW.s 			page 66


 984:Drivers/STM32U5xx_HAL_Driver/Src/stm32u5xx_hal_dcmi.c **** 
 1788              		.loc 1 984 23 view .LVU652
 1789 0018 43F00403 		orr	r3, r3, #4
 1790 001c 0B60     		str	r3, [r1]
 987:Drivers/STM32U5xx_HAL_Driver/Src/stm32u5xx_hal_dcmi.c **** 
 1791              		.loc 1 987 3 is_stmt 1 view .LVU653
 987:Drivers/STM32U5xx_HAL_Driver/Src/stm32u5xx_hal_dcmi.c **** 
 1792              		.loc 1 987 16 is_stmt 0 view .LVU654
 1793 001e 80F83520 		strb	r2, [r0, #53]
 990:Drivers/STM32U5xx_HAL_Driver/Src/stm32u5xx_hal_dcmi.c **** 
 1794              		.loc 1 990 3 is_stmt 1 view .LVU655
 990:Drivers/STM32U5xx_HAL_Driver/Src/stm32u5xx_hal_dcmi.c **** 
 1795              		.loc 1 990 3 view .LVU656
 1796 0022 0023     		movs	r3, #0
 1797 0024 80F83430 		strb	r3, [r0, #52]
 990:Drivers/STM32U5xx_HAL_Driver/Src/stm32u5xx_hal_dcmi.c **** 
 1798              		.loc 1 990 3 view .LVU657
 992:Drivers/STM32U5xx_HAL_Driver/Src/stm32u5xx_hal_dcmi.c **** }
 1799              		.loc 1 992 3 view .LVU658
 992:Drivers/STM32U5xx_HAL_Driver/Src/stm32u5xx_hal_dcmi.c **** }
 1800              		.loc 1 992 10 is_stmt 0 view .LVU659
 1801 0028 1846     		mov	r0, r3
 1802              	.LVL123:
 992:Drivers/STM32U5xx_HAL_Driver/Src/stm32u5xx_hal_dcmi.c **** }
 1803              		.loc 1 992 10 view .LVU660
 1804 002a 7047     		bx	lr
 1805              	.LVL124:
 1806              	.L108:
 978:Drivers/STM32U5xx_HAL_Driver/Src/stm32u5xx_hal_dcmi.c **** 
 1807              		.loc 1 978 3 discriminator 1 view .LVU661
 1808 002c 0220     		movs	r0, #2
 1809              	.LVL125:
 993:Drivers/STM32U5xx_HAL_Driver/Src/stm32u5xx_hal_dcmi.c **** 
 1810              		.loc 1 993 1 view .LVU662
 1811 002e 7047     		bx	lr
 1812              		.cfi_endproc
 1813              	.LFE172:
 1815              		.section	.text.HAL_DCMI_ConfigSyncUnmask,"ax",%progbits
 1816              		.align	1
 1817              		.global	HAL_DCMI_ConfigSyncUnmask
 1818              		.syntax unified
 1819              		.thumb
 1820              		.thumb_func
 1822              	HAL_DCMI_ConfigSyncUnmask:
 1823              	.LVL126:
 1824              	.LFB173:
1004:Drivers/STM32U5xx_HAL_Driver/Src/stm32u5xx_hal_dcmi.c ****   /* Process Locked */
 1825              		.loc 1 1004 1 is_stmt 1 view -0
 1826              		.cfi_startproc
 1827              		@ args = 0, pretend = 0, frame = 0
 1828              		@ frame_needed = 0, uses_anonymous_args = 0
 1829              		@ link register save eliminated.
1004:Drivers/STM32U5xx_HAL_Driver/Src/stm32u5xx_hal_dcmi.c ****   /* Process Locked */
 1830              		.loc 1 1004 1 is_stmt 0 view .LVU664
 1831 0000 0346     		mov	r3, r0
1006:Drivers/STM32U5xx_HAL_Driver/Src/stm32u5xx_hal_dcmi.c **** 
 1832              		.loc 1 1006 3 is_stmt 1 view .LVU665
ARM GAS  C:\usertemp\ccMMWJQW.s 			page 67


1006:Drivers/STM32U5xx_HAL_Driver/Src/stm32u5xx_hal_dcmi.c **** 
 1833              		.loc 1 1006 3 view .LVU666
 1834 0002 90F83420 		ldrb	r2, [r0, #52]	@ zero_extendqisi2
 1835 0006 012A     		cmp	r2, #1
 1836 0008 1AD0     		beq	.L111
1006:Drivers/STM32U5xx_HAL_Driver/Src/stm32u5xx_hal_dcmi.c **** 
 1837              		.loc 1 1006 3 discriminator 2 view .LVU667
 1838 000a 0120     		movs	r0, #1
 1839              	.LVL127:
1006:Drivers/STM32U5xx_HAL_Driver/Src/stm32u5xx_hal_dcmi.c **** 
 1840              		.loc 1 1006 3 is_stmt 0 discriminator 2 view .LVU668
 1841 000c 83F83400 		strb	r0, [r3, #52]
1006:Drivers/STM32U5xx_HAL_Driver/Src/stm32u5xx_hal_dcmi.c **** 
 1842              		.loc 1 1006 3 is_stmt 1 discriminator 2 view .LVU669
1009:Drivers/STM32U5xx_HAL_Driver/Src/stm32u5xx_hal_dcmi.c **** 
 1843              		.loc 1 1009 3 view .LVU670
1009:Drivers/STM32U5xx_HAL_Driver/Src/stm32u5xx_hal_dcmi.c **** 
 1844              		.loc 1 1009 16 is_stmt 0 view .LVU671
 1845 0010 0222     		movs	r2, #2
 1846 0012 83F83520 		strb	r2, [r3, #53]
1012:Drivers/STM32U5xx_HAL_Driver/Src/stm32u5xx_hal_dcmi.c ****                            ((uint32_t)SyncUnmask->LineStartUnmask << DCMI_ESUR_LSU_Pos) | \
 1847              		.loc 1 1012 3 is_stmt 1 view .LVU672
1012:Drivers/STM32U5xx_HAL_Driver/Src/stm32u5xx_hal_dcmi.c ****                            ((uint32_t)SyncUnmask->LineStartUnmask << DCMI_ESUR_LSU_Pos) | \
 1848              		.loc 1 1012 49 is_stmt 0 view .LVU673
 1849 0016 0A78     		ldrb	r2, [r1]	@ zero_extendqisi2
1013:Drivers/STM32U5xx_HAL_Driver/Src/stm32u5xx_hal_dcmi.c ****                            ((uint32_t)SyncUnmask->LineEndUnmask << DCMI_ESUR_LEU_Pos) | \
 1850              		.loc 1 1013 49 view .LVU674
 1851 0018 91F801C0 		ldrb	ip, [r1, #1]	@ zero_extendqisi2
1012:Drivers/STM32U5xx_HAL_Driver/Src/stm32u5xx_hal_dcmi.c ****                            ((uint32_t)SyncUnmask->LineStartUnmask << DCMI_ESUR_LSU_Pos) | \
 1852              		.loc 1 1012 69 view .LVU675
 1853 001c 42EA0C22 		orr	r2, r2, ip, lsl #8
1014:Drivers/STM32U5xx_HAL_Driver/Src/stm32u5xx_hal_dcmi.c ****                            ((uint32_t)SyncUnmask->FrameEndUnmask << DCMI_ESUR_FEU_Pos));
 1854              		.loc 1 1014 49 view .LVU676
 1855 0020 91F802C0 		ldrb	ip, [r1, #2]	@ zero_extendqisi2
1013:Drivers/STM32U5xx_HAL_Driver/Src/stm32u5xx_hal_dcmi.c ****                            ((uint32_t)SyncUnmask->LineEndUnmask << DCMI_ESUR_LEU_Pos) | \
 1856              		.loc 1 1013 89 view .LVU677
 1857 0024 42EA0C42 		orr	r2, r2, ip, lsl #16
1015:Drivers/STM32U5xx_HAL_Driver/Src/stm32u5xx_hal_dcmi.c **** 
 1858              		.loc 1 1015 49 view .LVU678
 1859 0028 91F803C0 		ldrb	ip, [r1, #3]	@ zero_extendqisi2
1012:Drivers/STM32U5xx_HAL_Driver/Src/stm32u5xx_hal_dcmi.c ****                            ((uint32_t)SyncUnmask->LineStartUnmask << DCMI_ESUR_LSU_Pos) | \
 1860              		.loc 1 1012 8 view .LVU679
 1861 002c 1968     		ldr	r1, [r3]
 1862              	.LVL128:
1014:Drivers/STM32U5xx_HAL_Driver/Src/stm32u5xx_hal_dcmi.c ****                            ((uint32_t)SyncUnmask->FrameEndUnmask << DCMI_ESUR_FEU_Pos));
 1863              		.loc 1 1014 87 view .LVU680
 1864 002e 42EA0C62 		orr	r2, r2, ip, lsl #24
1012:Drivers/STM32U5xx_HAL_Driver/Src/stm32u5xx_hal_dcmi.c ****                            ((uint32_t)SyncUnmask->LineStartUnmask << DCMI_ESUR_LSU_Pos) | \
 1865              		.loc 1 1012 25 view .LVU681
 1866 0032 CA61     		str	r2, [r1, #28]
1018:Drivers/STM32U5xx_HAL_Driver/Src/stm32u5xx_hal_dcmi.c **** 
 1867              		.loc 1 1018 3 is_stmt 1 view .LVU682
1018:Drivers/STM32U5xx_HAL_Driver/Src/stm32u5xx_hal_dcmi.c **** 
 1868              		.loc 1 1018 16 is_stmt 0 view .LVU683
 1869 0034 83F83500 		strb	r0, [r3, #53]
1021:Drivers/STM32U5xx_HAL_Driver/Src/stm32u5xx_hal_dcmi.c **** 
 1870              		.loc 1 1021 3 is_stmt 1 view .LVU684
ARM GAS  C:\usertemp\ccMMWJQW.s 			page 68


1021:Drivers/STM32U5xx_HAL_Driver/Src/stm32u5xx_hal_dcmi.c **** 
 1871              		.loc 1 1021 3 view .LVU685
 1872 0038 0020     		movs	r0, #0
 1873 003a 83F83400 		strb	r0, [r3, #52]
1021:Drivers/STM32U5xx_HAL_Driver/Src/stm32u5xx_hal_dcmi.c **** 
 1874              		.loc 1 1021 3 view .LVU686
1023:Drivers/STM32U5xx_HAL_Driver/Src/stm32u5xx_hal_dcmi.c **** }
 1875              		.loc 1 1023 3 view .LVU687
1023:Drivers/STM32U5xx_HAL_Driver/Src/stm32u5xx_hal_dcmi.c **** }
 1876              		.loc 1 1023 10 is_stmt 0 view .LVU688
 1877 003e 7047     		bx	lr
 1878              	.LVL129:
 1879              	.L111:
1006:Drivers/STM32U5xx_HAL_Driver/Src/stm32u5xx_hal_dcmi.c **** 
 1880              		.loc 1 1006 3 discriminator 1 view .LVU689
 1881 0040 0220     		movs	r0, #2
 1882              	.LVL130:
1024:Drivers/STM32U5xx_HAL_Driver/Src/stm32u5xx_hal_dcmi.c **** 
 1883              		.loc 1 1024 1 view .LVU690
 1884 0042 7047     		bx	lr
 1885              		.cfi_endproc
 1886              	.LFE173:
 1888              		.section	.text.HAL_DCMI_GetState,"ax",%progbits
 1889              		.align	1
 1890              		.global	HAL_DCMI_GetState
 1891              		.syntax unified
 1892              		.thumb
 1893              		.thumb_func
 1895              	HAL_DCMI_GetState:
 1896              	.LVL131:
 1897              	.LFB174:
1053:Drivers/STM32U5xx_HAL_Driver/Src/stm32u5xx_hal_dcmi.c ****   return hdcmi->State;
 1898              		.loc 1 1053 1 is_stmt 1 view -0
 1899              		.cfi_startproc
 1900              		@ args = 0, pretend = 0, frame = 0
 1901              		@ frame_needed = 0, uses_anonymous_args = 0
 1902              		@ link register save eliminated.
1054:Drivers/STM32U5xx_HAL_Driver/Src/stm32u5xx_hal_dcmi.c **** }
 1903              		.loc 1 1054 3 view .LVU692
1054:Drivers/STM32U5xx_HAL_Driver/Src/stm32u5xx_hal_dcmi.c **** }
 1904              		.loc 1 1054 15 is_stmt 0 view .LVU693
 1905 0000 90F83500 		ldrb	r0, [r0, #53]	@ zero_extendqisi2
 1906              	.LVL132:
1055:Drivers/STM32U5xx_HAL_Driver/Src/stm32u5xx_hal_dcmi.c **** 
 1907              		.loc 1 1055 1 view .LVU694
 1908 0004 7047     		bx	lr
 1909              		.cfi_endproc
 1910              	.LFE174:
 1912              		.section	.text.HAL_DCMI_GetError,"ax",%progbits
 1913              		.align	1
 1914              		.global	HAL_DCMI_GetError
 1915              		.syntax unified
 1916              		.thumb
 1917              		.thumb_func
 1919              	HAL_DCMI_GetError:
 1920              	.LVL133:
 1921              	.LFB175:
ARM GAS  C:\usertemp\ccMMWJQW.s 			page 69


1064:Drivers/STM32U5xx_HAL_Driver/Src/stm32u5xx_hal_dcmi.c ****   return hdcmi->ErrorCode;
 1922              		.loc 1 1064 1 is_stmt 1 view -0
 1923              		.cfi_startproc
 1924              		@ args = 0, pretend = 0, frame = 0
 1925              		@ frame_needed = 0, uses_anonymous_args = 0
 1926              		@ link register save eliminated.
1065:Drivers/STM32U5xx_HAL_Driver/Src/stm32u5xx_hal_dcmi.c **** }
 1927              		.loc 1 1065 3 view .LVU696
1065:Drivers/STM32U5xx_HAL_Driver/Src/stm32u5xx_hal_dcmi.c **** }
 1928              		.loc 1 1065 15 is_stmt 0 view .LVU697
 1929 0000 C06C     		ldr	r0, [r0, #76]
 1930              	.LVL134:
1066:Drivers/STM32U5xx_HAL_Driver/Src/stm32u5xx_hal_dcmi.c **** 
 1931              		.loc 1 1066 1 view .LVU698
 1932 0002 7047     		bx	lr
 1933              		.cfi_endproc
 1934              	.LFE175:
 1936              		.text
 1937              	.Letext0:
 1938              		.file 2 "D:/armtoolchain/arm-gnu-toolchain-13.3.rel1-mingw-w64-i686-arm-none-eabi/arm-none-eabi/in
 1939              		.file 3 "D:/armtoolchain/arm-gnu-toolchain-13.3.rel1-mingw-w64-i686-arm-none-eabi/arm-none-eabi/in
 1940              		.file 4 "Drivers/CMSIS/Device/ST/STM32U5xx/Include/stm32u575xx.h"
 1941              		.file 5 "Drivers/STM32U5xx_HAL_Driver/Inc/stm32u5xx_hal_def.h"
 1942              		.file 6 "Drivers/STM32U5xx_HAL_Driver/Inc/stm32u5xx_hal_dma.h"
 1943              		.file 7 "Drivers/STM32U5xx_HAL_Driver/Inc/stm32u5xx_hal_dma_ex.h"
 1944              		.file 8 "Drivers/STM32U5xx_HAL_Driver/Inc/stm32u5xx_hal_dcmi.h"
 1945              		.file 9 "Drivers/CMSIS/Device/ST/STM32U5xx/Include/system_stm32u5xx.h"
ARM GAS  C:\usertemp\ccMMWJQW.s 			page 70


DEFINED SYMBOLS
                            *ABS*:00000000 stm32u5xx_hal_dcmi.c
C:\usertemp\ccMMWJQW.s:22     .text.DCMI_DMAXferCplt:00000000 $t
C:\usertemp\ccMMWJQW.s:27     .text.DCMI_DMAXferCplt:00000000 DCMI_DMAXferCplt
C:\usertemp\ccMMWJQW.s:229    .text.HAL_DCMI_MspInit:00000000 $t
C:\usertemp\ccMMWJQW.s:235    .text.HAL_DCMI_MspInit:00000000 HAL_DCMI_MspInit
C:\usertemp\ccMMWJQW.s:250    .text.HAL_DCMI_Init:00000000 $t
C:\usertemp\ccMMWJQW.s:256    .text.HAL_DCMI_Init:00000000 HAL_DCMI_Init
C:\usertemp\ccMMWJQW.s:432    .text.HAL_DCMI_Init:0000009c $d
C:\usertemp\ccMMWJQW.s:437    .text.HAL_DCMI_MspDeInit:00000000 $t
C:\usertemp\ccMMWJQW.s:443    .text.HAL_DCMI_MspDeInit:00000000 HAL_DCMI_MspDeInit
C:\usertemp\ccMMWJQW.s:458    .text.HAL_DCMI_DeInit:00000000 $t
C:\usertemp\ccMMWJQW.s:464    .text.HAL_DCMI_DeInit:00000000 HAL_DCMI_DeInit
C:\usertemp\ccMMWJQW.s:500    .text.HAL_DCMI_Start_DMA:00000000 $t
C:\usertemp\ccMMWJQW.s:506    .text.HAL_DCMI_Start_DMA:00000000 HAL_DCMI_Start_DMA
C:\usertemp\ccMMWJQW.s:965    .text.HAL_DCMI_Start_DMA:000001a4 $d
C:\usertemp\ccMMWJQW.s:1328   .text.DCMI_DMAError:00000000 DCMI_DMAError
C:\usertemp\ccMMWJQW.s:971    .text.HAL_DCMI_Stop:00000000 $t
C:\usertemp\ccMMWJQW.s:977    .text.HAL_DCMI_Stop:00000000 HAL_DCMI_Stop
C:\usertemp\ccMMWJQW.s:1102   .text.HAL_DCMI_Stop:0000007c $d
C:\usertemp\ccMMWJQW.s:1108   .text.HAL_DCMI_Suspend:00000000 $t
C:\usertemp\ccMMWJQW.s:1114   .text.HAL_DCMI_Suspend:00000000 HAL_DCMI_Suspend
C:\usertemp\ccMMWJQW.s:1229   .text.HAL_DCMI_Suspend:00000070 $d
C:\usertemp\ccMMWJQW.s:1235   .text.HAL_DCMI_Resume:00000000 $t
C:\usertemp\ccMMWJQW.s:1241   .text.HAL_DCMI_Resume:00000000 HAL_DCMI_Resume
C:\usertemp\ccMMWJQW.s:1302   .text.HAL_DCMI_ErrorCallback:00000000 $t
C:\usertemp\ccMMWJQW.s:1308   .text.HAL_DCMI_ErrorCallback:00000000 HAL_DCMI_ErrorCallback
C:\usertemp\ccMMWJQW.s:1323   .text.DCMI_DMAError:00000000 $t
C:\usertemp\ccMMWJQW.s:1373   .text.HAL_DCMI_LineEventCallback:00000000 $t
C:\usertemp\ccMMWJQW.s:1379   .text.HAL_DCMI_LineEventCallback:00000000 HAL_DCMI_LineEventCallback
C:\usertemp\ccMMWJQW.s:1394   .text.HAL_DCMI_VsyncEventCallback:00000000 $t
C:\usertemp\ccMMWJQW.s:1400   .text.HAL_DCMI_VsyncEventCallback:00000000 HAL_DCMI_VsyncEventCallback
C:\usertemp\ccMMWJQW.s:1415   .text.HAL_DCMI_FrameEventCallback:00000000 $t
C:\usertemp\ccMMWJQW.s:1421   .text.HAL_DCMI_FrameEventCallback:00000000 HAL_DCMI_FrameEventCallback
C:\usertemp\ccMMWJQW.s:1436   .text.HAL_DCMI_IRQHandler:00000000 $t
C:\usertemp\ccMMWJQW.s:1442   .text.HAL_DCMI_IRQHandler:00000000 HAL_DCMI_IRQHandler
C:\usertemp\ccMMWJQW.s:1610   .text.HAL_DCMI_IRQHandler:000000c0 $d
C:\usertemp\ccMMWJQW.s:1615   .text.HAL_DCMI_ConfigCrop:00000000 $t
C:\usertemp\ccMMWJQW.s:1621   .text.HAL_DCMI_ConfigCrop:00000000 HAL_DCMI_ConfigCrop
C:\usertemp\ccMMWJQW.s:1696   .text.HAL_DCMI_DisableCrop:00000000 $t
C:\usertemp\ccMMWJQW.s:1702   .text.HAL_DCMI_DisableCrop:00000000 HAL_DCMI_DisableCrop
C:\usertemp\ccMMWJQW.s:1756   .text.HAL_DCMI_EnableCrop:00000000 $t
C:\usertemp\ccMMWJQW.s:1762   .text.HAL_DCMI_EnableCrop:00000000 HAL_DCMI_EnableCrop
C:\usertemp\ccMMWJQW.s:1816   .text.HAL_DCMI_ConfigSyncUnmask:00000000 $t
C:\usertemp\ccMMWJQW.s:1822   .text.HAL_DCMI_ConfigSyncUnmask:00000000 HAL_DCMI_ConfigSyncUnmask
C:\usertemp\ccMMWJQW.s:1889   .text.HAL_DCMI_GetState:00000000 $t
C:\usertemp\ccMMWJQW.s:1895   .text.HAL_DCMI_GetState:00000000 HAL_DCMI_GetState
C:\usertemp\ccMMWJQW.s:1913   .text.HAL_DCMI_GetError:00000000 $t
C:\usertemp\ccMMWJQW.s:1919   .text.HAL_DCMI_GetError:00000000 HAL_DCMI_GetError

UNDEFINED SYMBOLS
HAL_DMAEx_List_Start_IT
HAL_DMA_Start_IT
HAL_DMA_Abort
SystemCoreClock
HAL_DMA_Abort_IT
