ARM GAS  C:\usertemp\ccReNste.s 			page 1


   1              		.cpu cortex-m33
   2              		.arch armv8-m.main
   3              		.fpu fpv4-sp-d16
   4              		.arch_extension dsp
   5              		.eabi_attribute 27, 1
   6              		.eabi_attribute 28, 1
   7              		.eabi_attribute 20, 1
   8              		.eabi_attribute 21, 1
   9              		.eabi_attribute 23, 3
  10              		.eabi_attribute 24, 1
  11              		.eabi_attribute 25, 1
  12              		.eabi_attribute 26, 1
  13              		.eabi_attribute 30, 1
  14              		.eabi_attribute 34, 1
  15              		.eabi_attribute 18, 4
  16              		.file	"usart.c"
  17              		.text
  18              	.Ltext0:
  19              		.cfi_sections	.debug_frame
  20              		.file 1 "Core/Src/usart.c"
  21              		.section	.text.__io_putchar,"ax",%progbits
  22              		.align	1
  23              		.global	__io_putchar
  24              		.syntax unified
  25              		.thumb
  26              		.thumb_func
  28              	__io_putchar:
  29              	.LVL0:
  30              	.LFB157:
   1:Core/Src/usart.c **** /* USER CODE BEGIN Header */
   2:Core/Src/usart.c **** /**
   3:Core/Src/usart.c ****   ******************************************************************************
   4:Core/Src/usart.c ****   * @file    usart.c
   5:Core/Src/usart.c ****   * @brief   This file provides code for the configuration
   6:Core/Src/usart.c ****   *          of the USART instances.
   7:Core/Src/usart.c ****   ******************************************************************************
   8:Core/Src/usart.c ****   * @attention
   9:Core/Src/usart.c ****   *
  10:Core/Src/usart.c ****   * Copyright (c) 2025 STMicroelectronics.
  11:Core/Src/usart.c ****   * All rights reserved.
  12:Core/Src/usart.c ****   *
  13:Core/Src/usart.c ****   * This software is licensed under terms that can be found in the LICENSE file
  14:Core/Src/usart.c ****   * in the root directory of this software component.
  15:Core/Src/usart.c ****   * If no LICENSE file comes with this software, it is provided AS-IS.
  16:Core/Src/usart.c ****   *
  17:Core/Src/usart.c ****   ******************************************************************************
  18:Core/Src/usart.c ****   */
  19:Core/Src/usart.c **** /* USER CODE END Header */
  20:Core/Src/usart.c **** /* Includes ------------------------------------------------------------------*/
  21:Core/Src/usart.c **** #include "usart.h"
  22:Core/Src/usart.c **** 
  23:Core/Src/usart.c **** /* USER CODE BEGIN 0 */
  24:Core/Src/usart.c **** #ifdef __GNUC__
  25:Core/Src/usart.c **** #define PUTCHAR_PROTOTYPE int __io_putchar(int ch)
  26:Core/Src/usart.c **** PUTCHAR_PROTOTYPE
  27:Core/Src/usart.c **** {
  31              		.loc 1 27 1 view -0
ARM GAS  C:\usertemp\ccReNste.s 			page 2


  32              		.cfi_startproc
  33              		@ args = 0, pretend = 0, frame = 8
  34              		@ frame_needed = 0, uses_anonymous_args = 0
  35              		.loc 1 27 1 is_stmt 0 view .LVU1
  36 0000 00B5     		push	{lr}
  37              	.LCFI0:
  38              		.cfi_def_cfa_offset 4
  39              		.cfi_offset 14, -4
  40 0002 83B0     		sub	sp, sp, #12
  41              	.LCFI1:
  42              		.cfi_def_cfa_offset 16
  43 0004 0190     		str	r0, [sp, #4]
  28:Core/Src/usart.c ****   HAL_UART_Transmit(&huart3, (uint8_t *)&ch, 1, 0xFFFF);
  44              		.loc 1 28 3 is_stmt 1 view .LVU2
  45 0006 4FF6FF73 		movw	r3, #65535
  46 000a 0122     		movs	r2, #1
  47 000c 01A9     		add	r1, sp, #4
  48 000e 0348     		ldr	r0, .L3
  49              	.LVL1:
  50              		.loc 1 28 3 is_stmt 0 view .LVU3
  51 0010 FFF7FEFF 		bl	HAL_UART_Transmit
  52              	.LVL2:
  29:Core/Src/usart.c ****   return ch;
  53              		.loc 1 29 3 is_stmt 1 view .LVU4
  30:Core/Src/usart.c **** }
  54              		.loc 1 30 1 is_stmt 0 view .LVU5
  55 0014 0198     		ldr	r0, [sp, #4]
  56 0016 03B0     		add	sp, sp, #12
  57              	.LCFI2:
  58              		.cfi_def_cfa_offset 4
  59              		@ sp needed
  60 0018 5DF804FB 		ldr	pc, [sp], #4
  61              	.L4:
  62              		.align	2
  63              	.L3:
  64 001c 00000000 		.word	huart3
  65              		.cfi_endproc
  66              	.LFE157:
  68              		.section	.text._write,"ax",%progbits
  69              		.align	1
  70              		.global	_write
  71              		.syntax unified
  72              		.thumb
  73              		.thumb_func
  75              	_write:
  76              	.LVL3:
  77              	.LFB158:
  31:Core/Src/usart.c **** int _write(int file, char *ptr, int len)
  32:Core/Src/usart.c **** {
  78              		.loc 1 32 1 is_stmt 1 view -0
  79              		.cfi_startproc
  80              		@ args = 0, pretend = 0, frame = 0
  81              		@ frame_needed = 0, uses_anonymous_args = 0
  82              		.loc 1 32 1 is_stmt 0 view .LVU7
  83 0000 70B5     		push	{r4, r5, r6, lr}
  84              	.LCFI3:
  85              		.cfi_def_cfa_offset 16
ARM GAS  C:\usertemp\ccReNste.s 			page 3


  86              		.cfi_offset 4, -16
  87              		.cfi_offset 5, -12
  88              		.cfi_offset 6, -8
  89              		.cfi_offset 14, -4
  90 0002 0C46     		mov	r4, r1
  91 0004 1646     		mov	r6, r2
  33:Core/Src/usart.c ****   int DataIdx;
  92              		.loc 1 33 3 is_stmt 1 view .LVU8
  34:Core/Src/usart.c ****   for (DataIdx = 0; DataIdx < len; DataIdx++)
  93              		.loc 1 34 3 view .LVU9
  94              	.LVL4:
  95              		.loc 1 34 16 is_stmt 0 view .LVU10
  96 0006 0025     		movs	r5, #0
  97              		.loc 1 34 3 view .LVU11
  98 0008 04E0     		b	.L6
  99              	.LVL5:
 100              	.L7:
  35:Core/Src/usart.c ****   {
  36:Core/Src/usart.c ****     __io_putchar(*ptr++);
 101              		.loc 1 36 5 is_stmt 1 view .LVU12
 102              		.loc 1 36 5 is_stmt 0 view .LVU13
 103 000a 14F8010B 		ldrb	r0, [r4], #1	@ zero_extendqisi2
 104              	.LVL6:
 105              		.loc 1 36 5 view .LVU14
 106 000e FFF7FEFF 		bl	__io_putchar
 107              	.LVL7:
  34:Core/Src/usart.c ****   for (DataIdx = 0; DataIdx < len; DataIdx++)
 108              		.loc 1 34 43 is_stmt 1 discriminator 3 view .LVU15
 109 0012 0135     		adds	r5, r5, #1
 110              	.LVL8:
 111              	.L6:
  34:Core/Src/usart.c ****   for (DataIdx = 0; DataIdx < len; DataIdx++)
 112              		.loc 1 34 29 discriminator 1 view .LVU16
 113 0014 B542     		cmp	r5, r6
 114 0016 F8DB     		blt	.L7
  37:Core/Src/usart.c ****   }
  38:Core/Src/usart.c ****   return len;
 115              		.loc 1 38 3 view .LVU17
  39:Core/Src/usart.c **** }
 116              		.loc 1 39 1 is_stmt 0 view .LVU18
 117 0018 3046     		mov	r0, r6
 118 001a 70BD     		pop	{r4, r5, r6, pc}
 119              		.loc 1 39 1 view .LVU19
 120              		.cfi_endproc
 121              	.LFE158:
 123              		.section	.text.MX_USART3_UART_Init,"ax",%progbits
 124              		.align	1
 125              		.global	MX_USART3_UART_Init
 126              		.syntax unified
 127              		.thumb
 128              		.thumb_func
 130              	MX_USART3_UART_Init:
 131              	.LFB159:
  40:Core/Src/usart.c **** #else
  41:Core/Src/usart.c **** #define PUTCHAR_PROTOTYPE int fputc(int ch, FILE *f)
  42:Core/Src/usart.c **** int fputc(int ch, FILE *f)
  43:Core/Src/usart.c **** {
ARM GAS  C:\usertemp\ccReNste.s 			page 4


  44:Core/Src/usart.c ****   HAL_UART_Transmit(&huart3, (uint8_t *)&ch, 1, 0xffff);
  45:Core/Src/usart.c ****   return ch;
  46:Core/Src/usart.c **** }
  47:Core/Src/usart.c **** #endif
  48:Core/Src/usart.c **** /* USER CODE END 0 */
  49:Core/Src/usart.c **** 
  50:Core/Src/usart.c **** UART_HandleTypeDef huart3;
  51:Core/Src/usart.c **** 
  52:Core/Src/usart.c **** /* USART3 init function */
  53:Core/Src/usart.c **** 
  54:Core/Src/usart.c **** void MX_USART3_UART_Init(void)
  55:Core/Src/usart.c **** {
 132              		.loc 1 55 1 is_stmt 1 view -0
 133              		.cfi_startproc
 134              		@ args = 0, pretend = 0, frame = 0
 135              		@ frame_needed = 0, uses_anonymous_args = 0
 136 0000 08B5     		push	{r3, lr}
 137              	.LCFI4:
 138              		.cfi_def_cfa_offset 8
 139              		.cfi_offset 3, -8
 140              		.cfi_offset 14, -4
  56:Core/Src/usart.c **** 
  57:Core/Src/usart.c ****   /* USER CODE BEGIN USART3_Init 0 */
  58:Core/Src/usart.c **** 
  59:Core/Src/usart.c ****   /* USER CODE END USART3_Init 0 */
  60:Core/Src/usart.c **** 
  61:Core/Src/usart.c ****   /* USER CODE BEGIN USART3_Init 1 */
  62:Core/Src/usart.c **** 
  63:Core/Src/usart.c ****   /* USER CODE END USART3_Init 1 */
  64:Core/Src/usart.c ****   huart3.Instance = USART3;
 141              		.loc 1 64 3 view .LVU21
 142              		.loc 1 64 19 is_stmt 0 view .LVU22
 143 0002 1748     		ldr	r0, .L19
 144 0004 174B     		ldr	r3, .L19+4
 145 0006 0360     		str	r3, [r0]
  65:Core/Src/usart.c ****   huart3.Init.BaudRate = 115200;
 146              		.loc 1 65 3 is_stmt 1 view .LVU23
 147              		.loc 1 65 24 is_stmt 0 view .LVU24
 148 0008 4FF4E133 		mov	r3, #115200
 149 000c 4360     		str	r3, [r0, #4]
  66:Core/Src/usart.c ****   huart3.Init.WordLength = UART_WORDLENGTH_8B;
 150              		.loc 1 66 3 is_stmt 1 view .LVU25
 151              		.loc 1 66 26 is_stmt 0 view .LVU26
 152 000e 0023     		movs	r3, #0
 153 0010 8360     		str	r3, [r0, #8]
  67:Core/Src/usart.c ****   huart3.Init.StopBits = UART_STOPBITS_1;
 154              		.loc 1 67 3 is_stmt 1 view .LVU27
 155              		.loc 1 67 24 is_stmt 0 view .LVU28
 156 0012 C360     		str	r3, [r0, #12]
  68:Core/Src/usart.c ****   huart3.Init.Parity = UART_PARITY_NONE;
 157              		.loc 1 68 3 is_stmt 1 view .LVU29
 158              		.loc 1 68 22 is_stmt 0 view .LVU30
 159 0014 0361     		str	r3, [r0, #16]
  69:Core/Src/usart.c ****   huart3.Init.Mode = UART_MODE_TX_RX;
 160              		.loc 1 69 3 is_stmt 1 view .LVU31
 161              		.loc 1 69 20 is_stmt 0 view .LVU32
 162 0016 0C22     		movs	r2, #12
ARM GAS  C:\usertemp\ccReNste.s 			page 5


 163 0018 4261     		str	r2, [r0, #20]
  70:Core/Src/usart.c ****   huart3.Init.HwFlowCtl = UART_HWCONTROL_NONE;
 164              		.loc 1 70 3 is_stmt 1 view .LVU33
 165              		.loc 1 70 25 is_stmt 0 view .LVU34
 166 001a 8361     		str	r3, [r0, #24]
  71:Core/Src/usart.c ****   huart3.Init.OverSampling = UART_OVERSAMPLING_16;
 167              		.loc 1 71 3 is_stmt 1 view .LVU35
 168              		.loc 1 71 28 is_stmt 0 view .LVU36
 169 001c C361     		str	r3, [r0, #28]
  72:Core/Src/usart.c ****   huart3.Init.OneBitSampling = UART_ONE_BIT_SAMPLE_DISABLE;
 170              		.loc 1 72 3 is_stmt 1 view .LVU37
 171              		.loc 1 72 30 is_stmt 0 view .LVU38
 172 001e 0362     		str	r3, [r0, #32]
  73:Core/Src/usart.c ****   huart3.Init.ClockPrescaler = UART_PRESCALER_DIV1;
 173              		.loc 1 73 3 is_stmt 1 view .LVU39
 174              		.loc 1 73 30 is_stmt 0 view .LVU40
 175 0020 4362     		str	r3, [r0, #36]
  74:Core/Src/usart.c ****   huart3.AdvancedInit.AdvFeatureInit = UART_ADVFEATURE_NO_INIT;
 176              		.loc 1 74 3 is_stmt 1 view .LVU41
 177              		.loc 1 74 38 is_stmt 0 view .LVU42
 178 0022 8362     		str	r3, [r0, #40]
  75:Core/Src/usart.c ****   if (HAL_UART_Init(&huart3) != HAL_OK)
 179              		.loc 1 75 3 is_stmt 1 view .LVU43
 180              		.loc 1 75 7 is_stmt 0 view .LVU44
 181 0024 FFF7FEFF 		bl	HAL_UART_Init
 182              	.LVL9:
 183              		.loc 1 75 6 discriminator 1 view .LVU45
 184 0028 70B9     		cbnz	r0, .L15
 185              	.L10:
  76:Core/Src/usart.c ****   {
  77:Core/Src/usart.c ****     Error_Handler();
  78:Core/Src/usart.c ****   }
  79:Core/Src/usart.c ****   if (HAL_UARTEx_SetTxFifoThreshold(&huart3, UART_TXFIFO_THRESHOLD_1_8) != HAL_OK)
 186              		.loc 1 79 3 is_stmt 1 view .LVU46
 187              		.loc 1 79 7 is_stmt 0 view .LVU47
 188 002a 0021     		movs	r1, #0
 189 002c 0C48     		ldr	r0, .L19
 190 002e FFF7FEFF 		bl	HAL_UARTEx_SetTxFifoThreshold
 191              	.LVL10:
 192              		.loc 1 79 6 discriminator 1 view .LVU48
 193 0032 60B9     		cbnz	r0, .L16
 194              	.L11:
  80:Core/Src/usart.c ****   {
  81:Core/Src/usart.c ****     Error_Handler();
  82:Core/Src/usart.c ****   }
  83:Core/Src/usart.c ****   if (HAL_UARTEx_SetRxFifoThreshold(&huart3, UART_RXFIFO_THRESHOLD_1_8) != HAL_OK)
 195              		.loc 1 83 3 is_stmt 1 view .LVU49
 196              		.loc 1 83 7 is_stmt 0 view .LVU50
 197 0034 0021     		movs	r1, #0
 198 0036 0A48     		ldr	r0, .L19
 199 0038 FFF7FEFF 		bl	HAL_UARTEx_SetRxFifoThreshold
 200              	.LVL11:
 201              		.loc 1 83 6 discriminator 1 view .LVU51
 202 003c 50B9     		cbnz	r0, .L17
 203              	.L12:
  84:Core/Src/usart.c ****   {
  85:Core/Src/usart.c ****     Error_Handler();
ARM GAS  C:\usertemp\ccReNste.s 			page 6


  86:Core/Src/usart.c ****   }
  87:Core/Src/usart.c ****   if (HAL_UARTEx_DisableFifoMode(&huart3) != HAL_OK)
 204              		.loc 1 87 3 is_stmt 1 view .LVU52
 205              		.loc 1 87 7 is_stmt 0 view .LVU53
 206 003e 0848     		ldr	r0, .L19
 207 0040 FFF7FEFF 		bl	HAL_UARTEx_DisableFifoMode
 208              	.LVL12:
 209              		.loc 1 87 6 discriminator 1 view .LVU54
 210 0044 48B9     		cbnz	r0, .L18
 211              	.L9:
  88:Core/Src/usart.c ****   {
  89:Core/Src/usart.c ****     Error_Handler();
  90:Core/Src/usart.c ****   }
  91:Core/Src/usart.c ****   /* USER CODE BEGIN USART3_Init 2 */
  92:Core/Src/usart.c **** 
  93:Core/Src/usart.c ****   /* USER CODE END USART3_Init 2 */
  94:Core/Src/usart.c **** 
  95:Core/Src/usart.c **** }
 212              		.loc 1 95 1 view .LVU55
 213 0046 08BD     		pop	{r3, pc}
 214              	.L15:
  77:Core/Src/usart.c ****   }
 215              		.loc 1 77 5 is_stmt 1 view .LVU56
 216 0048 FFF7FEFF 		bl	Error_Handler
 217              	.LVL13:
 218 004c EDE7     		b	.L10
 219              	.L16:
  81:Core/Src/usart.c ****   }
 220              		.loc 1 81 5 view .LVU57
 221 004e FFF7FEFF 		bl	Error_Handler
 222              	.LVL14:
 223 0052 EFE7     		b	.L11
 224              	.L17:
  85:Core/Src/usart.c ****   }
 225              		.loc 1 85 5 view .LVU58
 226 0054 FFF7FEFF 		bl	Error_Handler
 227              	.LVL15:
 228 0058 F1E7     		b	.L12
 229              	.L18:
  89:Core/Src/usart.c ****   }
 230              		.loc 1 89 5 view .LVU59
 231 005a FFF7FEFF 		bl	Error_Handler
 232              	.LVL16:
 233              		.loc 1 95 1 is_stmt 0 view .LVU60
 234 005e F2E7     		b	.L9
 235              	.L20:
 236              		.align	2
 237              	.L19:
 238 0060 00000000 		.word	huart3
 239 0064 00480040 		.word	1073760256
 240              		.cfi_endproc
 241              	.LFE159:
 243              		.section	.text.HAL_UART_MspInit,"ax",%progbits
 244              		.align	1
 245              		.global	HAL_UART_MspInit
 246              		.syntax unified
 247              		.thumb
ARM GAS  C:\usertemp\ccReNste.s 			page 7


 248              		.thumb_func
 250              	HAL_UART_MspInit:
 251              	.LVL17:
 252              	.LFB160:
  96:Core/Src/usart.c **** 
  97:Core/Src/usart.c **** void HAL_UART_MspInit(UART_HandleTypeDef* uartHandle)
  98:Core/Src/usart.c **** {
 253              		.loc 1 98 1 is_stmt 1 view -0
 254              		.cfi_startproc
 255              		@ args = 0, pretend = 0, frame = 224
 256              		@ frame_needed = 0, uses_anonymous_args = 0
 257              		.loc 1 98 1 is_stmt 0 view .LVU62
 258 0000 10B5     		push	{r4, lr}
 259              	.LCFI5:
 260              		.cfi_def_cfa_offset 8
 261              		.cfi_offset 4, -8
 262              		.cfi_offset 14, -4
 263 0002 B8B0     		sub	sp, sp, #224
 264              	.LCFI6:
 265              		.cfi_def_cfa_offset 232
 266 0004 0446     		mov	r4, r0
  99:Core/Src/usart.c **** 
 100:Core/Src/usart.c ****   GPIO_InitTypeDef GPIO_InitStruct = {0};
 267              		.loc 1 100 3 is_stmt 1 view .LVU63
 268              		.loc 1 100 20 is_stmt 0 view .LVU64
 269 0006 0021     		movs	r1, #0
 270 0008 3391     		str	r1, [sp, #204]
 271 000a 3491     		str	r1, [sp, #208]
 272 000c 3591     		str	r1, [sp, #212]
 273 000e 3691     		str	r1, [sp, #216]
 274 0010 3791     		str	r1, [sp, #220]
 101:Core/Src/usart.c ****   RCC_PeriphCLKInitTypeDef PeriphClkInit = {0};
 275              		.loc 1 101 3 is_stmt 1 view .LVU65
 276              		.loc 1 101 28 is_stmt 0 view .LVU66
 277 0012 C022     		movs	r2, #192
 278 0014 02A8     		add	r0, sp, #8
 279              	.LVL18:
 280              		.loc 1 101 28 view .LVU67
 281 0016 FFF7FEFF 		bl	memset
 282              	.LVL19:
 102:Core/Src/usart.c ****   if(uartHandle->Instance==USART3)
 283              		.loc 1 102 3 is_stmt 1 view .LVU68
 284              		.loc 1 102 16 is_stmt 0 view .LVU69
 285 001a 2268     		ldr	r2, [r4]
 286              		.loc 1 102 5 view .LVU70
 287 001c 1B4B     		ldr	r3, .L27
 288 001e 9A42     		cmp	r2, r3
 289 0020 01D0     		beq	.L25
 290              	.L21:
 103:Core/Src/usart.c ****   {
 104:Core/Src/usart.c ****   /* USER CODE BEGIN USART3_MspInit 0 */
 105:Core/Src/usart.c **** 
 106:Core/Src/usart.c ****   /* USER CODE END USART3_MspInit 0 */
 107:Core/Src/usart.c **** 
 108:Core/Src/usart.c ****   /** Initializes the peripherals clock
 109:Core/Src/usart.c ****   */
 110:Core/Src/usart.c ****     PeriphClkInit.PeriphClockSelection = RCC_PERIPHCLK_USART3;
ARM GAS  C:\usertemp\ccReNste.s 			page 8


 111:Core/Src/usart.c ****     PeriphClkInit.Usart3ClockSelection = RCC_USART3CLKSOURCE_PCLK1;
 112:Core/Src/usart.c ****     if (HAL_RCCEx_PeriphCLKConfig(&PeriphClkInit) != HAL_OK)
 113:Core/Src/usart.c ****     {
 114:Core/Src/usart.c ****       Error_Handler();
 115:Core/Src/usart.c ****     }
 116:Core/Src/usart.c **** 
 117:Core/Src/usart.c ****     /* USART3 clock enable */
 118:Core/Src/usart.c ****     __HAL_RCC_USART3_CLK_ENABLE();
 119:Core/Src/usart.c **** 
 120:Core/Src/usart.c ****     __HAL_RCC_GPIOC_CLK_ENABLE();
 121:Core/Src/usart.c ****     /**USART3 GPIO Configuration
 122:Core/Src/usart.c ****     PC4     ------> USART3_TX
 123:Core/Src/usart.c ****     PC5     ------> USART3_RX
 124:Core/Src/usart.c ****     */
 125:Core/Src/usart.c ****     GPIO_InitStruct.Pin = GPIO_PIN_4|GPIO_PIN_5;
 126:Core/Src/usart.c ****     GPIO_InitStruct.Mode = GPIO_MODE_AF_PP;
 127:Core/Src/usart.c ****     GPIO_InitStruct.Pull = GPIO_NOPULL;
 128:Core/Src/usart.c ****     GPIO_InitStruct.Speed = GPIO_SPEED_FREQ_LOW;
 129:Core/Src/usart.c ****     GPIO_InitStruct.Alternate = GPIO_AF7_USART3;
 130:Core/Src/usart.c ****     HAL_GPIO_Init(GPIOC, &GPIO_InitStruct);
 131:Core/Src/usart.c **** 
 132:Core/Src/usart.c ****   /* USER CODE BEGIN USART3_MspInit 1 */
 133:Core/Src/usart.c **** 
 134:Core/Src/usart.c ****   /* USER CODE END USART3_MspInit 1 */
 135:Core/Src/usart.c ****   }
 136:Core/Src/usart.c **** }
 291              		.loc 1 136 1 view .LVU71
 292 0022 38B0     		add	sp, sp, #224
 293              	.LCFI7:
 294              		.cfi_remember_state
 295              		.cfi_def_cfa_offset 8
 296              		@ sp needed
 297 0024 10BD     		pop	{r4, pc}
 298              	.LVL20:
 299              	.L25:
 300              	.LCFI8:
 301              		.cfi_restore_state
 110:Core/Src/usart.c ****     PeriphClkInit.Usart3ClockSelection = RCC_USART3CLKSOURCE_PCLK1;
 302              		.loc 1 110 5 is_stmt 1 view .LVU72
 110:Core/Src/usart.c ****     PeriphClkInit.Usart3ClockSelection = RCC_USART3CLKSOURCE_PCLK1;
 303              		.loc 1 110 40 is_stmt 0 view .LVU73
 304 0026 0422     		movs	r2, #4
 305 0028 0023     		movs	r3, #0
 306 002a CDE90223 		strd	r2, [sp, #8]
 111:Core/Src/usart.c ****     if (HAL_RCCEx_PeriphCLKConfig(&PeriphClkInit) != HAL_OK)
 307              		.loc 1 111 5 is_stmt 1 view .LVU74
 112:Core/Src/usart.c ****     {
 308              		.loc 1 112 5 view .LVU75
 112:Core/Src/usart.c ****     {
 309              		.loc 1 112 9 is_stmt 0 view .LVU76
 310 002e 02A8     		add	r0, sp, #8
 311 0030 FFF7FEFF 		bl	HAL_RCCEx_PeriphCLKConfig
 312              	.LVL21:
 112:Core/Src/usart.c ****     {
 313              		.loc 1 112 8 discriminator 1 view .LVU77
 314 0034 30BB     		cbnz	r0, .L26
 315              	.L23:
ARM GAS  C:\usertemp\ccReNste.s 			page 9


 118:Core/Src/usart.c **** 
 316              		.loc 1 118 5 is_stmt 1 view .LVU78
 317              	.LBB2:
 118:Core/Src/usart.c **** 
 318              		.loc 1 118 5 view .LVU79
 118:Core/Src/usart.c **** 
 319              		.loc 1 118 5 view .LVU80
 320 0036 164B     		ldr	r3, .L27+4
 321 0038 D3F89C20 		ldr	r2, [r3, #156]
 322 003c 42F48022 		orr	r2, r2, #262144
 323 0040 C3F89C20 		str	r2, [r3, #156]
 118:Core/Src/usart.c **** 
 324              		.loc 1 118 5 view .LVU81
 325 0044 D3F89C20 		ldr	r2, [r3, #156]
 326 0048 02F48022 		and	r2, r2, #262144
 327 004c 0092     		str	r2, [sp]
 118:Core/Src/usart.c **** 
 328              		.loc 1 118 5 view .LVU82
 329 004e 009A     		ldr	r2, [sp]
 330              	.LBE2:
 118:Core/Src/usart.c **** 
 331              		.loc 1 118 5 view .LVU83
 120:Core/Src/usart.c ****     /**USART3 GPIO Configuration
 332              		.loc 1 120 5 view .LVU84
 333              	.LBB3:
 120:Core/Src/usart.c ****     /**USART3 GPIO Configuration
 334              		.loc 1 120 5 view .LVU85
 120:Core/Src/usart.c ****     /**USART3 GPIO Configuration
 335              		.loc 1 120 5 view .LVU86
 336 0050 D3F88C20 		ldr	r2, [r3, #140]
 337 0054 42F00402 		orr	r2, r2, #4
 338 0058 C3F88C20 		str	r2, [r3, #140]
 120:Core/Src/usart.c ****     /**USART3 GPIO Configuration
 339              		.loc 1 120 5 view .LVU87
 340 005c D3F88C30 		ldr	r3, [r3, #140]
 341 0060 03F00403 		and	r3, r3, #4
 342 0064 0193     		str	r3, [sp, #4]
 120:Core/Src/usart.c ****     /**USART3 GPIO Configuration
 343              		.loc 1 120 5 view .LVU88
 344 0066 019B     		ldr	r3, [sp, #4]
 345              	.LBE3:
 120:Core/Src/usart.c ****     /**USART3 GPIO Configuration
 346              		.loc 1 120 5 view .LVU89
 125:Core/Src/usart.c ****     GPIO_InitStruct.Mode = GPIO_MODE_AF_PP;
 347              		.loc 1 125 5 view .LVU90
 125:Core/Src/usart.c ****     GPIO_InitStruct.Mode = GPIO_MODE_AF_PP;
 348              		.loc 1 125 25 is_stmt 0 view .LVU91
 349 0068 3023     		movs	r3, #48
 350 006a 3393     		str	r3, [sp, #204]
 126:Core/Src/usart.c ****     GPIO_InitStruct.Pull = GPIO_NOPULL;
 351              		.loc 1 126 5 is_stmt 1 view .LVU92
 126:Core/Src/usart.c ****     GPIO_InitStruct.Pull = GPIO_NOPULL;
 352              		.loc 1 126 26 is_stmt 0 view .LVU93
 353 006c 0223     		movs	r3, #2
 354 006e 3493     		str	r3, [sp, #208]
 127:Core/Src/usart.c ****     GPIO_InitStruct.Speed = GPIO_SPEED_FREQ_LOW;
 355              		.loc 1 127 5 is_stmt 1 view .LVU94
ARM GAS  C:\usertemp\ccReNste.s 			page 10


 127:Core/Src/usart.c ****     GPIO_InitStruct.Speed = GPIO_SPEED_FREQ_LOW;
 356              		.loc 1 127 26 is_stmt 0 view .LVU95
 357 0070 0023     		movs	r3, #0
 358 0072 3593     		str	r3, [sp, #212]
 128:Core/Src/usart.c ****     GPIO_InitStruct.Alternate = GPIO_AF7_USART3;
 359              		.loc 1 128 5 is_stmt 1 view .LVU96
 128:Core/Src/usart.c ****     GPIO_InitStruct.Alternate = GPIO_AF7_USART3;
 360              		.loc 1 128 27 is_stmt 0 view .LVU97
 361 0074 3693     		str	r3, [sp, #216]
 129:Core/Src/usart.c ****     HAL_GPIO_Init(GPIOC, &GPIO_InitStruct);
 362              		.loc 1 129 5 is_stmt 1 view .LVU98
 129:Core/Src/usart.c ****     HAL_GPIO_Init(GPIOC, &GPIO_InitStruct);
 363              		.loc 1 129 31 is_stmt 0 view .LVU99
 364 0076 0723     		movs	r3, #7
 365 0078 3793     		str	r3, [sp, #220]
 130:Core/Src/usart.c **** 
 366              		.loc 1 130 5 is_stmt 1 view .LVU100
 367 007a 33A9     		add	r1, sp, #204
 368 007c 0548     		ldr	r0, .L27+8
 369 007e FFF7FEFF 		bl	HAL_GPIO_Init
 370              	.LVL22:
 371              		.loc 1 136 1 is_stmt 0 view .LVU101
 372 0082 CEE7     		b	.L21
 373              	.L26:
 114:Core/Src/usart.c ****     }
 374              		.loc 1 114 7 is_stmt 1 view .LVU102
 375 0084 FFF7FEFF 		bl	Error_Handler
 376              	.LVL23:
 377 0088 D5E7     		b	.L23
 378              	.L28:
 379 008a 00BF     		.align	2
 380              	.L27:
 381 008c 00480040 		.word	1073760256
 382 0090 000C0246 		.word	1174539264
 383 0094 00080242 		.word	1107429376
 384              		.cfi_endproc
 385              	.LFE160:
 387              		.section	.text.HAL_UART_MspDeInit,"ax",%progbits
 388              		.align	1
 389              		.global	HAL_UART_MspDeInit
 390              		.syntax unified
 391              		.thumb
 392              		.thumb_func
 394              	HAL_UART_MspDeInit:
 395              	.LVL24:
 396              	.LFB161:
 137:Core/Src/usart.c **** 
 138:Core/Src/usart.c **** void HAL_UART_MspDeInit(UART_HandleTypeDef* uartHandle)
 139:Core/Src/usart.c **** {
 397              		.loc 1 139 1 view -0
 398              		.cfi_startproc
 399              		@ args = 0, pretend = 0, frame = 0
 400              		@ frame_needed = 0, uses_anonymous_args = 0
 401              		.loc 1 139 1 is_stmt 0 view .LVU104
 402 0000 08B5     		push	{r3, lr}
 403              	.LCFI9:
 404              		.cfi_def_cfa_offset 8
ARM GAS  C:\usertemp\ccReNste.s 			page 11


 405              		.cfi_offset 3, -8
 406              		.cfi_offset 14, -4
 140:Core/Src/usart.c **** 
 141:Core/Src/usart.c ****   if(uartHandle->Instance==USART3)
 407              		.loc 1 141 3 is_stmt 1 view .LVU105
 408              		.loc 1 141 16 is_stmt 0 view .LVU106
 409 0002 0268     		ldr	r2, [r0]
 410              		.loc 1 141 5 view .LVU107
 411 0004 074B     		ldr	r3, .L33
 412 0006 9A42     		cmp	r2, r3
 413 0008 00D0     		beq	.L32
 414              	.LVL25:
 415              	.L29:
 142:Core/Src/usart.c ****   {
 143:Core/Src/usart.c ****   /* USER CODE BEGIN USART3_MspDeInit 0 */
 144:Core/Src/usart.c **** 
 145:Core/Src/usart.c ****   /* USER CODE END USART3_MspDeInit 0 */
 146:Core/Src/usart.c ****     /* Peripheral clock disable */
 147:Core/Src/usart.c ****     __HAL_RCC_USART3_CLK_DISABLE();
 148:Core/Src/usart.c **** 
 149:Core/Src/usart.c ****     /**USART3 GPIO Configuration
 150:Core/Src/usart.c ****     PC4     ------> USART3_TX
 151:Core/Src/usart.c ****     PC5     ------> USART3_RX
 152:Core/Src/usart.c ****     */
 153:Core/Src/usart.c ****     HAL_GPIO_DeInit(GPIOC, GPIO_PIN_4|GPIO_PIN_5);
 154:Core/Src/usart.c **** 
 155:Core/Src/usart.c ****   /* USER CODE BEGIN USART3_MspDeInit 1 */
 156:Core/Src/usart.c **** 
 157:Core/Src/usart.c ****   /* USER CODE END USART3_MspDeInit 1 */
 158:Core/Src/usart.c ****   }
 159:Core/Src/usart.c **** }
 416              		.loc 1 159 1 view .LVU108
 417 000a 08BD     		pop	{r3, pc}
 418              	.LVL26:
 419              	.L32:
 147:Core/Src/usart.c **** 
 420              		.loc 1 147 5 is_stmt 1 view .LVU109
 421 000c 064A     		ldr	r2, .L33+4
 422 000e D2F89C30 		ldr	r3, [r2, #156]
 423 0012 23F48023 		bic	r3, r3, #262144
 424 0016 C2F89C30 		str	r3, [r2, #156]
 153:Core/Src/usart.c **** 
 425              		.loc 1 153 5 view .LVU110
 426 001a 3021     		movs	r1, #48
 427 001c 0348     		ldr	r0, .L33+8
 428              	.LVL27:
 153:Core/Src/usart.c **** 
 429              		.loc 1 153 5 is_stmt 0 view .LVU111
 430 001e FFF7FEFF 		bl	HAL_GPIO_DeInit
 431              	.LVL28:
 432              		.loc 1 159 1 view .LVU112
 433 0022 F2E7     		b	.L29
 434              	.L34:
 435              		.align	2
 436              	.L33:
 437 0024 00480040 		.word	1073760256
 438 0028 000C0246 		.word	1174539264
ARM GAS  C:\usertemp\ccReNste.s 			page 12


 439 002c 00080242 		.word	1107429376
 440              		.cfi_endproc
 441              	.LFE161:
 443              		.global	huart3
 444              		.section	.bss.huart3,"aw",%nobits
 445              		.align	2
 448              	huart3:
 449 0000 00000000 		.space	148
 449      00000000 
 449      00000000 
 449      00000000 
 449      00000000 
 450              		.text
 451              	.Letext0:
 452              		.file 2 "D:/armtoolchain/arm-gnu-toolchain-13.3.rel1-mingw-w64-i686-arm-none-eabi/arm-none-eabi/in
 453              		.file 3 "D:/armtoolchain/arm-gnu-toolchain-13.3.rel1-mingw-w64-i686-arm-none-eabi/arm-none-eabi/in
 454              		.file 4 "Drivers/CMSIS/Device/ST/STM32U5xx/Include/stm32u575xx.h"
 455              		.file 5 "Drivers/STM32U5xx_HAL_Driver/Inc/stm32u5xx_hal_def.h"
 456              		.file 6 "Drivers/STM32U5xx_HAL_Driver/Inc/stm32u5xx_hal_rcc_ex.h"
 457              		.file 7 "Drivers/STM32U5xx_HAL_Driver/Inc/stm32u5xx_hal_gpio.h"
 458              		.file 8 "Drivers/STM32U5xx_HAL_Driver/Inc/stm32u5xx_hal_dma.h"
 459              		.file 9 "Drivers/STM32U5xx_HAL_Driver/Inc/stm32u5xx_hal_dma_ex.h"
 460              		.file 10 "Drivers/STM32U5xx_HAL_Driver/Inc/stm32u5xx_hal_uart.h"
 461              		.file 11 "Drivers/STM32U5xx_HAL_Driver/Inc/stm32u5xx_hal_uart_ex.h"
 462              		.file 12 "Core/Inc/usart.h"
 463              		.file 13 "Core/Inc/main.h"
 464              		.file 14 "<built-in>"
ARM GAS  C:\usertemp\ccReNste.s 			page 13

