ARM GAS  C:\usertemp\cctPESIS.s 			page 1


   1              		.cpu cortex-m33
   2              		.arch armv8-m.main
   3              		.fpu fpv4-sp-d16
   4              		.arch_extension dsp
   5              		.eabi_attribute 27, 1
   6              		.eabi_attribute 28, 1
   7              		.eabi_attribute 20, 1
   8              		.eabi_attribute 21, 1
   9              		.eabi_attribute 23, 3
  10              		.eabi_attribute 24, 1
  11              		.eabi_attribute 25, 1
  12              		.eabi_attribute 26, 1
  13              		.eabi_attribute 30, 1
  14              		.eabi_attribute 34, 1
  15              		.eabi_attribute 18, 4
  16              		.file	"ux_dcd_stm32_callback.c"
  17              		.text
  18              	.Ltext0:
  19              		.cfi_sections	.debug_frame
  20              		.file 1 "Middlewares/ST/usbx/common/usbx_stm32_device_controllers/ux_dcd_stm32_callback.c"
  21              		.section	.text._ux_dcd_stm32_setup_status,"ax",%progbits
  22              		.align	1
  23              		.syntax unified
  24              		.thumb
  25              		.thumb_func
  27              	_ux_dcd_stm32_setup_status:
  28              	.LVL0:
  29              	.LFB171:
   1:Middlewares/ST/usbx/common/usbx_stm32_device_controllers/ux_dcd_stm32_callback.c **** /**************************************************************************/
   2:Middlewares/ST/usbx/common/usbx_stm32_device_controllers/ux_dcd_stm32_callback.c **** /*                                                                        */
   3:Middlewares/ST/usbx/common/usbx_stm32_device_controllers/ux_dcd_stm32_callback.c **** /*       Copyright (c) Microsoft Corporation. All rights reserved.        */
   4:Middlewares/ST/usbx/common/usbx_stm32_device_controllers/ux_dcd_stm32_callback.c **** /*                                                                        */
   5:Middlewares/ST/usbx/common/usbx_stm32_device_controllers/ux_dcd_stm32_callback.c **** /*       This software is licensed under the Microsoft Software License   */
   6:Middlewares/ST/usbx/common/usbx_stm32_device_controllers/ux_dcd_stm32_callback.c **** /*       Terms for Microsoft Azure RTOS. Full text of the license can be  */
   7:Middlewares/ST/usbx/common/usbx_stm32_device_controllers/ux_dcd_stm32_callback.c **** /*       found in the LICENSE file at https://aka.ms/AzureRTOS_EULA       */
   8:Middlewares/ST/usbx/common/usbx_stm32_device_controllers/ux_dcd_stm32_callback.c **** /*       and in the root directory of this software.                      */
   9:Middlewares/ST/usbx/common/usbx_stm32_device_controllers/ux_dcd_stm32_callback.c **** /*                                                                        */
  10:Middlewares/ST/usbx/common/usbx_stm32_device_controllers/ux_dcd_stm32_callback.c **** /**************************************************************************/
  11:Middlewares/ST/usbx/common/usbx_stm32_device_controllers/ux_dcd_stm32_callback.c **** 
  12:Middlewares/ST/usbx/common/usbx_stm32_device_controllers/ux_dcd_stm32_callback.c **** 
  13:Middlewares/ST/usbx/common/usbx_stm32_device_controllers/ux_dcd_stm32_callback.c **** /**************************************************************************/
  14:Middlewares/ST/usbx/common/usbx_stm32_device_controllers/ux_dcd_stm32_callback.c **** /**************************************************************************/
  15:Middlewares/ST/usbx/common/usbx_stm32_device_controllers/ux_dcd_stm32_callback.c **** /**                                                                       */
  16:Middlewares/ST/usbx/common/usbx_stm32_device_controllers/ux_dcd_stm32_callback.c **** /** USBX Component                                                        */
  17:Middlewares/ST/usbx/common/usbx_stm32_device_controllers/ux_dcd_stm32_callback.c **** /**                                                                       */
  18:Middlewares/ST/usbx/common/usbx_stm32_device_controllers/ux_dcd_stm32_callback.c **** /**   STM32 Controller Driver                                             */
  19:Middlewares/ST/usbx/common/usbx_stm32_device_controllers/ux_dcd_stm32_callback.c **** /**                                                                       */
  20:Middlewares/ST/usbx/common/usbx_stm32_device_controllers/ux_dcd_stm32_callback.c **** /**************************************************************************/
  21:Middlewares/ST/usbx/common/usbx_stm32_device_controllers/ux_dcd_stm32_callback.c **** /**************************************************************************/
  22:Middlewares/ST/usbx/common/usbx_stm32_device_controllers/ux_dcd_stm32_callback.c **** 
  23:Middlewares/ST/usbx/common/usbx_stm32_device_controllers/ux_dcd_stm32_callback.c **** #define UX_SOURCE_CODE
  24:Middlewares/ST/usbx/common/usbx_stm32_device_controllers/ux_dcd_stm32_callback.c **** #define UX_DCD_STM32_SOURCE_CODE
  25:Middlewares/ST/usbx/common/usbx_stm32_device_controllers/ux_dcd_stm32_callback.c **** 
  26:Middlewares/ST/usbx/common/usbx_stm32_device_controllers/ux_dcd_stm32_callback.c **** 
  27:Middlewares/ST/usbx/common/usbx_stm32_device_controllers/ux_dcd_stm32_callback.c **** /* Include necessary system files.  */
  28:Middlewares/ST/usbx/common/usbx_stm32_device_controllers/ux_dcd_stm32_callback.c **** 
  29:Middlewares/ST/usbx/common/usbx_stm32_device_controllers/ux_dcd_stm32_callback.c **** #include "ux_api.h"
ARM GAS  C:\usertemp\cctPESIS.s 			page 2


  30:Middlewares/ST/usbx/common/usbx_stm32_device_controllers/ux_dcd_stm32_callback.c **** #include "ux_dcd_stm32.h"
  31:Middlewares/ST/usbx/common/usbx_stm32_device_controllers/ux_dcd_stm32_callback.c **** #include "ux_device_stack.h"
  32:Middlewares/ST/usbx/common/usbx_stm32_device_controllers/ux_dcd_stm32_callback.c **** #include "ux_utility.h"
  33:Middlewares/ST/usbx/common/usbx_stm32_device_controllers/ux_dcd_stm32_callback.c **** 
  34:Middlewares/ST/usbx/common/usbx_stm32_device_controllers/ux_dcd_stm32_callback.c **** 
  35:Middlewares/ST/usbx/common/usbx_stm32_device_controllers/ux_dcd_stm32_callback.c **** static inline void _ux_dcd_stm32_setup_in(UX_DCD_STM32_ED * ed, UX_SLAVE_TRANSFER *transfer_request
  36:Middlewares/ST/usbx/common/usbx_stm32_device_controllers/ux_dcd_stm32_callback.c **** {
  37:Middlewares/ST/usbx/common/usbx_stm32_device_controllers/ux_dcd_stm32_callback.c **** 
  38:Middlewares/ST/usbx/common/usbx_stm32_device_controllers/ux_dcd_stm32_callback.c ****     /* The endpoint is IN.  This is important to memorize the direction for the control endpoint
  39:Middlewares/ST/usbx/common/usbx_stm32_device_controllers/ux_dcd_stm32_callback.c ****         in case of a STALL. */
  40:Middlewares/ST/usbx/common/usbx_stm32_device_controllers/ux_dcd_stm32_callback.c ****     ed -> ux_dcd_stm32_ed_direction = UX_ENDPOINT_IN;
  41:Middlewares/ST/usbx/common/usbx_stm32_device_controllers/ux_dcd_stm32_callback.c **** 
  42:Middlewares/ST/usbx/common/usbx_stm32_device_controllers/ux_dcd_stm32_callback.c ****     /* Set the state to TX.  */
  43:Middlewares/ST/usbx/common/usbx_stm32_device_controllers/ux_dcd_stm32_callback.c ****     ed -> ux_dcd_stm32_ed_state = UX_DCD_STM32_ED_STATE_DATA_TX;
  44:Middlewares/ST/usbx/common/usbx_stm32_device_controllers/ux_dcd_stm32_callback.c **** 
  45:Middlewares/ST/usbx/common/usbx_stm32_device_controllers/ux_dcd_stm32_callback.c ****     /* Call the Control Transfer dispatcher.  */
  46:Middlewares/ST/usbx/common/usbx_stm32_device_controllers/ux_dcd_stm32_callback.c ****     _ux_device_stack_control_request_process(transfer_request);
  47:Middlewares/ST/usbx/common/usbx_stm32_device_controllers/ux_dcd_stm32_callback.c **** }
  48:Middlewares/ST/usbx/common/usbx_stm32_device_controllers/ux_dcd_stm32_callback.c **** 
  49:Middlewares/ST/usbx/common/usbx_stm32_device_controllers/ux_dcd_stm32_callback.c **** static inline void _ux_dcd_stm32_setup_out(UX_DCD_STM32_ED * ed, UX_SLAVE_TRANSFER *transfer_reques
  50:Middlewares/ST/usbx/common/usbx_stm32_device_controllers/ux_dcd_stm32_callback.c ****                                            PCD_HandleTypeDef *hpcd)
  51:Middlewares/ST/usbx/common/usbx_stm32_device_controllers/ux_dcd_stm32_callback.c **** {
  52:Middlewares/ST/usbx/common/usbx_stm32_device_controllers/ux_dcd_stm32_callback.c **** 
  53:Middlewares/ST/usbx/common/usbx_stm32_device_controllers/ux_dcd_stm32_callback.c ****     /* Set the completion code to no error.  */
  54:Middlewares/ST/usbx/common/usbx_stm32_device_controllers/ux_dcd_stm32_callback.c ****     transfer_request -> ux_slave_transfer_request_completion_code =  UX_SUCCESS;
  55:Middlewares/ST/usbx/common/usbx_stm32_device_controllers/ux_dcd_stm32_callback.c **** 
  56:Middlewares/ST/usbx/common/usbx_stm32_device_controllers/ux_dcd_stm32_callback.c ****     /* The endpoint is IN.  This is important to memorize the direction for the control endpoint
  57:Middlewares/ST/usbx/common/usbx_stm32_device_controllers/ux_dcd_stm32_callback.c ****         in case of a STALL. */
  58:Middlewares/ST/usbx/common/usbx_stm32_device_controllers/ux_dcd_stm32_callback.c ****     ed -> ux_dcd_stm32_ed_direction = UX_ENDPOINT_IN;
  59:Middlewares/ST/usbx/common/usbx_stm32_device_controllers/ux_dcd_stm32_callback.c **** 
  60:Middlewares/ST/usbx/common/usbx_stm32_device_controllers/ux_dcd_stm32_callback.c ****     /* We are using a Control endpoint on a OUT transaction and there was a payload.  */
  61:Middlewares/ST/usbx/common/usbx_stm32_device_controllers/ux_dcd_stm32_callback.c ****     if (_ux_device_stack_control_request_process(transfer_request) == UX_SUCCESS)
  62:Middlewares/ST/usbx/common/usbx_stm32_device_controllers/ux_dcd_stm32_callback.c ****     {
  63:Middlewares/ST/usbx/common/usbx_stm32_device_controllers/ux_dcd_stm32_callback.c **** 
  64:Middlewares/ST/usbx/common/usbx_stm32_device_controllers/ux_dcd_stm32_callback.c ****         /* Set the state to STATUS phase TX.  */
  65:Middlewares/ST/usbx/common/usbx_stm32_device_controllers/ux_dcd_stm32_callback.c ****         ed -> ux_dcd_stm32_ed_state = UX_DCD_STM32_ED_STATE_STATUS_TX;
  66:Middlewares/ST/usbx/common/usbx_stm32_device_controllers/ux_dcd_stm32_callback.c **** 
  67:Middlewares/ST/usbx/common/usbx_stm32_device_controllers/ux_dcd_stm32_callback.c ****         /* Arm the status transfer.  */
  68:Middlewares/ST/usbx/common/usbx_stm32_device_controllers/ux_dcd_stm32_callback.c ****         HAL_PCD_EP_Transmit(hpcd, 0x00U, UX_NULL, 0U);
  69:Middlewares/ST/usbx/common/usbx_stm32_device_controllers/ux_dcd_stm32_callback.c ****     }
  70:Middlewares/ST/usbx/common/usbx_stm32_device_controllers/ux_dcd_stm32_callback.c **** }
  71:Middlewares/ST/usbx/common/usbx_stm32_device_controllers/ux_dcd_stm32_callback.c **** 
  72:Middlewares/ST/usbx/common/usbx_stm32_device_controllers/ux_dcd_stm32_callback.c **** static inline void _ux_dcd_stm32_setup_status(UX_DCD_STM32_ED * ed, UX_SLAVE_TRANSFER *transfer_req
  73:Middlewares/ST/usbx/common/usbx_stm32_device_controllers/ux_dcd_stm32_callback.c ****                                               PCD_HandleTypeDef *hpcd)
  74:Middlewares/ST/usbx/common/usbx_stm32_device_controllers/ux_dcd_stm32_callback.c **** {
  30              		.loc 1 74 1 view -0
  31              		.cfi_startproc
  32              		@ args = 0, pretend = 0, frame = 0
  33              		@ frame_needed = 0, uses_anonymous_args = 0
  34              		.loc 1 74 1 is_stmt 0 view .LVU1
  35 0000 38B5     		push	{r3, r4, r5, lr}
  36              	.LCFI0:
  37              		.cfi_def_cfa_offset 16
  38              		.cfi_offset 3, -16
  39              		.cfi_offset 4, -12
  40              		.cfi_offset 5, -8
  41              		.cfi_offset 14, -4
ARM GAS  C:\usertemp\cctPESIS.s 			page 3


  42 0002 0446     		mov	r4, r0
  43 0004 1546     		mov	r5, r2
  75:Middlewares/ST/usbx/common/usbx_stm32_device_controllers/ux_dcd_stm32_callback.c **** 
  76:Middlewares/ST/usbx/common/usbx_stm32_device_controllers/ux_dcd_stm32_callback.c ****     /* The endpoint is IN.  This is important to memorize the direction for the control endpoint
  77:Middlewares/ST/usbx/common/usbx_stm32_device_controllers/ux_dcd_stm32_callback.c ****             in case of a STALL. */
  78:Middlewares/ST/usbx/common/usbx_stm32_device_controllers/ux_dcd_stm32_callback.c ****     ed -> ux_dcd_stm32_ed_direction = UX_ENDPOINT_IN;
  44              		.loc 1 78 5 is_stmt 1 view .LVU2
  45              		.loc 1 78 37 is_stmt 0 view .LVU3
  46 0006 8023     		movs	r3, #128
  47 0008 8372     		strb	r3, [r0, #10]
  79:Middlewares/ST/usbx/common/usbx_stm32_device_controllers/ux_dcd_stm32_callback.c **** 
  80:Middlewares/ST/usbx/common/usbx_stm32_device_controllers/ux_dcd_stm32_callback.c ****     /* Call the Control Transfer dispatcher.  */
  81:Middlewares/ST/usbx/common/usbx_stm32_device_controllers/ux_dcd_stm32_callback.c ****     if (_ux_device_stack_control_request_process(transfer_request) == UX_SUCCESS)
  48              		.loc 1 81 5 is_stmt 1 view .LVU4
  49              		.loc 1 81 9 is_stmt 0 view .LVU5
  50 000a 0846     		mov	r0, r1
  51              	.LVL1:
  52              		.loc 1 81 9 view .LVU6
  53 000c FFF7FEFF 		bl	_ux_device_stack_control_request_process
  54              	.LVL2:
  55              		.loc 1 81 8 discriminator 1 view .LVU7
  56 0010 00B1     		cbz	r0, .L4
  57              	.L1:
  82:Middlewares/ST/usbx/common/usbx_stm32_device_controllers/ux_dcd_stm32_callback.c ****     {
  83:Middlewares/ST/usbx/common/usbx_stm32_device_controllers/ux_dcd_stm32_callback.c **** 
  84:Middlewares/ST/usbx/common/usbx_stm32_device_controllers/ux_dcd_stm32_callback.c ****         /* Set the state to STATUS RX.  */
  85:Middlewares/ST/usbx/common/usbx_stm32_device_controllers/ux_dcd_stm32_callback.c ****         ed -> ux_dcd_stm32_ed_state = UX_DCD_STM32_ED_STATE_STATUS_RX;
  86:Middlewares/ST/usbx/common/usbx_stm32_device_controllers/ux_dcd_stm32_callback.c ****         HAL_PCD_EP_Transmit(hpcd, 0x00U, UX_NULL, 0U);
  87:Middlewares/ST/usbx/common/usbx_stm32_device_controllers/ux_dcd_stm32_callback.c ****     }
  88:Middlewares/ST/usbx/common/usbx_stm32_device_controllers/ux_dcd_stm32_callback.c **** }
  58              		.loc 1 88 1 view .LVU8
  59 0012 38BD     		pop	{r3, r4, r5, pc}
  60              	.LVL3:
  61              	.L4:
  85:Middlewares/ST/usbx/common/usbx_stm32_device_controllers/ux_dcd_stm32_callback.c ****         HAL_PCD_EP_Transmit(hpcd, 0x00U, UX_NULL, 0U);
  62              		.loc 1 85 9 is_stmt 1 view .LVU9
  85:Middlewares/ST/usbx/common/usbx_stm32_device_controllers/ux_dcd_stm32_callback.c ****         HAL_PCD_EP_Transmit(hpcd, 0x00U, UX_NULL, 0U);
  63              		.loc 1 85 37 is_stmt 0 view .LVU10
  64 0014 0423     		movs	r3, #4
  65 0016 2372     		strb	r3, [r4, #8]
  86:Middlewares/ST/usbx/common/usbx_stm32_device_controllers/ux_dcd_stm32_callback.c ****     }
  66              		.loc 1 86 9 is_stmt 1 view .LVU11
  67 0018 0023     		movs	r3, #0
  68 001a 1A46     		mov	r2, r3
  69 001c 1946     		mov	r1, r3
  70 001e 2846     		mov	r0, r5
  71 0020 FFF7FEFF 		bl	HAL_PCD_EP_Transmit
  72              	.LVL4:
  73              		.loc 1 88 1 is_stmt 0 view .LVU12
  74 0024 F5E7     		b	.L1
  75              		.cfi_endproc
  76              	.LFE171:
  78              		.section	.text._ux_dcd_stm32_setup_out,"ax",%progbits
  79              		.align	1
  80              		.syntax unified
  81              		.thumb
  82              		.thumb_func
ARM GAS  C:\usertemp\cctPESIS.s 			page 4


  84              	_ux_dcd_stm32_setup_out:
  85              	.LVL5:
  86              	.LFB170:
  51:Middlewares/ST/usbx/common/usbx_stm32_device_controllers/ux_dcd_stm32_callback.c **** 
  87              		.loc 1 51 1 is_stmt 1 view -0
  88              		.cfi_startproc
  89              		@ args = 0, pretend = 0, frame = 0
  90              		@ frame_needed = 0, uses_anonymous_args = 0
  51:Middlewares/ST/usbx/common/usbx_stm32_device_controllers/ux_dcd_stm32_callback.c **** 
  91              		.loc 1 51 1 is_stmt 0 view .LVU14
  92 0000 38B5     		push	{r3, r4, r5, lr}
  93              	.LCFI1:
  94              		.cfi_def_cfa_offset 16
  95              		.cfi_offset 3, -16
  96              		.cfi_offset 4, -12
  97              		.cfi_offset 5, -8
  98              		.cfi_offset 14, -4
  99 0002 0446     		mov	r4, r0
 100 0004 0846     		mov	r0, r1
 101              	.LVL6:
  51:Middlewares/ST/usbx/common/usbx_stm32_device_controllers/ux_dcd_stm32_callback.c **** 
 102              		.loc 1 51 1 view .LVU15
 103 0006 1546     		mov	r5, r2
  54:Middlewares/ST/usbx/common/usbx_stm32_device_controllers/ux_dcd_stm32_callback.c **** 
 104              		.loc 1 54 5 is_stmt 1 view .LVU16
  54:Middlewares/ST/usbx/common/usbx_stm32_device_controllers/ux_dcd_stm32_callback.c **** 
 105              		.loc 1 54 67 is_stmt 0 view .LVU17
 106 0008 0023     		movs	r3, #0
 107 000a 4B62     		str	r3, [r1, #36]
  58:Middlewares/ST/usbx/common/usbx_stm32_device_controllers/ux_dcd_stm32_callback.c **** 
 108              		.loc 1 58 5 is_stmt 1 view .LVU18
  58:Middlewares/ST/usbx/common/usbx_stm32_device_controllers/ux_dcd_stm32_callback.c **** 
 109              		.loc 1 58 37 is_stmt 0 view .LVU19
 110 000c 8023     		movs	r3, #128
 111 000e A372     		strb	r3, [r4, #10]
  61:Middlewares/ST/usbx/common/usbx_stm32_device_controllers/ux_dcd_stm32_callback.c ****     {
 112              		.loc 1 61 5 is_stmt 1 view .LVU20
  61:Middlewares/ST/usbx/common/usbx_stm32_device_controllers/ux_dcd_stm32_callback.c ****     {
 113              		.loc 1 61 9 is_stmt 0 view .LVU21
 114 0010 FFF7FEFF 		bl	_ux_device_stack_control_request_process
 115              	.LVL7:
  61:Middlewares/ST/usbx/common/usbx_stm32_device_controllers/ux_dcd_stm32_callback.c ****     {
 116              		.loc 1 61 8 discriminator 1 view .LVU22
 117 0014 00B1     		cbz	r0, .L8
 118              	.L5:
  70:Middlewares/ST/usbx/common/usbx_stm32_device_controllers/ux_dcd_stm32_callback.c **** 
 119              		.loc 1 70 1 view .LVU23
 120 0016 38BD     		pop	{r3, r4, r5, pc}
 121              	.LVL8:
 122              	.L8:
  65:Middlewares/ST/usbx/common/usbx_stm32_device_controllers/ux_dcd_stm32_callback.c **** 
 123              		.loc 1 65 9 is_stmt 1 view .LVU24
  65:Middlewares/ST/usbx/common/usbx_stm32_device_controllers/ux_dcd_stm32_callback.c **** 
 124              		.loc 1 65 37 is_stmt 0 view .LVU25
 125 0018 0323     		movs	r3, #3
 126 001a 2372     		strb	r3, [r4, #8]
  68:Middlewares/ST/usbx/common/usbx_stm32_device_controllers/ux_dcd_stm32_callback.c ****     }
ARM GAS  C:\usertemp\cctPESIS.s 			page 5


 127              		.loc 1 68 9 is_stmt 1 view .LVU26
 128 001c 0023     		movs	r3, #0
 129 001e 1A46     		mov	r2, r3
 130 0020 1946     		mov	r1, r3
 131 0022 2846     		mov	r0, r5
 132 0024 FFF7FEFF 		bl	HAL_PCD_EP_Transmit
 133              	.LVL9:
  70:Middlewares/ST/usbx/common/usbx_stm32_device_controllers/ux_dcd_stm32_callback.c **** 
 134              		.loc 1 70 1 is_stmt 0 view .LVU27
 135 0028 F5E7     		b	.L5
 136              		.cfi_endproc
 137              	.LFE170:
 139              		.section	.text.HAL_PCD_SetupStageCallback,"ax",%progbits
 140              		.align	1
 141              		.global	HAL_PCD_SetupStageCallback
 142              		.syntax unified
 143              		.thumb
 144              		.thumb_func
 146              	HAL_PCD_SetupStageCallback:
 147              	.LVL10:
 148              	.LFB172:
  89:Middlewares/ST/usbx/common/usbx_stm32_device_controllers/ux_dcd_stm32_callback.c **** 
  90:Middlewares/ST/usbx/common/usbx_stm32_device_controllers/ux_dcd_stm32_callback.c **** #if defined(UX_DEVICE_STANDALONE)
  91:Middlewares/ST/usbx/common/usbx_stm32_device_controllers/ux_dcd_stm32_callback.c **** /**************************************************************************/
  92:Middlewares/ST/usbx/common/usbx_stm32_device_controllers/ux_dcd_stm32_callback.c **** /*                                                                        */
  93:Middlewares/ST/usbx/common/usbx_stm32_device_controllers/ux_dcd_stm32_callback.c **** /*  FUNCTION                                                RELEASE       */
  94:Middlewares/ST/usbx/common/usbx_stm32_device_controllers/ux_dcd_stm32_callback.c **** /*                                                                        */
  95:Middlewares/ST/usbx/common/usbx_stm32_device_controllers/ux_dcd_stm32_callback.c **** /*    _ux_dcd_stm32_setup_isr_pending                      PORTABLE C     */
  96:Middlewares/ST/usbx/common/usbx_stm32_device_controllers/ux_dcd_stm32_callback.c **** /*                                                            6.1.10      */
  97:Middlewares/ST/usbx/common/usbx_stm32_device_controllers/ux_dcd_stm32_callback.c **** /*  AUTHOR                                                                */
  98:Middlewares/ST/usbx/common/usbx_stm32_device_controllers/ux_dcd_stm32_callback.c **** /*                                                                        */
  99:Middlewares/ST/usbx/common/usbx_stm32_device_controllers/ux_dcd_stm32_callback.c **** /*    Chaoqiong Xiao, Microsoft Corporation                               */
 100:Middlewares/ST/usbx/common/usbx_stm32_device_controllers/ux_dcd_stm32_callback.c **** /*                                                                        */
 101:Middlewares/ST/usbx/common/usbx_stm32_device_controllers/ux_dcd_stm32_callback.c **** /*  DESCRIPTION                                                           */
 102:Middlewares/ST/usbx/common/usbx_stm32_device_controllers/ux_dcd_stm32_callback.c **** /*                                                                        */
 103:Middlewares/ST/usbx/common/usbx_stm32_device_controllers/ux_dcd_stm32_callback.c **** /*    This function handles pending control ISR from HAL driver.          */
 104:Middlewares/ST/usbx/common/usbx_stm32_device_controllers/ux_dcd_stm32_callback.c **** /*                                                                        */
 105:Middlewares/ST/usbx/common/usbx_stm32_device_controllers/ux_dcd_stm32_callback.c **** /*  INPUT                                                                 */
 106:Middlewares/ST/usbx/common/usbx_stm32_device_controllers/ux_dcd_stm32_callback.c **** /*                                                                        */
 107:Middlewares/ST/usbx/common/usbx_stm32_device_controllers/ux_dcd_stm32_callback.c **** /*    hpcd                                  Pointer to PCD handle         */
 108:Middlewares/ST/usbx/common/usbx_stm32_device_controllers/ux_dcd_stm32_callback.c **** /*                                                                        */
 109:Middlewares/ST/usbx/common/usbx_stm32_device_controllers/ux_dcd_stm32_callback.c **** /*  OUTPUT                                                                */
 110:Middlewares/ST/usbx/common/usbx_stm32_device_controllers/ux_dcd_stm32_callback.c **** /*                                                                        */
 111:Middlewares/ST/usbx/common/usbx_stm32_device_controllers/ux_dcd_stm32_callback.c **** /*    None                                                                */
 112:Middlewares/ST/usbx/common/usbx_stm32_device_controllers/ux_dcd_stm32_callback.c **** /*                                                                        */
 113:Middlewares/ST/usbx/common/usbx_stm32_device_controllers/ux_dcd_stm32_callback.c **** /*  CALLS                                                                 */
 114:Middlewares/ST/usbx/common/usbx_stm32_device_controllers/ux_dcd_stm32_callback.c **** /*                                                                        */
 115:Middlewares/ST/usbx/common/usbx_stm32_device_controllers/ux_dcd_stm32_callback.c **** /*    _ux_device_stack_control_request_process                            */
 116:Middlewares/ST/usbx/common/usbx_stm32_device_controllers/ux_dcd_stm32_callback.c **** /*                                          Process control request       */
 117:Middlewares/ST/usbx/common/usbx_stm32_device_controllers/ux_dcd_stm32_callback.c **** /*    HAL_PCD_EP_Transmit                   Transmit data                 */
 118:Middlewares/ST/usbx/common/usbx_stm32_device_controllers/ux_dcd_stm32_callback.c **** /*    HAL_PCD_EP_Receive                    Receive data                  */
 119:Middlewares/ST/usbx/common/usbx_stm32_device_controllers/ux_dcd_stm32_callback.c **** /*                                                                        */
 120:Middlewares/ST/usbx/common/usbx_stm32_device_controllers/ux_dcd_stm32_callback.c **** /*  CALLED BY                                                             */
 121:Middlewares/ST/usbx/common/usbx_stm32_device_controllers/ux_dcd_stm32_callback.c **** /*                                                                        */
 122:Middlewares/ST/usbx/common/usbx_stm32_device_controllers/ux_dcd_stm32_callback.c **** /*    STM32 HAL Driver                                                    */
 123:Middlewares/ST/usbx/common/usbx_stm32_device_controllers/ux_dcd_stm32_callback.c **** /*                                                                        */
 124:Middlewares/ST/usbx/common/usbx_stm32_device_controllers/ux_dcd_stm32_callback.c **** /*  RELEASE HISTORY                                                       */
ARM GAS  C:\usertemp\cctPESIS.s 			page 6


 125:Middlewares/ST/usbx/common/usbx_stm32_device_controllers/ux_dcd_stm32_callback.c **** /*                                                                        */
 126:Middlewares/ST/usbx/common/usbx_stm32_device_controllers/ux_dcd_stm32_callback.c **** /*    DATE              NAME                      DESCRIPTION             */
 127:Middlewares/ST/usbx/common/usbx_stm32_device_controllers/ux_dcd_stm32_callback.c **** /*                                                                        */
 128:Middlewares/ST/usbx/common/usbx_stm32_device_controllers/ux_dcd_stm32_callback.c **** /*  01-31-2022     Chaoqiong Xiao           Initial Version 6.1.10        */
 129:Middlewares/ST/usbx/common/usbx_stm32_device_controllers/ux_dcd_stm32_callback.c **** /*                                                                        */
 130:Middlewares/ST/usbx/common/usbx_stm32_device_controllers/ux_dcd_stm32_callback.c **** /**************************************************************************/
 131:Middlewares/ST/usbx/common/usbx_stm32_device_controllers/ux_dcd_stm32_callback.c **** VOID     _ux_dcd_stm32_setup_isr_pending(UX_DCD_STM32 *dcd_stm32)
 132:Middlewares/ST/usbx/common/usbx_stm32_device_controllers/ux_dcd_stm32_callback.c **** {
 133:Middlewares/ST/usbx/common/usbx_stm32_device_controllers/ux_dcd_stm32_callback.c **** UX_INTERRUPT_SAVE_AREA
 134:Middlewares/ST/usbx/common/usbx_stm32_device_controllers/ux_dcd_stm32_callback.c **** UX_DCD_STM32_ED         *ed;
 135:Middlewares/ST/usbx/common/usbx_stm32_device_controllers/ux_dcd_stm32_callback.c **** UX_SLAVE_TRANSFER       *transfer_request;
 136:Middlewares/ST/usbx/common/usbx_stm32_device_controllers/ux_dcd_stm32_callback.c **** ULONG                   ed_status;
 137:Middlewares/ST/usbx/common/usbx_stm32_device_controllers/ux_dcd_stm32_callback.c **** 
 138:Middlewares/ST/usbx/common/usbx_stm32_device_controllers/ux_dcd_stm32_callback.c ****     /* Fetch the address of the physical endpoint.  */
 139:Middlewares/ST/usbx/common/usbx_stm32_device_controllers/ux_dcd_stm32_callback.c ****     ed =  &dcd_stm32 -> ux_dcd_stm32_ed[0];
 140:Middlewares/ST/usbx/common/usbx_stm32_device_controllers/ux_dcd_stm32_callback.c **** 
 141:Middlewares/ST/usbx/common/usbx_stm32_device_controllers/ux_dcd_stm32_callback.c ****     /* Get the pointer to the transfer request.  */
 142:Middlewares/ST/usbx/common/usbx_stm32_device_controllers/ux_dcd_stm32_callback.c ****     transfer_request =  &ed -> ux_dcd_stm32_ed_endpoint -> ux_slave_endpoint_transfer_request;
 143:Middlewares/ST/usbx/common/usbx_stm32_device_controllers/ux_dcd_stm32_callback.c **** 
 144:Middlewares/ST/usbx/common/usbx_stm32_device_controllers/ux_dcd_stm32_callback.c ****     UX_DISABLE
 145:Middlewares/ST/usbx/common/usbx_stm32_device_controllers/ux_dcd_stm32_callback.c **** 
 146:Middlewares/ST/usbx/common/usbx_stm32_device_controllers/ux_dcd_stm32_callback.c ****     /* Get the ED status.  */
 147:Middlewares/ST/usbx/common/usbx_stm32_device_controllers/ux_dcd_stm32_callback.c ****     ed_status = ed -> ux_dcd_stm32_ed_status;
 148:Middlewares/ST/usbx/common/usbx_stm32_device_controllers/ux_dcd_stm32_callback.c **** 
 149:Middlewares/ST/usbx/common/usbx_stm32_device_controllers/ux_dcd_stm32_callback.c ****     /* Check if Task is pending to avoid re-entry.  */
 150:Middlewares/ST/usbx/common/usbx_stm32_device_controllers/ux_dcd_stm32_callback.c ****     if (ed_status & UX_DCD_STM32_ED_STATUS_TASK_PENDING)
 151:Middlewares/ST/usbx/common/usbx_stm32_device_controllers/ux_dcd_stm32_callback.c ****     {
 152:Middlewares/ST/usbx/common/usbx_stm32_device_controllers/ux_dcd_stm32_callback.c ****         UX_RESTORE
 153:Middlewares/ST/usbx/common/usbx_stm32_device_controllers/ux_dcd_stm32_callback.c ****         return;
 154:Middlewares/ST/usbx/common/usbx_stm32_device_controllers/ux_dcd_stm32_callback.c ****     }
 155:Middlewares/ST/usbx/common/usbx_stm32_device_controllers/ux_dcd_stm32_callback.c **** 
 156:Middlewares/ST/usbx/common/usbx_stm32_device_controllers/ux_dcd_stm32_callback.c ****     /* Check if SETUP ISR is pending.  */
 157:Middlewares/ST/usbx/common/usbx_stm32_device_controllers/ux_dcd_stm32_callback.c ****     ed_status &= UX_DCD_STM32_ED_STATUS_SETUP;
 158:Middlewares/ST/usbx/common/usbx_stm32_device_controllers/ux_dcd_stm32_callback.c ****     if (ed_status == 0)
 159:Middlewares/ST/usbx/common/usbx_stm32_device_controllers/ux_dcd_stm32_callback.c ****     {
 160:Middlewares/ST/usbx/common/usbx_stm32_device_controllers/ux_dcd_stm32_callback.c ****         UX_RESTORE
 161:Middlewares/ST/usbx/common/usbx_stm32_device_controllers/ux_dcd_stm32_callback.c ****         return;
 162:Middlewares/ST/usbx/common/usbx_stm32_device_controllers/ux_dcd_stm32_callback.c ****     }
 163:Middlewares/ST/usbx/common/usbx_stm32_device_controllers/ux_dcd_stm32_callback.c ****     ed -> ux_dcd_stm32_ed_status &= ~UX_DCD_STM32_ED_STATUS_SETUP;
 164:Middlewares/ST/usbx/common/usbx_stm32_device_controllers/ux_dcd_stm32_callback.c ****     ed -> ux_dcd_stm32_ed_status |= UX_DCD_STM32_ED_STATUS_TASK_PENDING;
 165:Middlewares/ST/usbx/common/usbx_stm32_device_controllers/ux_dcd_stm32_callback.c ****     UX_RESTORE
 166:Middlewares/ST/usbx/common/usbx_stm32_device_controllers/ux_dcd_stm32_callback.c **** 
 167:Middlewares/ST/usbx/common/usbx_stm32_device_controllers/ux_dcd_stm32_callback.c ****     /* Handle different SETUP cases.  */
 168:Middlewares/ST/usbx/common/usbx_stm32_device_controllers/ux_dcd_stm32_callback.c ****     switch(ed_status)
 169:Middlewares/ST/usbx/common/usbx_stm32_device_controllers/ux_dcd_stm32_callback.c ****     {
 170:Middlewares/ST/usbx/common/usbx_stm32_device_controllers/ux_dcd_stm32_callback.c ****     case UX_DCD_STM32_ED_STATUS_SETUP_IN:
 171:Middlewares/ST/usbx/common/usbx_stm32_device_controllers/ux_dcd_stm32_callback.c ****         _ux_dcd_stm32_setup_in(ed, transfer_request);
 172:Middlewares/ST/usbx/common/usbx_stm32_device_controllers/ux_dcd_stm32_callback.c ****         break;
 173:Middlewares/ST/usbx/common/usbx_stm32_device_controllers/ux_dcd_stm32_callback.c **** 
 174:Middlewares/ST/usbx/common/usbx_stm32_device_controllers/ux_dcd_stm32_callback.c ****     case UX_DCD_STM32_ED_STATUS_SETUP_OUT:
 175:Middlewares/ST/usbx/common/usbx_stm32_device_controllers/ux_dcd_stm32_callback.c ****         _ux_dcd_stm32_setup_out(ed, transfer_request, dcd_stm32 -> pcd_handle);
 176:Middlewares/ST/usbx/common/usbx_stm32_device_controllers/ux_dcd_stm32_callback.c ****         break;
 177:Middlewares/ST/usbx/common/usbx_stm32_device_controllers/ux_dcd_stm32_callback.c **** 
 178:Middlewares/ST/usbx/common/usbx_stm32_device_controllers/ux_dcd_stm32_callback.c ****     default: /* UX_DCD_STM32_ED_STATUS_SETUP_STATUS  */
 179:Middlewares/ST/usbx/common/usbx_stm32_device_controllers/ux_dcd_stm32_callback.c ****         _ux_dcd_stm32_setup_status(ed, transfer_request, dcd_stm32 -> pcd_handle);
 180:Middlewares/ST/usbx/common/usbx_stm32_device_controllers/ux_dcd_stm32_callback.c ****         break;
 181:Middlewares/ST/usbx/common/usbx_stm32_device_controllers/ux_dcd_stm32_callback.c ****     }
ARM GAS  C:\usertemp\cctPESIS.s 			page 7


 182:Middlewares/ST/usbx/common/usbx_stm32_device_controllers/ux_dcd_stm32_callback.c **** 
 183:Middlewares/ST/usbx/common/usbx_stm32_device_controllers/ux_dcd_stm32_callback.c ****     /* Task is done.  */
 184:Middlewares/ST/usbx/common/usbx_stm32_device_controllers/ux_dcd_stm32_callback.c ****     ed -> ux_dcd_stm32_ed_status &= ~UX_DCD_STM32_ED_STATUS_TASK_PENDING;
 185:Middlewares/ST/usbx/common/usbx_stm32_device_controllers/ux_dcd_stm32_callback.c **** }
 186:Middlewares/ST/usbx/common/usbx_stm32_device_controllers/ux_dcd_stm32_callback.c **** #endif
 187:Middlewares/ST/usbx/common/usbx_stm32_device_controllers/ux_dcd_stm32_callback.c **** 
 188:Middlewares/ST/usbx/common/usbx_stm32_device_controllers/ux_dcd_stm32_callback.c **** /**************************************************************************/
 189:Middlewares/ST/usbx/common/usbx_stm32_device_controllers/ux_dcd_stm32_callback.c **** /*                                                                        */
 190:Middlewares/ST/usbx/common/usbx_stm32_device_controllers/ux_dcd_stm32_callback.c **** /*  FUNCTION                                               RELEASE        */
 191:Middlewares/ST/usbx/common/usbx_stm32_device_controllers/ux_dcd_stm32_callback.c **** /*                                                                        */
 192:Middlewares/ST/usbx/common/usbx_stm32_device_controllers/ux_dcd_stm32_callback.c **** /*    HAL_PCD_SetupStageCallback                          PORTABLE C      */
 193:Middlewares/ST/usbx/common/usbx_stm32_device_controllers/ux_dcd_stm32_callback.c **** /*                                                           6.1.10       */
 194:Middlewares/ST/usbx/common/usbx_stm32_device_controllers/ux_dcd_stm32_callback.c **** /*  AUTHOR                                                                */
 195:Middlewares/ST/usbx/common/usbx_stm32_device_controllers/ux_dcd_stm32_callback.c **** /*                                                                        */
 196:Middlewares/ST/usbx/common/usbx_stm32_device_controllers/ux_dcd_stm32_callback.c **** /*    Chaoqiong Xiao, Microsoft Corporation                               */
 197:Middlewares/ST/usbx/common/usbx_stm32_device_controllers/ux_dcd_stm32_callback.c **** /*                                                                        */
 198:Middlewares/ST/usbx/common/usbx_stm32_device_controllers/ux_dcd_stm32_callback.c **** /*  DESCRIPTION                                                           */
 199:Middlewares/ST/usbx/common/usbx_stm32_device_controllers/ux_dcd_stm32_callback.c **** /*                                                                        */
 200:Middlewares/ST/usbx/common/usbx_stm32_device_controllers/ux_dcd_stm32_callback.c **** /*    This function handles callback from HAL driver.                     */
 201:Middlewares/ST/usbx/common/usbx_stm32_device_controllers/ux_dcd_stm32_callback.c **** /*                                                                        */
 202:Middlewares/ST/usbx/common/usbx_stm32_device_controllers/ux_dcd_stm32_callback.c **** /*  INPUT                                                                 */
 203:Middlewares/ST/usbx/common/usbx_stm32_device_controllers/ux_dcd_stm32_callback.c **** /*                                                                        */
 204:Middlewares/ST/usbx/common/usbx_stm32_device_controllers/ux_dcd_stm32_callback.c **** /*    hpcd                                  Pointer to PCD handle         */
 205:Middlewares/ST/usbx/common/usbx_stm32_device_controllers/ux_dcd_stm32_callback.c **** /*                                                                        */
 206:Middlewares/ST/usbx/common/usbx_stm32_device_controllers/ux_dcd_stm32_callback.c **** /*  OUTPUT                                                                */
 207:Middlewares/ST/usbx/common/usbx_stm32_device_controllers/ux_dcd_stm32_callback.c **** /*                                                                        */
 208:Middlewares/ST/usbx/common/usbx_stm32_device_controllers/ux_dcd_stm32_callback.c **** /*    None                                                                */
 209:Middlewares/ST/usbx/common/usbx_stm32_device_controllers/ux_dcd_stm32_callback.c **** /*                                                                        */
 210:Middlewares/ST/usbx/common/usbx_stm32_device_controllers/ux_dcd_stm32_callback.c **** /*  CALLS                                                                 */
 211:Middlewares/ST/usbx/common/usbx_stm32_device_controllers/ux_dcd_stm32_callback.c **** /*                                                                        */
 212:Middlewares/ST/usbx/common/usbx_stm32_device_controllers/ux_dcd_stm32_callback.c **** /*    _ux_device_stack_control_request_process                            */
 213:Middlewares/ST/usbx/common/usbx_stm32_device_controllers/ux_dcd_stm32_callback.c **** /*                                          Process control request       */
 214:Middlewares/ST/usbx/common/usbx_stm32_device_controllers/ux_dcd_stm32_callback.c **** /*    HAL_PCD_EP_Transmit                   Transmit data                 */
 215:Middlewares/ST/usbx/common/usbx_stm32_device_controllers/ux_dcd_stm32_callback.c **** /*    HAL_PCD_EP_Receive                    Receive data                  */
 216:Middlewares/ST/usbx/common/usbx_stm32_device_controllers/ux_dcd_stm32_callback.c **** /*                                                                        */
 217:Middlewares/ST/usbx/common/usbx_stm32_device_controllers/ux_dcd_stm32_callback.c **** /*  CALLED BY                                                             */
 218:Middlewares/ST/usbx/common/usbx_stm32_device_controllers/ux_dcd_stm32_callback.c **** /*                                                                        */
 219:Middlewares/ST/usbx/common/usbx_stm32_device_controllers/ux_dcd_stm32_callback.c **** /*    STM32 HAL Driver                                                    */
 220:Middlewares/ST/usbx/common/usbx_stm32_device_controllers/ux_dcd_stm32_callback.c **** /*                                                                        */
 221:Middlewares/ST/usbx/common/usbx_stm32_device_controllers/ux_dcd_stm32_callback.c **** /*  RELEASE HISTORY                                                       */
 222:Middlewares/ST/usbx/common/usbx_stm32_device_controllers/ux_dcd_stm32_callback.c **** /*                                                                        */
 223:Middlewares/ST/usbx/common/usbx_stm32_device_controllers/ux_dcd_stm32_callback.c **** /*    DATE              NAME                      DESCRIPTION             */
 224:Middlewares/ST/usbx/common/usbx_stm32_device_controllers/ux_dcd_stm32_callback.c **** /*                                                                        */
 225:Middlewares/ST/usbx/common/usbx_stm32_device_controllers/ux_dcd_stm32_callback.c **** /*  09-30-2020     Chaoqiong Xiao           Initial Version 6.1           */
 226:Middlewares/ST/usbx/common/usbx_stm32_device_controllers/ux_dcd_stm32_callback.c **** /*  01-31-2022     Chaoqiong Xiao           Modified comment(s),          */
 227:Middlewares/ST/usbx/common/usbx_stm32_device_controllers/ux_dcd_stm32_callback.c **** /*                                            added standalone support,   */
 228:Middlewares/ST/usbx/common/usbx_stm32_device_controllers/ux_dcd_stm32_callback.c **** /*                                            resulting in version 6.1.10 */
 229:Middlewares/ST/usbx/common/usbx_stm32_device_controllers/ux_dcd_stm32_callback.c **** /*                                                                        */
 230:Middlewares/ST/usbx/common/usbx_stm32_device_controllers/ux_dcd_stm32_callback.c **** /**************************************************************************/
 231:Middlewares/ST/usbx/common/usbx_stm32_device_controllers/ux_dcd_stm32_callback.c **** void HAL_PCD_SetupStageCallback(PCD_HandleTypeDef *hpcd)
 232:Middlewares/ST/usbx/common/usbx_stm32_device_controllers/ux_dcd_stm32_callback.c **** {
 149              		.loc 1 232 1 is_stmt 1 view -0
 150              		.cfi_startproc
 151              		@ args = 0, pretend = 0, frame = 0
 152              		@ frame_needed = 0, uses_anonymous_args = 0
 153              		.loc 1 232 1 is_stmt 0 view .LVU29
 154 0000 2DE9F041 		push	{r4, r5, r6, r7, r8, lr}
ARM GAS  C:\usertemp\cctPESIS.s 			page 8


 155              	.LCFI2:
 156              		.cfi_def_cfa_offset 24
 157              		.cfi_offset 4, -24
 158              		.cfi_offset 5, -20
 159              		.cfi_offset 6, -16
 160              		.cfi_offset 7, -12
 161              		.cfi_offset 8, -8
 162              		.cfi_offset 14, -4
 163 0004 0646     		mov	r6, r0
 233:Middlewares/ST/usbx/common/usbx_stm32_device_controllers/ux_dcd_stm32_callback.c **** 
 234:Middlewares/ST/usbx/common/usbx_stm32_device_controllers/ux_dcd_stm32_callback.c **** UX_SLAVE_DCD            *dcd;
 164              		.loc 1 234 1 is_stmt 1 view .LVU30
 235:Middlewares/ST/usbx/common/usbx_stm32_device_controllers/ux_dcd_stm32_callback.c **** UX_DCD_STM32            *dcd_stm32;
 165              		.loc 1 235 1 view .LVU31
 236:Middlewares/ST/usbx/common/usbx_stm32_device_controllers/ux_dcd_stm32_callback.c **** UX_DCD_STM32_ED         *ed;
 166              		.loc 1 236 1 view .LVU32
 237:Middlewares/ST/usbx/common/usbx_stm32_device_controllers/ux_dcd_stm32_callback.c **** UX_SLAVE_TRANSFER       *transfer_request;
 167              		.loc 1 237 1 view .LVU33
 238:Middlewares/ST/usbx/common/usbx_stm32_device_controllers/ux_dcd_stm32_callback.c **** UX_SLAVE_ENDPOINT       *endpoint;
 168              		.loc 1 238 1 view .LVU34
 239:Middlewares/ST/usbx/common/usbx_stm32_device_controllers/ux_dcd_stm32_callback.c **** 
 240:Middlewares/ST/usbx/common/usbx_stm32_device_controllers/ux_dcd_stm32_callback.c **** 
 241:Middlewares/ST/usbx/common/usbx_stm32_device_controllers/ux_dcd_stm32_callback.c ****     /* Get the pointer to the DCD.  */
 242:Middlewares/ST/usbx/common/usbx_stm32_device_controllers/ux_dcd_stm32_callback.c ****     dcd =  &_ux_system_slave -> ux_system_slave_dcd;
 169              		.loc 1 242 5 view .LVU35
 170              		.loc 1 242 30 is_stmt 0 view .LVU36
 171 0006 274B     		ldr	r3, .L18
 172 0008 1B68     		ldr	r3, [r3]
 173              	.LVL11:
 243:Middlewares/ST/usbx/common/usbx_stm32_device_controllers/ux_dcd_stm32_callback.c **** 
 244:Middlewares/ST/usbx/common/usbx_stm32_device_controllers/ux_dcd_stm32_callback.c ****     /* Get the pointer to the STM32 DCD.  */
 245:Middlewares/ST/usbx/common/usbx_stm32_device_controllers/ux_dcd_stm32_callback.c ****     dcd_stm32 = (UX_DCD_STM32 *) dcd -> ux_slave_dcd_controller_hardware;
 174              		.loc 1 245 5 is_stmt 1 view .LVU37
 175              		.loc 1 245 15 is_stmt 0 view .LVU38
 176 000a DD69     		ldr	r5, [r3, #28]
 177              	.LVL12:
 246:Middlewares/ST/usbx/common/usbx_stm32_device_controllers/ux_dcd_stm32_callback.c **** 
 247:Middlewares/ST/usbx/common/usbx_stm32_device_controllers/ux_dcd_stm32_callback.c ****     /* Fetch the address of the physical endpoint.  */
 248:Middlewares/ST/usbx/common/usbx_stm32_device_controllers/ux_dcd_stm32_callback.c ****     ed =  &dcd_stm32 -> ux_dcd_stm32_ed[0];
 178              		.loc 1 248 5 is_stmt 1 view .LVU39
 249:Middlewares/ST/usbx/common/usbx_stm32_device_controllers/ux_dcd_stm32_callback.c **** 
 250:Middlewares/ST/usbx/common/usbx_stm32_device_controllers/ux_dcd_stm32_callback.c ****     /* Get the pointer to the transfer request.  */
 251:Middlewares/ST/usbx/common/usbx_stm32_device_controllers/ux_dcd_stm32_callback.c ****     transfer_request =  &ed -> ux_dcd_stm32_ed_endpoint -> ux_slave_endpoint_transfer_request;
 179              		.loc 1 251 5 view .LVU40
 180              		.loc 1 251 29 is_stmt 0 view .LVU41
 181 000c 6C68     		ldr	r4, [r5, #4]
 182              		.loc 1 251 22 view .LVU42
 183 000e 04F12007 		add	r7, r4, #32
 184              	.LVL13:
 252:Middlewares/ST/usbx/common/usbx_stm32_device_controllers/ux_dcd_stm32_callback.c **** 
 253:Middlewares/ST/usbx/common/usbx_stm32_device_controllers/ux_dcd_stm32_callback.c ****     /* Copy setup data to transfer request.  */
 254:Middlewares/ST/usbx/common/usbx_stm32_device_controllers/ux_dcd_stm32_callback.c ****     _ux_utility_memory_copy(transfer_request->ux_slave_transfer_request_setup, hpcd -> Setup, UX_SE
 185              		.loc 1 254 5 is_stmt 1 view .LVU43
 186 0012 0822     		movs	r2, #8
 187 0014 00F29C41 		addw	r1, r0, #1180
 188 0018 04F17400 		add	r0, r4, #116
 189              	.LVL14:
ARM GAS  C:\usertemp\cctPESIS.s 			page 9


 190              		.loc 1 254 5 is_stmt 0 view .LVU44
 191 001c FFF7FEFF 		bl	_ux_utility_memory_copy
 192              	.LVL15:
 255:Middlewares/ST/usbx/common/usbx_stm32_device_controllers/ux_dcd_stm32_callback.c **** 
 256:Middlewares/ST/usbx/common/usbx_stm32_device_controllers/ux_dcd_stm32_callback.c ****     /* Clear the length of the data received.  */
 257:Middlewares/ST/usbx/common/usbx_stm32_device_controllers/ux_dcd_stm32_callback.c ****     transfer_request -> ux_slave_transfer_request_actual_length =  0;
 193              		.loc 1 257 5 is_stmt 1 view .LVU45
 194              		.loc 1 257 65 is_stmt 0 view .LVU46
 195 0020 0023     		movs	r3, #0
 196 0022 A363     		str	r3, [r4, #56]
 258:Middlewares/ST/usbx/common/usbx_stm32_device_controllers/ux_dcd_stm32_callback.c **** 
 259:Middlewares/ST/usbx/common/usbx_stm32_device_controllers/ux_dcd_stm32_callback.c ****     /* Mark the phase as SETUP.  */
 260:Middlewares/ST/usbx/common/usbx_stm32_device_controllers/ux_dcd_stm32_callback.c ****     transfer_request -> ux_slave_transfer_request_type =  UX_TRANSFER_PHASE_SETUP;
 197              		.loc 1 260 5 is_stmt 1 view .LVU47
 198              		.loc 1 260 56 is_stmt 0 view .LVU48
 199 0024 0122     		movs	r2, #1
 200 0026 6262     		str	r2, [r4, #36]
 261:Middlewares/ST/usbx/common/usbx_stm32_device_controllers/ux_dcd_stm32_callback.c **** 
 262:Middlewares/ST/usbx/common/usbx_stm32_device_controllers/ux_dcd_stm32_callback.c ****     /* Mark the transfer as successful.  */
 263:Middlewares/ST/usbx/common/usbx_stm32_device_controllers/ux_dcd_stm32_callback.c ****     transfer_request -> ux_slave_transfer_request_completion_code =  UX_SUCCESS;
 201              		.loc 1 263 5 is_stmt 1 view .LVU49
 202              		.loc 1 263 67 is_stmt 0 view .LVU50
 203 0028 6364     		str	r3, [r4, #68]
 264:Middlewares/ST/usbx/common/usbx_stm32_device_controllers/ux_dcd_stm32_callback.c **** 
 265:Middlewares/ST/usbx/common/usbx_stm32_device_controllers/ux_dcd_stm32_callback.c ****     /* Set the status of the endpoint to not stalled.  */
 266:Middlewares/ST/usbx/common/usbx_stm32_device_controllers/ux_dcd_stm32_callback.c ****     ed -> ux_dcd_stm32_ed_status &= ~(UX_DCD_STM32_ED_STATUS_STALLED |
 204              		.loc 1 266 5 is_stmt 1 view .LVU51
 205              		.loc 1 266 8 is_stmt 0 view .LVU52
 206 002a AB68     		ldr	r3, [r5, #8]
 207              		.loc 1 266 34 view .LVU53
 208 002c 23F00E03 		bic	r3, r3, #14
 209 0030 AB60     		str	r3, [r5, #8]
 267:Middlewares/ST/usbx/common/usbx_stm32_device_controllers/ux_dcd_stm32_callback.c ****                                       UX_DCD_STM32_ED_STATUS_TRANSFER |
 268:Middlewares/ST/usbx/common/usbx_stm32_device_controllers/ux_dcd_stm32_callback.c ****                                       UX_DCD_STM32_ED_STATUS_DONE);
 269:Middlewares/ST/usbx/common/usbx_stm32_device_controllers/ux_dcd_stm32_callback.c **** 
 270:Middlewares/ST/usbx/common/usbx_stm32_device_controllers/ux_dcd_stm32_callback.c ****     /* Check if the transaction is IN.  */
 271:Middlewares/ST/usbx/common/usbx_stm32_device_controllers/ux_dcd_stm32_callback.c ****     if (*transfer_request -> ux_slave_transfer_request_setup & UX_REQUEST_IN)
 210              		.loc 1 271 5 is_stmt 1 view .LVU54
 211              		.loc 1 271 9 is_stmt 0 view .LVU55
 212 0032 94F97430 		ldrsb	r3, [r4, #116]
 213              		.loc 1 271 8 view .LVU56
 214 0036 002B     		cmp	r3, #0
 215 0038 1FDB     		blt	.L15
 216 003a 05F10408 		add	r8, r5, #4
 217              	.LVL16:
 272:Middlewares/ST/usbx/common/usbx_stm32_device_controllers/ux_dcd_stm32_callback.c ****     {
 273:Middlewares/ST/usbx/common/usbx_stm32_device_controllers/ux_dcd_stm32_callback.c **** #if defined(UX_DEVICE_STANDALONE)
 274:Middlewares/ST/usbx/common/usbx_stm32_device_controllers/ux_dcd_stm32_callback.c ****         ed -> ux_dcd_stm32_ed_status |= UX_DCD_STM32_ED_STATUS_SETUP_IN;
 275:Middlewares/ST/usbx/common/usbx_stm32_device_controllers/ux_dcd_stm32_callback.c **** #else
 276:Middlewares/ST/usbx/common/usbx_stm32_device_controllers/ux_dcd_stm32_callback.c ****         _ux_dcd_stm32_setup_in(ed, transfer_request);
 277:Middlewares/ST/usbx/common/usbx_stm32_device_controllers/ux_dcd_stm32_callback.c **** #endif
 278:Middlewares/ST/usbx/common/usbx_stm32_device_controllers/ux_dcd_stm32_callback.c ****     }
 279:Middlewares/ST/usbx/common/usbx_stm32_device_controllers/ux_dcd_stm32_callback.c ****     else
 280:Middlewares/ST/usbx/common/usbx_stm32_device_controllers/ux_dcd_stm32_callback.c ****     {
 281:Middlewares/ST/usbx/common/usbx_stm32_device_controllers/ux_dcd_stm32_callback.c **** 
 282:Middlewares/ST/usbx/common/usbx_stm32_device_controllers/ux_dcd_stm32_callback.c ****         /* The endpoint is OUT.  This is important to memorize the direction for the control endpoi
 283:Middlewares/ST/usbx/common/usbx_stm32_device_controllers/ux_dcd_stm32_callback.c ****            in case of a STALL. */
ARM GAS  C:\usertemp\cctPESIS.s 			page 10


 284:Middlewares/ST/usbx/common/usbx_stm32_device_controllers/ux_dcd_stm32_callback.c ****         ed -> ux_dcd_stm32_ed_direction  = UX_ENDPOINT_OUT;
 218              		.loc 1 284 9 is_stmt 1 view .LVU57
 219              		.loc 1 284 42 is_stmt 0 view .LVU58
 220 003e 0023     		movs	r3, #0
 221 0040 AB73     		strb	r3, [r5, #14]
 285:Middlewares/ST/usbx/common/usbx_stm32_device_controllers/ux_dcd_stm32_callback.c **** 
 286:Middlewares/ST/usbx/common/usbx_stm32_device_controllers/ux_dcd_stm32_callback.c ****         /* We are in a OUT transaction. Check if there is a data payload. If so, wait for the paylo
 287:Middlewares/ST/usbx/common/usbx_stm32_device_controllers/ux_dcd_stm32_callback.c ****            to be delivered.  */
 288:Middlewares/ST/usbx/common/usbx_stm32_device_controllers/ux_dcd_stm32_callback.c ****         if (*(transfer_request -> ux_slave_transfer_request_setup + 6) == 0 &&
 222              		.loc 1 288 9 is_stmt 1 view .LVU59
 223              		.loc 1 288 13 is_stmt 0 view .LVU60
 224 0042 94F87A30 		ldrb	r3, [r4, #122]	@ zero_extendqisi2
 225              		.loc 1 288 12 view .LVU61
 226 0046 13B9     		cbnz	r3, .L12
 289:Middlewares/ST/usbx/common/usbx_stm32_device_controllers/ux_dcd_stm32_callback.c ****             *(transfer_request -> ux_slave_transfer_request_setup + 7) == 0)
 227              		.loc 1 289 13 view .LVU62
 228 0048 94F87B30 		ldrb	r3, [r4, #123]	@ zero_extendqisi2
 288:Middlewares/ST/usbx/common/usbx_stm32_device_controllers/ux_dcd_stm32_callback.c ****             *(transfer_request -> ux_slave_transfer_request_setup + 7) == 0)
 229              		.loc 1 288 77 discriminator 1 view .LVU63
 230 004c E3B1     		cbz	r3, .L16
 231              	.L12:
 290:Middlewares/ST/usbx/common/usbx_stm32_device_controllers/ux_dcd_stm32_callback.c ****         {
 291:Middlewares/ST/usbx/common/usbx_stm32_device_controllers/ux_dcd_stm32_callback.c **** #if defined(UX_DEVICE_STANDALONE)
 292:Middlewares/ST/usbx/common/usbx_stm32_device_controllers/ux_dcd_stm32_callback.c ****             ed -> ux_dcd_stm32_ed_status |= UX_DCD_STM32_ED_STATUS_SETUP_STATUS;
 293:Middlewares/ST/usbx/common/usbx_stm32_device_controllers/ux_dcd_stm32_callback.c **** #else
 294:Middlewares/ST/usbx/common/usbx_stm32_device_controllers/ux_dcd_stm32_callback.c ****             _ux_dcd_stm32_setup_status(ed, transfer_request, hpcd);
 295:Middlewares/ST/usbx/common/usbx_stm32_device_controllers/ux_dcd_stm32_callback.c **** #endif
 296:Middlewares/ST/usbx/common/usbx_stm32_device_controllers/ux_dcd_stm32_callback.c ****         }
 297:Middlewares/ST/usbx/common/usbx_stm32_device_controllers/ux_dcd_stm32_callback.c ****         else
 298:Middlewares/ST/usbx/common/usbx_stm32_device_controllers/ux_dcd_stm32_callback.c ****         {
 299:Middlewares/ST/usbx/common/usbx_stm32_device_controllers/ux_dcd_stm32_callback.c **** 
 300:Middlewares/ST/usbx/common/usbx_stm32_device_controllers/ux_dcd_stm32_callback.c ****             /* Get the pointer to the logical endpoint from the transfer request.  */
 301:Middlewares/ST/usbx/common/usbx_stm32_device_controllers/ux_dcd_stm32_callback.c ****             endpoint =  transfer_request -> ux_slave_transfer_request_endpoint;
 232              		.loc 1 301 13 is_stmt 1 view .LVU64
 233              		.loc 1 301 22 is_stmt 0 view .LVU65
 234 004e A76A     		ldr	r7, [r4, #40]
 235              	.LVL17:
 302:Middlewares/ST/usbx/common/usbx_stm32_device_controllers/ux_dcd_stm32_callback.c **** 
 303:Middlewares/ST/usbx/common/usbx_stm32_device_controllers/ux_dcd_stm32_callback.c ****             /* Get the length we expect from the SETUP packet.  */
 304:Middlewares/ST/usbx/common/usbx_stm32_device_controllers/ux_dcd_stm32_callback.c ****             transfer_request -> ux_slave_transfer_request_requested_length = _ux_utility_short_get(
 236              		.loc 1 304 13 is_stmt 1 view .LVU66
 237              		.loc 1 304 78 is_stmt 0 view .LVU67
 238 0050 04F17A00 		add	r0, r4, #122
 239 0054 FFF7FEFF 		bl	_ux_utility_short_get
 240              	.LVL18:
 241 0058 0346     		mov	r3, r0
 242              		.loc 1 304 76 discriminator 1 view .LVU68
 243 005a 6063     		str	r0, [r4, #52]
 305:Middlewares/ST/usbx/common/usbx_stm32_device_controllers/ux_dcd_stm32_callback.c **** 
 306:Middlewares/ST/usbx/common/usbx_stm32_device_controllers/ux_dcd_stm32_callback.c ****             /* Check if we have enough space for the request.  */
 307:Middlewares/ST/usbx/common/usbx_stm32_device_controllers/ux_dcd_stm32_callback.c ****             if (transfer_request -> ux_slave_transfer_request_requested_length > UX_SLAVE_REQUEST_C
 244              		.loc 1 307 13 is_stmt 1 view .LVU69
 245              		.loc 1 307 16 is_stmt 0 view .LVU70
 246 005c B0F5807F 		cmp	r0, #256
 247 0060 18D8     		bhi	.L17
 308:Middlewares/ST/usbx/common/usbx_stm32_device_controllers/ux_dcd_stm32_callback.c ****             {
 309:Middlewares/ST/usbx/common/usbx_stm32_device_controllers/ux_dcd_stm32_callback.c **** 
ARM GAS  C:\usertemp\cctPESIS.s 			page 11


 310:Middlewares/ST/usbx/common/usbx_stm32_device_controllers/ux_dcd_stm32_callback.c ****                 /* No space available, stall the endpoint.  */
 311:Middlewares/ST/usbx/common/usbx_stm32_device_controllers/ux_dcd_stm32_callback.c ****                 _ux_dcd_stm32_endpoint_stall(dcd_stm32, endpoint);
 312:Middlewares/ST/usbx/common/usbx_stm32_device_controllers/ux_dcd_stm32_callback.c **** 
 313:Middlewares/ST/usbx/common/usbx_stm32_device_controllers/ux_dcd_stm32_callback.c ****                 /* Next phase is a SETUP.  */
 314:Middlewares/ST/usbx/common/usbx_stm32_device_controllers/ux_dcd_stm32_callback.c ****                 ed -> ux_dcd_stm32_ed_state =  UX_DCD_STM32_ED_STATE_IDLE;
 315:Middlewares/ST/usbx/common/usbx_stm32_device_controllers/ux_dcd_stm32_callback.c **** 
 316:Middlewares/ST/usbx/common/usbx_stm32_device_controllers/ux_dcd_stm32_callback.c **** #if defined(UX_DEVICE_STANDALONE)
 317:Middlewares/ST/usbx/common/usbx_stm32_device_controllers/ux_dcd_stm32_callback.c ****                 ed -> ux_dcd_stm32_ed_status |= UX_DCD_STM32_ED_STATUS_SETUP_STATUS;
 318:Middlewares/ST/usbx/common/usbx_stm32_device_controllers/ux_dcd_stm32_callback.c **** #endif
 319:Middlewares/ST/usbx/common/usbx_stm32_device_controllers/ux_dcd_stm32_callback.c **** 
 320:Middlewares/ST/usbx/common/usbx_stm32_device_controllers/ux_dcd_stm32_callback.c ****                 /* We are done.  */
 321:Middlewares/ST/usbx/common/usbx_stm32_device_controllers/ux_dcd_stm32_callback.c ****                 return;
 322:Middlewares/ST/usbx/common/usbx_stm32_device_controllers/ux_dcd_stm32_callback.c ****             }
 323:Middlewares/ST/usbx/common/usbx_stm32_device_controllers/ux_dcd_stm32_callback.c ****             else
 324:Middlewares/ST/usbx/common/usbx_stm32_device_controllers/ux_dcd_stm32_callback.c ****             {
 325:Middlewares/ST/usbx/common/usbx_stm32_device_controllers/ux_dcd_stm32_callback.c **** 
 326:Middlewares/ST/usbx/common/usbx_stm32_device_controllers/ux_dcd_stm32_callback.c ****                 /* Reset what we have received so far.  */
 327:Middlewares/ST/usbx/common/usbx_stm32_device_controllers/ux_dcd_stm32_callback.c ****                 transfer_request -> ux_slave_transfer_request_actual_length =  0;
 248              		.loc 1 327 17 is_stmt 1 view .LVU71
 249              		.loc 1 327 77 is_stmt 0 view .LVU72
 250 0062 0022     		movs	r2, #0
 251 0064 A263     		str	r2, [r4, #56]
 328:Middlewares/ST/usbx/common/usbx_stm32_device_controllers/ux_dcd_stm32_callback.c **** 
 329:Middlewares/ST/usbx/common/usbx_stm32_device_controllers/ux_dcd_stm32_callback.c ****                 /* And reprogram the current buffer address to the beginning of the buffer.  */
 330:Middlewares/ST/usbx/common/usbx_stm32_device_controllers/ux_dcd_stm32_callback.c ****                 transfer_request -> ux_slave_transfer_request_current_data_pointer =  transfer_requ
 252              		.loc 1 330 17 is_stmt 1 view .LVU73
 253              		.loc 1 330 104 is_stmt 0 view .LVU74
 254 0066 E26A     		ldr	r2, [r4, #44]
 255              		.loc 1 330 84 view .LVU75
 256 0068 2263     		str	r2, [r4, #48]
 331:Middlewares/ST/usbx/common/usbx_stm32_device_controllers/ux_dcd_stm32_callback.c **** 
 332:Middlewares/ST/usbx/common/usbx_stm32_device_controllers/ux_dcd_stm32_callback.c ****                 /* Receive data.  */
 333:Middlewares/ST/usbx/common/usbx_stm32_device_controllers/ux_dcd_stm32_callback.c ****                 HAL_PCD_EP_Receive(hpcd,
 257              		.loc 1 333 17 is_stmt 1 view .LVU76
 258 006a B97B     		ldrb	r1, [r7, #14]	@ zero_extendqisi2
 259 006c 3046     		mov	r0, r6
 260 006e FFF7FEFF 		bl	HAL_PCD_EP_Receive
 261              	.LVL19:
 334:Middlewares/ST/usbx/common/usbx_stm32_device_controllers/ux_dcd_stm32_callback.c ****                             endpoint -> ux_slave_endpoint_descriptor.bEndpointAddress,
 335:Middlewares/ST/usbx/common/usbx_stm32_device_controllers/ux_dcd_stm32_callback.c ****                             transfer_request -> ux_slave_transfer_request_current_data_pointer,
 336:Middlewares/ST/usbx/common/usbx_stm32_device_controllers/ux_dcd_stm32_callback.c ****                             transfer_request -> ux_slave_transfer_request_requested_length);
 337:Middlewares/ST/usbx/common/usbx_stm32_device_controllers/ux_dcd_stm32_callback.c **** 
 338:Middlewares/ST/usbx/common/usbx_stm32_device_controllers/ux_dcd_stm32_callback.c ****                 /* Set the state to RX.  */
 339:Middlewares/ST/usbx/common/usbx_stm32_device_controllers/ux_dcd_stm32_callback.c ****                 ed -> ux_dcd_stm32_ed_state =  UX_DCD_STM32_ED_STATE_DATA_RX;
 262              		.loc 1 339 17 view .LVU77
 263              		.loc 1 339 45 is_stmt 0 view .LVU78
 264 0072 0223     		movs	r3, #2
 265 0074 2B73     		strb	r3, [r5, #12]
 266              	.LVL20:
 267              	.L9:
 340:Middlewares/ST/usbx/common/usbx_stm32_device_controllers/ux_dcd_stm32_callback.c ****             }
 341:Middlewares/ST/usbx/common/usbx_stm32_device_controllers/ux_dcd_stm32_callback.c ****         }
 342:Middlewares/ST/usbx/common/usbx_stm32_device_controllers/ux_dcd_stm32_callback.c ****     }
 343:Middlewares/ST/usbx/common/usbx_stm32_device_controllers/ux_dcd_stm32_callback.c **** }
 268              		.loc 1 343 1 view .LVU79
 269 0076 BDE8F081 		pop	{r4, r5, r6, r7, r8, pc}
 270              	.LVL21:
ARM GAS  C:\usertemp\cctPESIS.s 			page 12


 271              	.L15:
 276:Middlewares/ST/usbx/common/usbx_stm32_device_controllers/ux_dcd_stm32_callback.c **** #endif
 272              		.loc 1 276 9 is_stmt 1 view .LVU80
 273              	.LBB4:
 274              	.LBI4:
  35:Middlewares/ST/usbx/common/usbx_stm32_device_controllers/ux_dcd_stm32_callback.c **** {
 275              		.loc 1 35 20 view .LVU81
 276              	.LBB5:
  40:Middlewares/ST/usbx/common/usbx_stm32_device_controllers/ux_dcd_stm32_callback.c **** 
 277              		.loc 1 40 5 view .LVU82
  40:Middlewares/ST/usbx/common/usbx_stm32_device_controllers/ux_dcd_stm32_callback.c **** 
 278              		.loc 1 40 37 is_stmt 0 view .LVU83
 279 007a 8023     		movs	r3, #128
 280 007c AB73     		strb	r3, [r5, #14]
  43:Middlewares/ST/usbx/common/usbx_stm32_device_controllers/ux_dcd_stm32_callback.c **** 
 281              		.loc 1 43 5 is_stmt 1 view .LVU84
  43:Middlewares/ST/usbx/common/usbx_stm32_device_controllers/ux_dcd_stm32_callback.c **** 
 282              		.loc 1 43 33 is_stmt 0 view .LVU85
 283 007e 2A73     		strb	r2, [r5, #12]
  46:Middlewares/ST/usbx/common/usbx_stm32_device_controllers/ux_dcd_stm32_callback.c **** }
 284              		.loc 1 46 5 is_stmt 1 view .LVU86
 285 0080 3846     		mov	r0, r7
 286 0082 FFF7FEFF 		bl	_ux_device_stack_control_request_process
 287              	.LVL22:
  47:Middlewares/ST/usbx/common/usbx_stm32_device_controllers/ux_dcd_stm32_callback.c **** 
 288              		.loc 1 47 1 is_stmt 0 view .LVU87
 289 0086 F6E7     		b	.L9
 290              	.LVL23:
 291              	.L16:
  47:Middlewares/ST/usbx/common/usbx_stm32_device_controllers/ux_dcd_stm32_callback.c **** 
 292              		.loc 1 47 1 view .LVU88
 293              	.LBE5:
 294              	.LBE4:
 294:Middlewares/ST/usbx/common/usbx_stm32_device_controllers/ux_dcd_stm32_callback.c **** #endif
 295              		.loc 1 294 13 is_stmt 1 view .LVU89
 296 0088 3246     		mov	r2, r6
 297 008a 3946     		mov	r1, r7
 298 008c 4046     		mov	r0, r8
 299 008e FFF7FEFF 		bl	_ux_dcd_stm32_setup_status
 300              	.LVL24:
 301 0092 F0E7     		b	.L9
 302              	.LVL25:
 303              	.L17:
 311:Middlewares/ST/usbx/common/usbx_stm32_device_controllers/ux_dcd_stm32_callback.c **** 
 304              		.loc 1 311 17 view .LVU90
 305 0094 3946     		mov	r1, r7
 306 0096 2846     		mov	r0, r5
 307 0098 FFF7FEFF 		bl	_ux_dcd_stm32_endpoint_stall
 308              	.LVL26:
 314:Middlewares/ST/usbx/common/usbx_stm32_device_controllers/ux_dcd_stm32_callback.c **** 
 309              		.loc 1 314 17 view .LVU91
 314:Middlewares/ST/usbx/common/usbx_stm32_device_controllers/ux_dcd_stm32_callback.c **** 
 310              		.loc 1 314 45 is_stmt 0 view .LVU92
 311 009c 0023     		movs	r3, #0
 312 009e 2B73     		strb	r3, [r5, #12]
 321:Middlewares/ST/usbx/common/usbx_stm32_device_controllers/ux_dcd_stm32_callback.c ****             }
 313              		.loc 1 321 17 is_stmt 1 view .LVU93
ARM GAS  C:\usertemp\cctPESIS.s 			page 13


 314 00a0 E9E7     		b	.L9
 315              	.L19:
 316 00a2 00BF     		.align	2
 317              	.L18:
 318 00a4 00000000 		.word	_ux_system_slave
 319              		.cfi_endproc
 320              	.LFE172:
 322              		.section	.text.HAL_PCD_DataInStageCallback,"ax",%progbits
 323              		.align	1
 324              		.global	HAL_PCD_DataInStageCallback
 325              		.syntax unified
 326              		.thumb
 327              		.thumb_func
 329              	HAL_PCD_DataInStageCallback:
 330              	.LVL27:
 331              	.LFB173:
 344:Middlewares/ST/usbx/common/usbx_stm32_device_controllers/ux_dcd_stm32_callback.c **** 
 345:Middlewares/ST/usbx/common/usbx_stm32_device_controllers/ux_dcd_stm32_callback.c **** 
 346:Middlewares/ST/usbx/common/usbx_stm32_device_controllers/ux_dcd_stm32_callback.c **** /**************************************************************************/
 347:Middlewares/ST/usbx/common/usbx_stm32_device_controllers/ux_dcd_stm32_callback.c **** /*                                                                        */
 348:Middlewares/ST/usbx/common/usbx_stm32_device_controllers/ux_dcd_stm32_callback.c **** /*  FUNCTION                                               RELEASE        */
 349:Middlewares/ST/usbx/common/usbx_stm32_device_controllers/ux_dcd_stm32_callback.c **** /*                                                                        */
 350:Middlewares/ST/usbx/common/usbx_stm32_device_controllers/ux_dcd_stm32_callback.c **** /*    HAL_PCD_DataInStageCallback                         PORTABLE C      */
 351:Middlewares/ST/usbx/common/usbx_stm32_device_controllers/ux_dcd_stm32_callback.c **** /*                                                           6.1.12       */
 352:Middlewares/ST/usbx/common/usbx_stm32_device_controllers/ux_dcd_stm32_callback.c **** /*  AUTHOR                                                                */
 353:Middlewares/ST/usbx/common/usbx_stm32_device_controllers/ux_dcd_stm32_callback.c **** /*                                                                        */
 354:Middlewares/ST/usbx/common/usbx_stm32_device_controllers/ux_dcd_stm32_callback.c **** /*    Chaoqiong Xiao, Microsoft Corporation                               */
 355:Middlewares/ST/usbx/common/usbx_stm32_device_controllers/ux_dcd_stm32_callback.c **** /*                                                                        */
 356:Middlewares/ST/usbx/common/usbx_stm32_device_controllers/ux_dcd_stm32_callback.c **** /*  DESCRIPTION                                                           */
 357:Middlewares/ST/usbx/common/usbx_stm32_device_controllers/ux_dcd_stm32_callback.c **** /*                                                                        */
 358:Middlewares/ST/usbx/common/usbx_stm32_device_controllers/ux_dcd_stm32_callback.c **** /*    This function handles callback from HAL driver.                     */
 359:Middlewares/ST/usbx/common/usbx_stm32_device_controllers/ux_dcd_stm32_callback.c **** /*                                                                        */
 360:Middlewares/ST/usbx/common/usbx_stm32_device_controllers/ux_dcd_stm32_callback.c **** /*  INPUT                                                                 */
 361:Middlewares/ST/usbx/common/usbx_stm32_device_controllers/ux_dcd_stm32_callback.c **** /*                                                                        */
 362:Middlewares/ST/usbx/common/usbx_stm32_device_controllers/ux_dcd_stm32_callback.c **** /*    hpcd                                  Pointer to PCD handle         */
 363:Middlewares/ST/usbx/common/usbx_stm32_device_controllers/ux_dcd_stm32_callback.c **** /*    epnum                                 Endpoint number               */
 364:Middlewares/ST/usbx/common/usbx_stm32_device_controllers/ux_dcd_stm32_callback.c **** /*                                                                        */
 365:Middlewares/ST/usbx/common/usbx_stm32_device_controllers/ux_dcd_stm32_callback.c **** /*  OUTPUT                                                                */
 366:Middlewares/ST/usbx/common/usbx_stm32_device_controllers/ux_dcd_stm32_callback.c **** /*                                                                        */
 367:Middlewares/ST/usbx/common/usbx_stm32_device_controllers/ux_dcd_stm32_callback.c **** /*    None                                                                */
 368:Middlewares/ST/usbx/common/usbx_stm32_device_controllers/ux_dcd_stm32_callback.c **** /*                                                                        */
 369:Middlewares/ST/usbx/common/usbx_stm32_device_controllers/ux_dcd_stm32_callback.c **** /*  CALLS                                                                 */
 370:Middlewares/ST/usbx/common/usbx_stm32_device_controllers/ux_dcd_stm32_callback.c **** /*                                                                        */
 371:Middlewares/ST/usbx/common/usbx_stm32_device_controllers/ux_dcd_stm32_callback.c **** /*    _ux_utility_semaphore_put             Put semaphore                 */
 372:Middlewares/ST/usbx/common/usbx_stm32_device_controllers/ux_dcd_stm32_callback.c **** /*    HAL_PCD_EP_Transmit                   Transmit data                 */
 373:Middlewares/ST/usbx/common/usbx_stm32_device_controllers/ux_dcd_stm32_callback.c **** /*    HAL_PCD_EP_Receive                    Receive data                  */
 374:Middlewares/ST/usbx/common/usbx_stm32_device_controllers/ux_dcd_stm32_callback.c **** /*                                                                        */
 375:Middlewares/ST/usbx/common/usbx_stm32_device_controllers/ux_dcd_stm32_callback.c **** /*  CALLED BY                                                             */
 376:Middlewares/ST/usbx/common/usbx_stm32_device_controllers/ux_dcd_stm32_callback.c **** /*                                                                        */
 377:Middlewares/ST/usbx/common/usbx_stm32_device_controllers/ux_dcd_stm32_callback.c **** /*    STM32 HAL Driver                                                    */
 378:Middlewares/ST/usbx/common/usbx_stm32_device_controllers/ux_dcd_stm32_callback.c **** /*                                                                        */
 379:Middlewares/ST/usbx/common/usbx_stm32_device_controllers/ux_dcd_stm32_callback.c **** /*  RELEASE HISTORY                                                       */
 380:Middlewares/ST/usbx/common/usbx_stm32_device_controllers/ux_dcd_stm32_callback.c **** /*                                                                        */
 381:Middlewares/ST/usbx/common/usbx_stm32_device_controllers/ux_dcd_stm32_callback.c **** /*    DATE              NAME                      DESCRIPTION             */
 382:Middlewares/ST/usbx/common/usbx_stm32_device_controllers/ux_dcd_stm32_callback.c **** /*                                                                        */
 383:Middlewares/ST/usbx/common/usbx_stm32_device_controllers/ux_dcd_stm32_callback.c **** /*  09-30-2020     Chaoqiong Xiao           Initial Version 6.1           */
 384:Middlewares/ST/usbx/common/usbx_stm32_device_controllers/ux_dcd_stm32_callback.c **** /*  01-31-2022     Chaoqiong Xiao           Modified comment(s),          */
ARM GAS  C:\usertemp\cctPESIS.s 			page 14


 385:Middlewares/ST/usbx/common/usbx_stm32_device_controllers/ux_dcd_stm32_callback.c **** /*                                            added standalone support,   */
 386:Middlewares/ST/usbx/common/usbx_stm32_device_controllers/ux_dcd_stm32_callback.c **** /*                                            added bi-dir EP support,    */
 387:Middlewares/ST/usbx/common/usbx_stm32_device_controllers/ux_dcd_stm32_callback.c **** /*                                            resulting in version 6.1.10 */
 388:Middlewares/ST/usbx/common/usbx_stm32_device_controllers/ux_dcd_stm32_callback.c **** /*  07-29-2022     Chaoqiong Xiao           Modified comment(s),          */
 389:Middlewares/ST/usbx/common/usbx_stm32_device_controllers/ux_dcd_stm32_callback.c **** /*                                            fixed transmit ZLP issue,   */
 390:Middlewares/ST/usbx/common/usbx_stm32_device_controllers/ux_dcd_stm32_callback.c **** /*                                            resulting in version 6.1.12 */
 391:Middlewares/ST/usbx/common/usbx_stm32_device_controllers/ux_dcd_stm32_callback.c **** /*                                                                        */
 392:Middlewares/ST/usbx/common/usbx_stm32_device_controllers/ux_dcd_stm32_callback.c **** /**************************************************************************/
 393:Middlewares/ST/usbx/common/usbx_stm32_device_controllers/ux_dcd_stm32_callback.c **** void HAL_PCD_DataInStageCallback(PCD_HandleTypeDef *hpcd, uint8_t epnum)
 394:Middlewares/ST/usbx/common/usbx_stm32_device_controllers/ux_dcd_stm32_callback.c **** {
 332              		.loc 1 394 1 view -0
 333              		.cfi_startproc
 334              		@ args = 0, pretend = 0, frame = 0
 335              		@ frame_needed = 0, uses_anonymous_args = 0
 336              		.loc 1 394 1 is_stmt 0 view .LVU95
 337 0000 2DE9F041 		push	{r4, r5, r6, r7, r8, lr}
 338              	.LCFI3:
 339              		.cfi_def_cfa_offset 24
 340              		.cfi_offset 4, -24
 341              		.cfi_offset 5, -20
 342              		.cfi_offset 6, -16
 343              		.cfi_offset 7, -12
 344              		.cfi_offset 8, -8
 345              		.cfi_offset 14, -4
 346 0004 0546     		mov	r5, r0
 395:Middlewares/ST/usbx/common/usbx_stm32_device_controllers/ux_dcd_stm32_callback.c **** 
 396:Middlewares/ST/usbx/common/usbx_stm32_device_controllers/ux_dcd_stm32_callback.c **** UX_SLAVE_DCD            *dcd;
 347              		.loc 1 396 1 is_stmt 1 view .LVU96
 397:Middlewares/ST/usbx/common/usbx_stm32_device_controllers/ux_dcd_stm32_callback.c **** UX_DCD_STM32            *dcd_stm32;
 348              		.loc 1 397 1 view .LVU97
 398:Middlewares/ST/usbx/common/usbx_stm32_device_controllers/ux_dcd_stm32_callback.c **** UX_DCD_STM32_ED         *ed;
 349              		.loc 1 398 1 view .LVU98
 399:Middlewares/ST/usbx/common/usbx_stm32_device_controllers/ux_dcd_stm32_callback.c **** UX_SLAVE_TRANSFER       *transfer_request;
 350              		.loc 1 399 1 view .LVU99
 400:Middlewares/ST/usbx/common/usbx_stm32_device_controllers/ux_dcd_stm32_callback.c **** ULONG                   transfer_length;
 351              		.loc 1 400 1 view .LVU100
 401:Middlewares/ST/usbx/common/usbx_stm32_device_controllers/ux_dcd_stm32_callback.c **** UX_SLAVE_ENDPOINT       *endpoint;
 352              		.loc 1 401 1 view .LVU101
 402:Middlewares/ST/usbx/common/usbx_stm32_device_controllers/ux_dcd_stm32_callback.c **** 
 403:Middlewares/ST/usbx/common/usbx_stm32_device_controllers/ux_dcd_stm32_callback.c **** 
 404:Middlewares/ST/usbx/common/usbx_stm32_device_controllers/ux_dcd_stm32_callback.c ****     /* Get the pointer to the DCD.  */
 405:Middlewares/ST/usbx/common/usbx_stm32_device_controllers/ux_dcd_stm32_callback.c ****     dcd =  &_ux_system_slave -> ux_system_slave_dcd;
 353              		.loc 1 405 5 view .LVU102
 354              		.loc 1 405 30 is_stmt 0 view .LVU103
 355 0006 344B     		ldr	r3, .L35
 356 0008 1B68     		ldr	r3, [r3]
 357              	.LVL28:
 406:Middlewares/ST/usbx/common/usbx_stm32_device_controllers/ux_dcd_stm32_callback.c **** 
 407:Middlewares/ST/usbx/common/usbx_stm32_device_controllers/ux_dcd_stm32_callback.c ****     /* Get the pointer to the STM32 DCD.  */
 408:Middlewares/ST/usbx/common/usbx_stm32_device_controllers/ux_dcd_stm32_callback.c ****     dcd_stm32 = (UX_DCD_STM32 *) dcd -> ux_slave_dcd_controller_hardware;
 358              		.loc 1 408 5 is_stmt 1 view .LVU104
 359              		.loc 1 408 15 is_stmt 0 view .LVU105
 360 000a DC69     		ldr	r4, [r3, #28]
 361              	.LVL29:
 409:Middlewares/ST/usbx/common/usbx_stm32_device_controllers/ux_dcd_stm32_callback.c **** 
 410:Middlewares/ST/usbx/common/usbx_stm32_device_controllers/ux_dcd_stm32_callback.c ****     /* Fetch the address of the physical endpoint.  */
 411:Middlewares/ST/usbx/common/usbx_stm32_device_controllers/ux_dcd_stm32_callback.c **** #if defined(UX_DEVICE_BIDIRECTIONAL_ENDPOINT_SUPPORT)
ARM GAS  C:\usertemp\cctPESIS.s 			page 15


 412:Middlewares/ST/usbx/common/usbx_stm32_device_controllers/ux_dcd_stm32_callback.c ****     if ((epnum & 0xF) != 0)
 362              		.loc 1 412 5 is_stmt 1 view .LVU106
 363              		.loc 1 412 8 is_stmt 0 view .LVU107
 364 000c 11F00F03 		ands	r3, r1, #15
 365              	.LVL30:
 366              		.loc 1 412 8 view .LVU108
 367 0010 11D0     		beq	.L21
 413:Middlewares/ST/usbx/common/usbx_stm32_device_controllers/ux_dcd_stm32_callback.c ****         ed =  &dcd_stm32 -> ux_dcd_stm32_ed_in[epnum & 0xF];
 368              		.loc 1 413 9 is_stmt 1 view .LVU109
 369              		.loc 1 413 12 is_stmt 0 view .LVU110
 370 0012 03EB4303 		add	r3, r3, r3, lsl #1
 371 0016 9B00     		lsls	r3, r3, #2
 372 0018 4833     		adds	r3, r3, #72
 373 001a 1C44     		add	r4, r4, r3
 374              	.LVL31:
 375              		.loc 1 413 12 view .LVU111
 376 001c 0434     		adds	r4, r4, #4
 377              	.LVL32:
 378              	.L22:
 414:Middlewares/ST/usbx/common/usbx_stm32_device_controllers/ux_dcd_stm32_callback.c ****     else
 415:Middlewares/ST/usbx/common/usbx_stm32_device_controllers/ux_dcd_stm32_callback.c **** #endif /* defined(UX_DEVICE_BIDIRECTIONAL_ENDPOINT_SUPPORT) */
 416:Middlewares/ST/usbx/common/usbx_stm32_device_controllers/ux_dcd_stm32_callback.c ****     ed =  &dcd_stm32 -> ux_dcd_stm32_ed[epnum & 0xF];
 417:Middlewares/ST/usbx/common/usbx_stm32_device_controllers/ux_dcd_stm32_callback.c **** 
 418:Middlewares/ST/usbx/common/usbx_stm32_device_controllers/ux_dcd_stm32_callback.c ****     /* Get the pointer to the transfer request.  */
 419:Middlewares/ST/usbx/common/usbx_stm32_device_controllers/ux_dcd_stm32_callback.c ****     transfer_request =  &(ed -> ux_dcd_stm32_ed_endpoint -> ux_slave_endpoint_transfer_request);
 379              		.loc 1 419 5 is_stmt 1 view .LVU112
 380              		.loc 1 419 30 is_stmt 0 view .LVU113
 381 001e 2668     		ldr	r6, [r4]
 382              		.loc 1 419 22 view .LVU114
 383 0020 06F12007 		add	r7, r6, #32
 384              	.LVL33:
 420:Middlewares/ST/usbx/common/usbx_stm32_device_controllers/ux_dcd_stm32_callback.c **** 
 421:Middlewares/ST/usbx/common/usbx_stm32_device_controllers/ux_dcd_stm32_callback.c ****     /* Endpoint 0 is different.  */
 422:Middlewares/ST/usbx/common/usbx_stm32_device_controllers/ux_dcd_stm32_callback.c ****     if (epnum == 0U)
 385              		.loc 1 422 5 is_stmt 1 view .LVU115
 386              		.loc 1 422 8 is_stmt 0 view .LVU116
 387 0024 0029     		cmp	r1, #0
 388 0026 40D1     		bne	.L23
 423:Middlewares/ST/usbx/common/usbx_stm32_device_controllers/ux_dcd_stm32_callback.c ****     {
 424:Middlewares/ST/usbx/common/usbx_stm32_device_controllers/ux_dcd_stm32_callback.c **** 
 425:Middlewares/ST/usbx/common/usbx_stm32_device_controllers/ux_dcd_stm32_callback.c ****         /* Get the pointer to the logical endpoint from the transfer request.  */
 426:Middlewares/ST/usbx/common/usbx_stm32_device_controllers/ux_dcd_stm32_callback.c ****         endpoint =  transfer_request -> ux_slave_transfer_request_endpoint;
 389              		.loc 1 426 9 is_stmt 1 view .LVU117
 390              		.loc 1 426 18 is_stmt 0 view .LVU118
 391 0028 D6F82880 		ldr	r8, [r6, #40]
 392              	.LVL34:
 427:Middlewares/ST/usbx/common/usbx_stm32_device_controllers/ux_dcd_stm32_callback.c **** 
 428:Middlewares/ST/usbx/common/usbx_stm32_device_controllers/ux_dcd_stm32_callback.c ****         /* Check if we need to send data again on control endpoint. */
 429:Middlewares/ST/usbx/common/usbx_stm32_device_controllers/ux_dcd_stm32_callback.c ****         if (ed -> ux_dcd_stm32_ed_state == UX_DCD_STM32_ED_STATE_DATA_TX)
 393              		.loc 1 429 9 is_stmt 1 view .LVU119
 394              		.loc 1 429 16 is_stmt 0 view .LVU120
 395 002c 237A     		ldrb	r3, [r4, #8]	@ zero_extendqisi2
 396              		.loc 1 429 12 view .LVU121
 397 002e 012B     		cmp	r3, #1
 398 0030 07D0     		beq	.L32
 399              	.LVL35:
 400              	.L20:
ARM GAS  C:\usertemp\cctPESIS.s 			page 16


 430:Middlewares/ST/usbx/common/usbx_stm32_device_controllers/ux_dcd_stm32_callback.c ****         {
 431:Middlewares/ST/usbx/common/usbx_stm32_device_controllers/ux_dcd_stm32_callback.c **** 
 432:Middlewares/ST/usbx/common/usbx_stm32_device_controllers/ux_dcd_stm32_callback.c ****             /* Arm Status transfer.  */
 433:Middlewares/ST/usbx/common/usbx_stm32_device_controllers/ux_dcd_stm32_callback.c ****             HAL_PCD_EP_Receive(hpcd, 0, 0, 0);
 434:Middlewares/ST/usbx/common/usbx_stm32_device_controllers/ux_dcd_stm32_callback.c **** 
 435:Middlewares/ST/usbx/common/usbx_stm32_device_controllers/ux_dcd_stm32_callback.c ****             /* Are we done with this transfer ? */
 436:Middlewares/ST/usbx/common/usbx_stm32_device_controllers/ux_dcd_stm32_callback.c ****             if (transfer_request -> ux_slave_transfer_request_in_transfer_length <=
 437:Middlewares/ST/usbx/common/usbx_stm32_device_controllers/ux_dcd_stm32_callback.c ****                 endpoint -> ux_slave_endpoint_descriptor.wMaxPacketSize)
 438:Middlewares/ST/usbx/common/usbx_stm32_device_controllers/ux_dcd_stm32_callback.c ****             {
 439:Middlewares/ST/usbx/common/usbx_stm32_device_controllers/ux_dcd_stm32_callback.c **** 
 440:Middlewares/ST/usbx/common/usbx_stm32_device_controllers/ux_dcd_stm32_callback.c ****                 /* There is no data to send but we may need to send a Zero Length Packet.  */
 441:Middlewares/ST/usbx/common/usbx_stm32_device_controllers/ux_dcd_stm32_callback.c ****                 if (transfer_request -> ux_slave_transfer_request_force_zlp ==  UX_TRUE)
 442:Middlewares/ST/usbx/common/usbx_stm32_device_controllers/ux_dcd_stm32_callback.c ****                 {
 443:Middlewares/ST/usbx/common/usbx_stm32_device_controllers/ux_dcd_stm32_callback.c **** 
 444:Middlewares/ST/usbx/common/usbx_stm32_device_controllers/ux_dcd_stm32_callback.c ****                     /* Arm a ZLP packet on IN.  */
 445:Middlewares/ST/usbx/common/usbx_stm32_device_controllers/ux_dcd_stm32_callback.c ****                     HAL_PCD_EP_Transmit(hpcd,
 446:Middlewares/ST/usbx/common/usbx_stm32_device_controllers/ux_dcd_stm32_callback.c ****                             endpoint->ux_slave_endpoint_descriptor.bEndpointAddress, 0, 0);
 447:Middlewares/ST/usbx/common/usbx_stm32_device_controllers/ux_dcd_stm32_callback.c **** 
 448:Middlewares/ST/usbx/common/usbx_stm32_device_controllers/ux_dcd_stm32_callback.c ****                     /* Reset the ZLP condition.  */
 449:Middlewares/ST/usbx/common/usbx_stm32_device_controllers/ux_dcd_stm32_callback.c ****                     transfer_request -> ux_slave_transfer_request_force_zlp =  UX_FALSE;
 450:Middlewares/ST/usbx/common/usbx_stm32_device_controllers/ux_dcd_stm32_callback.c **** 
 451:Middlewares/ST/usbx/common/usbx_stm32_device_controllers/ux_dcd_stm32_callback.c ****                 }
 452:Middlewares/ST/usbx/common/usbx_stm32_device_controllers/ux_dcd_stm32_callback.c ****                 else
 453:Middlewares/ST/usbx/common/usbx_stm32_device_controllers/ux_dcd_stm32_callback.c ****                 {
 454:Middlewares/ST/usbx/common/usbx_stm32_device_controllers/ux_dcd_stm32_callback.c **** 
 455:Middlewares/ST/usbx/common/usbx_stm32_device_controllers/ux_dcd_stm32_callback.c ****                     /* Set the completion code to no error.  */
 456:Middlewares/ST/usbx/common/usbx_stm32_device_controllers/ux_dcd_stm32_callback.c ****                     transfer_request -> ux_slave_transfer_request_completion_code =  UX_SUCCESS;
 457:Middlewares/ST/usbx/common/usbx_stm32_device_controllers/ux_dcd_stm32_callback.c **** 
 458:Middlewares/ST/usbx/common/usbx_stm32_device_controllers/ux_dcd_stm32_callback.c ****                     /* The transfer is completed.  */
 459:Middlewares/ST/usbx/common/usbx_stm32_device_controllers/ux_dcd_stm32_callback.c ****                     transfer_request -> ux_slave_transfer_request_status =  UX_TRANSFER_STATUS_COMP
 460:Middlewares/ST/usbx/common/usbx_stm32_device_controllers/ux_dcd_stm32_callback.c ****                     transfer_request -> ux_slave_transfer_request_actual_length =
 461:Middlewares/ST/usbx/common/usbx_stm32_device_controllers/ux_dcd_stm32_callback.c ****                         transfer_request -> ux_slave_transfer_request_requested_length;
 462:Middlewares/ST/usbx/common/usbx_stm32_device_controllers/ux_dcd_stm32_callback.c **** 
 463:Middlewares/ST/usbx/common/usbx_stm32_device_controllers/ux_dcd_stm32_callback.c **** #if defined(UX_DEVICE_STANDALONE)
 464:Middlewares/ST/usbx/common/usbx_stm32_device_controllers/ux_dcd_stm32_callback.c **** 
 465:Middlewares/ST/usbx/common/usbx_stm32_device_controllers/ux_dcd_stm32_callback.c ****                     /* Control status phase done.  */
 466:Middlewares/ST/usbx/common/usbx_stm32_device_controllers/ux_dcd_stm32_callback.c ****                     ed -> ux_dcd_stm32_ed_status |= UX_DCD_STM32_ED_STATUS_DONE;
 467:Middlewares/ST/usbx/common/usbx_stm32_device_controllers/ux_dcd_stm32_callback.c **** #endif
 468:Middlewares/ST/usbx/common/usbx_stm32_device_controllers/ux_dcd_stm32_callback.c **** 
 469:Middlewares/ST/usbx/common/usbx_stm32_device_controllers/ux_dcd_stm32_callback.c ****                     /* We are using a Control endpoint, if there is a callback, invoke it. We are s
 470:Middlewares/ST/usbx/common/usbx_stm32_device_controllers/ux_dcd_stm32_callback.c ****                     if (transfer_request -> ux_slave_transfer_request_completion_function)
 471:Middlewares/ST/usbx/common/usbx_stm32_device_controllers/ux_dcd_stm32_callback.c ****                         transfer_request -> ux_slave_transfer_request_completion_function (transfer
 472:Middlewares/ST/usbx/common/usbx_stm32_device_controllers/ux_dcd_stm32_callback.c **** 
 473:Middlewares/ST/usbx/common/usbx_stm32_device_controllers/ux_dcd_stm32_callback.c ****                     /* State is now STATUS RX.  */
 474:Middlewares/ST/usbx/common/usbx_stm32_device_controllers/ux_dcd_stm32_callback.c ****                     ed -> ux_dcd_stm32_ed_state = UX_DCD_STM32_ED_STATE_STATUS_RX;
 475:Middlewares/ST/usbx/common/usbx_stm32_device_controllers/ux_dcd_stm32_callback.c ****                 }
 476:Middlewares/ST/usbx/common/usbx_stm32_device_controllers/ux_dcd_stm32_callback.c ****             }
 477:Middlewares/ST/usbx/common/usbx_stm32_device_controllers/ux_dcd_stm32_callback.c ****             else
 478:Middlewares/ST/usbx/common/usbx_stm32_device_controllers/ux_dcd_stm32_callback.c ****             {
 479:Middlewares/ST/usbx/common/usbx_stm32_device_controllers/ux_dcd_stm32_callback.c **** 
 480:Middlewares/ST/usbx/common/usbx_stm32_device_controllers/ux_dcd_stm32_callback.c ****                 /* Get the size of the transfer.  */
 481:Middlewares/ST/usbx/common/usbx_stm32_device_controllers/ux_dcd_stm32_callback.c ****                 transfer_length = transfer_request -> ux_slave_transfer_request_in_transfer_length 
 482:Middlewares/ST/usbx/common/usbx_stm32_device_controllers/ux_dcd_stm32_callback.c **** 
 483:Middlewares/ST/usbx/common/usbx_stm32_device_controllers/ux_dcd_stm32_callback.c ****                 /* Check if the endpoint size is bigger that data requested. */
 484:Middlewares/ST/usbx/common/usbx_stm32_device_controllers/ux_dcd_stm32_callback.c ****                 if (transfer_length > endpoint -> ux_slave_endpoint_descriptor.wMaxPacketSize)
 485:Middlewares/ST/usbx/common/usbx_stm32_device_controllers/ux_dcd_stm32_callback.c ****                 {
 486:Middlewares/ST/usbx/common/usbx_stm32_device_controllers/ux_dcd_stm32_callback.c **** 
ARM GAS  C:\usertemp\cctPESIS.s 			page 17


 487:Middlewares/ST/usbx/common/usbx_stm32_device_controllers/ux_dcd_stm32_callback.c ****                     /* Adjust the transfer size.  */
 488:Middlewares/ST/usbx/common/usbx_stm32_device_controllers/ux_dcd_stm32_callback.c ****                     transfer_length =  endpoint -> ux_slave_endpoint_descriptor.wMaxPacketSize;
 489:Middlewares/ST/usbx/common/usbx_stm32_device_controllers/ux_dcd_stm32_callback.c ****                 }
 490:Middlewares/ST/usbx/common/usbx_stm32_device_controllers/ux_dcd_stm32_callback.c **** 
 491:Middlewares/ST/usbx/common/usbx_stm32_device_controllers/ux_dcd_stm32_callback.c ****                 /* Adjust the data pointer.  */
 492:Middlewares/ST/usbx/common/usbx_stm32_device_controllers/ux_dcd_stm32_callback.c ****                 transfer_request -> ux_slave_transfer_request_current_data_pointer += endpoint -> u
 493:Middlewares/ST/usbx/common/usbx_stm32_device_controllers/ux_dcd_stm32_callback.c **** 
 494:Middlewares/ST/usbx/common/usbx_stm32_device_controllers/ux_dcd_stm32_callback.c ****                 /* Adjust the transfer length remaining.  */
 495:Middlewares/ST/usbx/common/usbx_stm32_device_controllers/ux_dcd_stm32_callback.c ****                 transfer_request -> ux_slave_transfer_request_in_transfer_length -= transfer_length
 496:Middlewares/ST/usbx/common/usbx_stm32_device_controllers/ux_dcd_stm32_callback.c **** 
 497:Middlewares/ST/usbx/common/usbx_stm32_device_controllers/ux_dcd_stm32_callback.c ****                 /* Transmit data.  */
 498:Middlewares/ST/usbx/common/usbx_stm32_device_controllers/ux_dcd_stm32_callback.c ****                 HAL_PCD_EP_Transmit(hpcd,
 499:Middlewares/ST/usbx/common/usbx_stm32_device_controllers/ux_dcd_stm32_callback.c ****                             endpoint->ux_slave_endpoint_descriptor.bEndpointAddress,
 500:Middlewares/ST/usbx/common/usbx_stm32_device_controllers/ux_dcd_stm32_callback.c ****                             transfer_request->ux_slave_transfer_request_current_data_pointer,
 501:Middlewares/ST/usbx/common/usbx_stm32_device_controllers/ux_dcd_stm32_callback.c ****                             transfer_length);
 502:Middlewares/ST/usbx/common/usbx_stm32_device_controllers/ux_dcd_stm32_callback.c ****             }
 503:Middlewares/ST/usbx/common/usbx_stm32_device_controllers/ux_dcd_stm32_callback.c ****         }
 504:Middlewares/ST/usbx/common/usbx_stm32_device_controllers/ux_dcd_stm32_callback.c ****     }
 505:Middlewares/ST/usbx/common/usbx_stm32_device_controllers/ux_dcd_stm32_callback.c ****     else
 506:Middlewares/ST/usbx/common/usbx_stm32_device_controllers/ux_dcd_stm32_callback.c ****     {
 507:Middlewares/ST/usbx/common/usbx_stm32_device_controllers/ux_dcd_stm32_callback.c **** 
 508:Middlewares/ST/usbx/common/usbx_stm32_device_controllers/ux_dcd_stm32_callback.c ****         /* Check if a ZLP should be armed.  */
 509:Middlewares/ST/usbx/common/usbx_stm32_device_controllers/ux_dcd_stm32_callback.c ****         if (transfer_request -> ux_slave_transfer_request_force_zlp &&
 510:Middlewares/ST/usbx/common/usbx_stm32_device_controllers/ux_dcd_stm32_callback.c ****             transfer_request -> ux_slave_transfer_request_requested_length)
 511:Middlewares/ST/usbx/common/usbx_stm32_device_controllers/ux_dcd_stm32_callback.c ****         {
 512:Middlewares/ST/usbx/common/usbx_stm32_device_controllers/ux_dcd_stm32_callback.c **** 
 513:Middlewares/ST/usbx/common/usbx_stm32_device_controllers/ux_dcd_stm32_callback.c ****             /* Reset the ZLP condition.  */
 514:Middlewares/ST/usbx/common/usbx_stm32_device_controllers/ux_dcd_stm32_callback.c ****             transfer_request -> ux_slave_transfer_request_force_zlp =  UX_FALSE;
 515:Middlewares/ST/usbx/common/usbx_stm32_device_controllers/ux_dcd_stm32_callback.c ****             transfer_request -> ux_slave_transfer_request_in_transfer_length = 0;
 516:Middlewares/ST/usbx/common/usbx_stm32_device_controllers/ux_dcd_stm32_callback.c **** 
 517:Middlewares/ST/usbx/common/usbx_stm32_device_controllers/ux_dcd_stm32_callback.c ****             /* Arm a ZLP packet on IN.  */
 518:Middlewares/ST/usbx/common/usbx_stm32_device_controllers/ux_dcd_stm32_callback.c ****             HAL_PCD_EP_Transmit(hpcd, epnum, 0, 0);
 519:Middlewares/ST/usbx/common/usbx_stm32_device_controllers/ux_dcd_stm32_callback.c **** 
 520:Middlewares/ST/usbx/common/usbx_stm32_device_controllers/ux_dcd_stm32_callback.c ****         }
 521:Middlewares/ST/usbx/common/usbx_stm32_device_controllers/ux_dcd_stm32_callback.c ****         else
 522:Middlewares/ST/usbx/common/usbx_stm32_device_controllers/ux_dcd_stm32_callback.c ****         {
 523:Middlewares/ST/usbx/common/usbx_stm32_device_controllers/ux_dcd_stm32_callback.c **** 
 524:Middlewares/ST/usbx/common/usbx_stm32_device_controllers/ux_dcd_stm32_callback.c ****             /* Set the completion code to no error.  */
 525:Middlewares/ST/usbx/common/usbx_stm32_device_controllers/ux_dcd_stm32_callback.c ****             transfer_request -> ux_slave_transfer_request_completion_code =  UX_SUCCESS;
 526:Middlewares/ST/usbx/common/usbx_stm32_device_controllers/ux_dcd_stm32_callback.c **** 
 527:Middlewares/ST/usbx/common/usbx_stm32_device_controllers/ux_dcd_stm32_callback.c ****             /* The transfer is completed.  */
 528:Middlewares/ST/usbx/common/usbx_stm32_device_controllers/ux_dcd_stm32_callback.c ****             transfer_request -> ux_slave_transfer_request_status =  UX_TRANSFER_STATUS_COMPLETED;
 529:Middlewares/ST/usbx/common/usbx_stm32_device_controllers/ux_dcd_stm32_callback.c ****             transfer_request -> ux_slave_transfer_request_actual_length =
 530:Middlewares/ST/usbx/common/usbx_stm32_device_controllers/ux_dcd_stm32_callback.c ****                 transfer_request -> ux_slave_transfer_request_requested_length;
 531:Middlewares/ST/usbx/common/usbx_stm32_device_controllers/ux_dcd_stm32_callback.c **** 
 532:Middlewares/ST/usbx/common/usbx_stm32_device_controllers/ux_dcd_stm32_callback.c **** #if defined(UX_DEVICE_STANDALONE)
 533:Middlewares/ST/usbx/common/usbx_stm32_device_controllers/ux_dcd_stm32_callback.c ****         ed -> ux_dcd_stm32_ed_status |= UX_DCD_STM32_ED_STATUS_DONE;
 534:Middlewares/ST/usbx/common/usbx_stm32_device_controllers/ux_dcd_stm32_callback.c **** #else
 535:Middlewares/ST/usbx/common/usbx_stm32_device_controllers/ux_dcd_stm32_callback.c **** 
 536:Middlewares/ST/usbx/common/usbx_stm32_device_controllers/ux_dcd_stm32_callback.c ****         /* Non control endpoint operation, use semaphore.  */
 537:Middlewares/ST/usbx/common/usbx_stm32_device_controllers/ux_dcd_stm32_callback.c ****         _ux_utility_semaphore_put(&transfer_request -> ux_slave_transfer_request_semaphore);
 538:Middlewares/ST/usbx/common/usbx_stm32_device_controllers/ux_dcd_stm32_callback.c **** #endif /* defined(UX_DEVICE_STANDALONE) */
 539:Middlewares/ST/usbx/common/usbx_stm32_device_controllers/ux_dcd_stm32_callback.c ****         }
 540:Middlewares/ST/usbx/common/usbx_stm32_device_controllers/ux_dcd_stm32_callback.c ****     }
 541:Middlewares/ST/usbx/common/usbx_stm32_device_controllers/ux_dcd_stm32_callback.c **** }
 401              		.loc 1 541 1 view .LVU122
 402 0032 BDE8F081 		pop	{r4, r5, r6, r7, r8, pc}
ARM GAS  C:\usertemp\cctPESIS.s 			page 18


 403              	.LVL36:
 404              	.L21:
 416:Middlewares/ST/usbx/common/usbx_stm32_device_controllers/ux_dcd_stm32_callback.c **** 
 405              		.loc 1 416 5 is_stmt 1 view .LVU123
 416:Middlewares/ST/usbx/common/usbx_stm32_device_controllers/ux_dcd_stm32_callback.c **** 
 406              		.loc 1 416 8 is_stmt 0 view .LVU124
 407 0036 03EB4303 		add	r3, r3, r3, lsl #1
 408 003a 04EB8304 		add	r4, r4, r3, lsl #2
 409              	.LVL37:
 416:Middlewares/ST/usbx/common/usbx_stm32_device_controllers/ux_dcd_stm32_callback.c **** 
 410              		.loc 1 416 8 view .LVU125
 411 003e 0434     		adds	r4, r4, #4
 412              	.LVL38:
 416:Middlewares/ST/usbx/common/usbx_stm32_device_controllers/ux_dcd_stm32_callback.c **** 
 413              		.loc 1 416 8 view .LVU126
 414 0040 EDE7     		b	.L22
 415              	.LVL39:
 416              	.L32:
 433:Middlewares/ST/usbx/common/usbx_stm32_device_controllers/ux_dcd_stm32_callback.c **** 
 417              		.loc 1 433 13 is_stmt 1 view .LVU127
 418 0042 0023     		movs	r3, #0
 419 0044 1A46     		mov	r2, r3
 420 0046 1946     		mov	r1, r3
 421              	.LVL40:
 433:Middlewares/ST/usbx/common/usbx_stm32_device_controllers/ux_dcd_stm32_callback.c **** 
 422              		.loc 1 433 13 is_stmt 0 view .LVU128
 423 0048 2846     		mov	r0, r5
 424              	.LVL41:
 433:Middlewares/ST/usbx/common/usbx_stm32_device_controllers/ux_dcd_stm32_callback.c **** 
 425              		.loc 1 433 13 view .LVU129
 426 004a FFF7FEFF 		bl	HAL_PCD_EP_Receive
 427              	.LVL42:
 436:Middlewares/ST/usbx/common/usbx_stm32_device_controllers/ux_dcd_stm32_callback.c ****                 endpoint -> ux_slave_endpoint_descriptor.wMaxPacketSize)
 428              		.loc 1 436 13 is_stmt 1 view .LVU130
 436:Middlewares/ST/usbx/common/usbx_stm32_device_controllers/ux_dcd_stm32_callback.c ****                 endpoint -> ux_slave_endpoint_descriptor.wMaxPacketSize)
 429              		.loc 1 436 34 is_stmt 0 view .LVU131
 430 004e F16B     		ldr	r1, [r6, #60]
 437:Middlewares/ST/usbx/common/usbx_stm32_device_controllers/ux_dcd_stm32_callback.c ****             {
 431              		.loc 1 437 57 view .LVU132
 432 0050 B8F81000 		ldrh	r0, [r8, #16]
 436:Middlewares/ST/usbx/common/usbx_stm32_device_controllers/ux_dcd_stm32_callback.c ****                 endpoint -> ux_slave_endpoint_descriptor.wMaxPacketSize)
 433              		.loc 1 436 16 view .LVU133
 434 0054 8142     		cmp	r1, r0
 435 0056 19D8     		bhi	.L25
 441:Middlewares/ST/usbx/common/usbx_stm32_device_controllers/ux_dcd_stm32_callback.c ****                 {
 436              		.loc 1 441 17 is_stmt 1 view .LVU134
 441:Middlewares/ST/usbx/common/usbx_stm32_device_controllers/ux_dcd_stm32_callback.c ****                 {
 437              		.loc 1 441 38 is_stmt 0 view .LVU135
 438 0058 336F     		ldr	r3, [r6, #112]
 441:Middlewares/ST/usbx/common/usbx_stm32_device_controllers/ux_dcd_stm32_callback.c ****                 {
 439              		.loc 1 441 20 view .LVU136
 440 005a 012B     		cmp	r3, #1
 441 005c 0CD0     		beq	.L33
 456:Middlewares/ST/usbx/common/usbx_stm32_device_controllers/ux_dcd_stm32_callback.c **** 
 442              		.loc 1 456 21 is_stmt 1 view .LVU137
 456:Middlewares/ST/usbx/common/usbx_stm32_device_controllers/ux_dcd_stm32_callback.c **** 
 443              		.loc 1 456 83 is_stmt 0 view .LVU138
ARM GAS  C:\usertemp\cctPESIS.s 			page 19


 444 005e 0023     		movs	r3, #0
 445 0060 7364     		str	r3, [r6, #68]
 459:Middlewares/ST/usbx/common/usbx_stm32_device_controllers/ux_dcd_stm32_callback.c ****                     transfer_request -> ux_slave_transfer_request_actual_length =
 446              		.loc 1 459 21 is_stmt 1 view .LVU139
 459:Middlewares/ST/usbx/common/usbx_stm32_device_controllers/ux_dcd_stm32_callback.c ****                     transfer_request -> ux_slave_transfer_request_actual_length =
 447              		.loc 1 459 74 is_stmt 0 view .LVU140
 448 0062 0223     		movs	r3, #2
 449 0064 3362     		str	r3, [r6, #32]
 460:Middlewares/ST/usbx/common/usbx_stm32_device_controllers/ux_dcd_stm32_callback.c ****                         transfer_request -> ux_slave_transfer_request_requested_length;
 450              		.loc 1 460 21 is_stmt 1 view .LVU141
 461:Middlewares/ST/usbx/common/usbx_stm32_device_controllers/ux_dcd_stm32_callback.c **** 
 451              		.loc 1 461 42 is_stmt 0 view .LVU142
 452 0066 736B     		ldr	r3, [r6, #52]
 460:Middlewares/ST/usbx/common/usbx_stm32_device_controllers/ux_dcd_stm32_callback.c ****                         transfer_request -> ux_slave_transfer_request_requested_length;
 453              		.loc 1 460 81 view .LVU143
 454 0068 B363     		str	r3, [r6, #56]
 470:Middlewares/ST/usbx/common/usbx_stm32_device_controllers/ux_dcd_stm32_callback.c ****                         transfer_request -> ux_slave_transfer_request_completion_function (transfer
 455              		.loc 1 470 21 is_stmt 1 view .LVU144
 470:Middlewares/ST/usbx/common/usbx_stm32_device_controllers/ux_dcd_stm32_callback.c ****                         transfer_request -> ux_slave_transfer_request_completion_function (transfer
 456              		.loc 1 470 42 is_stmt 0 view .LVU145
 457 006a F36C     		ldr	r3, [r6, #76]
 470:Middlewares/ST/usbx/common/usbx_stm32_device_controllers/ux_dcd_stm32_callback.c ****                         transfer_request -> ux_slave_transfer_request_completion_function (transfer
 458              		.loc 1 470 24 view .LVU146
 459 006c 0BB1     		cbz	r3, .L27
 471:Middlewares/ST/usbx/common/usbx_stm32_device_controllers/ux_dcd_stm32_callback.c **** 
 460              		.loc 1 471 25 is_stmt 1 view .LVU147
 461 006e 3846     		mov	r0, r7
 462 0070 9847     		blx	r3
 463              	.LVL43:
 464              	.L27:
 474:Middlewares/ST/usbx/common/usbx_stm32_device_controllers/ux_dcd_stm32_callback.c ****                 }
 465              		.loc 1 474 21 view .LVU148
 474:Middlewares/ST/usbx/common/usbx_stm32_device_controllers/ux_dcd_stm32_callback.c ****                 }
 466              		.loc 1 474 49 is_stmt 0 view .LVU149
 467 0072 0423     		movs	r3, #4
 468 0074 2372     		strb	r3, [r4, #8]
 469 0076 DCE7     		b	.L20
 470              	.L33:
 445:Middlewares/ST/usbx/common/usbx_stm32_device_controllers/ux_dcd_stm32_callback.c ****                             endpoint->ux_slave_endpoint_descriptor.bEndpointAddress, 0, 0);
 471              		.loc 1 445 21 is_stmt 1 view .LVU150
 472 0078 0023     		movs	r3, #0
 473 007a 1A46     		mov	r2, r3
 474 007c 98F80E10 		ldrb	r1, [r8, #14]	@ zero_extendqisi2
 475 0080 2846     		mov	r0, r5
 476 0082 FFF7FEFF 		bl	HAL_PCD_EP_Transmit
 477              	.LVL44:
 449:Middlewares/ST/usbx/common/usbx_stm32_device_controllers/ux_dcd_stm32_callback.c **** 
 478              		.loc 1 449 21 view .LVU151
 449:Middlewares/ST/usbx/common/usbx_stm32_device_controllers/ux_dcd_stm32_callback.c **** 
 479              		.loc 1 449 77 is_stmt 0 view .LVU152
 480 0086 0023     		movs	r3, #0
 481 0088 3367     		str	r3, [r6, #112]
 482 008a D2E7     		b	.L20
 483              	.L25:
 481:Middlewares/ST/usbx/common/usbx_stm32_device_controllers/ux_dcd_stm32_callback.c **** 
 484              		.loc 1 481 17 is_stmt 1 view .LVU153
 481:Middlewares/ST/usbx/common/usbx_stm32_device_controllers/ux_dcd_stm32_callback.c **** 
ARM GAS  C:\usertemp\cctPESIS.s 			page 20


 485              		.loc 1 481 33 is_stmt 0 view .LVU154
 486 008c 0B1A     		subs	r3, r1, r0
 487              	.LVL45:
 484:Middlewares/ST/usbx/common/usbx_stm32_device_controllers/ux_dcd_stm32_callback.c ****                 {
 488              		.loc 1 484 17 is_stmt 1 view .LVU155
 484:Middlewares/ST/usbx/common/usbx_stm32_device_controllers/ux_dcd_stm32_callback.c ****                 {
 489              		.loc 1 484 20 is_stmt 0 view .LVU156
 490 008e 9842     		cmp	r0, r3
 491 0090 00D2     		bcs	.L28
 488:Middlewares/ST/usbx/common/usbx_stm32_device_controllers/ux_dcd_stm32_callback.c ****                 }
 492              		.loc 1 488 37 view .LVU157
 493 0092 0346     		mov	r3, r0
 494              	.LVL46:
 495              	.L28:
 492:Middlewares/ST/usbx/common/usbx_stm32_device_controllers/ux_dcd_stm32_callback.c **** 
 496              		.loc 1 492 17 is_stmt 1 view .LVU158
 492:Middlewares/ST/usbx/common/usbx_stm32_device_controllers/ux_dcd_stm32_callback.c **** 
 497              		.loc 1 492 34 is_stmt 0 view .LVU159
 498 0094 326B     		ldr	r2, [r6, #48]
 492:Middlewares/ST/usbx/common/usbx_stm32_device_controllers/ux_dcd_stm32_callback.c **** 
 499              		.loc 1 492 84 view .LVU160
 500 0096 0244     		add	r2, r2, r0
 501 0098 3263     		str	r2, [r6, #48]
 495:Middlewares/ST/usbx/common/usbx_stm32_device_controllers/ux_dcd_stm32_callback.c **** 
 502              		.loc 1 495 17 is_stmt 1 view .LVU161
 495:Middlewares/ST/usbx/common/usbx_stm32_device_controllers/ux_dcd_stm32_callback.c **** 
 503              		.loc 1 495 82 is_stmt 0 view .LVU162
 504 009a C91A     		subs	r1, r1, r3
 505 009c F163     		str	r1, [r6, #60]
 498:Middlewares/ST/usbx/common/usbx_stm32_device_controllers/ux_dcd_stm32_callback.c ****                             endpoint->ux_slave_endpoint_descriptor.bEndpointAddress,
 506              		.loc 1 498 17 is_stmt 1 view .LVU163
 507 009e 98F80E10 		ldrb	r1, [r8, #14]	@ zero_extendqisi2
 508 00a2 2846     		mov	r0, r5
 509 00a4 FFF7FEFF 		bl	HAL_PCD_EP_Transmit
 510              	.LVL47:
 498:Middlewares/ST/usbx/common/usbx_stm32_device_controllers/ux_dcd_stm32_callback.c ****                             endpoint->ux_slave_endpoint_descriptor.bEndpointAddress,
 511              		.loc 1 498 17 is_stmt 0 view .LVU164
 512 00a8 C3E7     		b	.L20
 513              	.LVL48:
 514              	.L23:
 509:Middlewares/ST/usbx/common/usbx_stm32_device_controllers/ux_dcd_stm32_callback.c ****             transfer_request -> ux_slave_transfer_request_requested_length)
 515              		.loc 1 509 9 is_stmt 1 view .LVU165
 509:Middlewares/ST/usbx/common/usbx_stm32_device_controllers/ux_dcd_stm32_callback.c ****             transfer_request -> ux_slave_transfer_request_requested_length)
 516              		.loc 1 509 30 is_stmt 0 view .LVU166
 517 00aa 336F     		ldr	r3, [r6, #112]
 509:Middlewares/ST/usbx/common/usbx_stm32_device_controllers/ux_dcd_stm32_callback.c ****             transfer_request -> ux_slave_transfer_request_requested_length)
 518              		.loc 1 509 12 view .LVU167
 519 00ac 0BB1     		cbz	r3, .L29
 510:Middlewares/ST/usbx/common/usbx_stm32_device_controllers/ux_dcd_stm32_callback.c ****         {
 520              		.loc 1 510 30 view .LVU168
 521 00ae 736B     		ldr	r3, [r6, #52]
 509:Middlewares/ST/usbx/common/usbx_stm32_device_controllers/ux_dcd_stm32_callback.c ****             transfer_request -> ux_slave_transfer_request_requested_length)
 522              		.loc 1 509 69 discriminator 1 view .LVU169
 523 00b0 53B9     		cbnz	r3, .L34
 524              	.L29:
 525:Middlewares/ST/usbx/common/usbx_stm32_device_controllers/ux_dcd_stm32_callback.c **** 
 525              		.loc 1 525 13 is_stmt 1 view .LVU170
ARM GAS  C:\usertemp\cctPESIS.s 			page 21


 525:Middlewares/ST/usbx/common/usbx_stm32_device_controllers/ux_dcd_stm32_callback.c **** 
 526              		.loc 1 525 75 is_stmt 0 view .LVU171
 527 00b2 0023     		movs	r3, #0
 528 00b4 7364     		str	r3, [r6, #68]
 529              	.LVL49:
 528:Middlewares/ST/usbx/common/usbx_stm32_device_controllers/ux_dcd_stm32_callback.c ****             transfer_request -> ux_slave_transfer_request_actual_length =
 530              		.loc 1 528 13 is_stmt 1 view .LVU172
 528:Middlewares/ST/usbx/common/usbx_stm32_device_controllers/ux_dcd_stm32_callback.c ****             transfer_request -> ux_slave_transfer_request_actual_length =
 531              		.loc 1 528 66 is_stmt 0 view .LVU173
 532 00b6 0223     		movs	r3, #2
 533 00b8 3362     		str	r3, [r6, #32]
 529:Middlewares/ST/usbx/common/usbx_stm32_device_controllers/ux_dcd_stm32_callback.c ****                 transfer_request -> ux_slave_transfer_request_requested_length;
 534              		.loc 1 529 13 is_stmt 1 view .LVU174
 530:Middlewares/ST/usbx/common/usbx_stm32_device_controllers/ux_dcd_stm32_callback.c **** 
 535              		.loc 1 530 34 is_stmt 0 view .LVU175
 536 00ba 736B     		ldr	r3, [r6, #52]
 529:Middlewares/ST/usbx/common/usbx_stm32_device_controllers/ux_dcd_stm32_callback.c ****                 transfer_request -> ux_slave_transfer_request_requested_length;
 537              		.loc 1 529 73 view .LVU176
 538 00bc B363     		str	r3, [r6, #56]
 537:Middlewares/ST/usbx/common/usbx_stm32_device_controllers/ux_dcd_stm32_callback.c **** #endif /* defined(UX_DEVICE_STANDALONE) */
 539              		.loc 1 537 9 is_stmt 1 view .LVU177
 540 00be 06F15000 		add	r0, r6, #80
 541              	.LVL50:
 537:Middlewares/ST/usbx/common/usbx_stm32_device_controllers/ux_dcd_stm32_callback.c **** #endif /* defined(UX_DEVICE_STANDALONE) */
 542              		.loc 1 537 9 is_stmt 0 view .LVU178
 543 00c2 FFF7FEFF 		bl	_ux_utility_semaphore_put
 544              	.LVL51:
 545              		.loc 1 541 1 view .LVU179
 546 00c6 B4E7     		b	.L20
 547              	.LVL52:
 548              	.L34:
 514:Middlewares/ST/usbx/common/usbx_stm32_device_controllers/ux_dcd_stm32_callback.c ****             transfer_request -> ux_slave_transfer_request_in_transfer_length = 0;
 549              		.loc 1 514 13 is_stmt 1 view .LVU180
 514:Middlewares/ST/usbx/common/usbx_stm32_device_controllers/ux_dcd_stm32_callback.c ****             transfer_request -> ux_slave_transfer_request_in_transfer_length = 0;
 550              		.loc 1 514 69 is_stmt 0 view .LVU181
 551 00c8 0022     		movs	r2, #0
 552 00ca 3267     		str	r2, [r6, #112]
 553              	.LVL53:
 515:Middlewares/ST/usbx/common/usbx_stm32_device_controllers/ux_dcd_stm32_callback.c **** 
 554              		.loc 1 515 13 is_stmt 1 view .LVU182
 515:Middlewares/ST/usbx/common/usbx_stm32_device_controllers/ux_dcd_stm32_callback.c **** 
 555              		.loc 1 515 78 is_stmt 0 view .LVU183
 556 00cc F263     		str	r2, [r6, #60]
 518:Middlewares/ST/usbx/common/usbx_stm32_device_controllers/ux_dcd_stm32_callback.c **** 
 557              		.loc 1 518 13 is_stmt 1 view .LVU184
 558 00ce 1346     		mov	r3, r2
 559 00d0 2846     		mov	r0, r5
 560              	.LVL54:
 518:Middlewares/ST/usbx/common/usbx_stm32_device_controllers/ux_dcd_stm32_callback.c **** 
 561              		.loc 1 518 13 is_stmt 0 view .LVU185
 562 00d2 FFF7FEFF 		bl	HAL_PCD_EP_Transmit
 563              	.LVL55:
 518:Middlewares/ST/usbx/common/usbx_stm32_device_controllers/ux_dcd_stm32_callback.c **** 
 564              		.loc 1 518 13 view .LVU186
 565 00d6 ACE7     		b	.L20
 566              	.L36:
 567              		.align	2
ARM GAS  C:\usertemp\cctPESIS.s 			page 22


 568              	.L35:
 569 00d8 00000000 		.word	_ux_system_slave
 570              		.cfi_endproc
 571              	.LFE173:
 573              		.section	.text.HAL_PCD_DataOutStageCallback,"ax",%progbits
 574              		.align	1
 575              		.global	HAL_PCD_DataOutStageCallback
 576              		.syntax unified
 577              		.thumb
 578              		.thumb_func
 580              	HAL_PCD_DataOutStageCallback:
 581              	.LVL56:
 582              	.LFB174:
 542:Middlewares/ST/usbx/common/usbx_stm32_device_controllers/ux_dcd_stm32_callback.c **** 
 543:Middlewares/ST/usbx/common/usbx_stm32_device_controllers/ux_dcd_stm32_callback.c **** 
 544:Middlewares/ST/usbx/common/usbx_stm32_device_controllers/ux_dcd_stm32_callback.c **** /**************************************************************************/
 545:Middlewares/ST/usbx/common/usbx_stm32_device_controllers/ux_dcd_stm32_callback.c **** /*                                                                        */
 546:Middlewares/ST/usbx/common/usbx_stm32_device_controllers/ux_dcd_stm32_callback.c **** /*  FUNCTION                                               RELEASE        */
 547:Middlewares/ST/usbx/common/usbx_stm32_device_controllers/ux_dcd_stm32_callback.c **** /*                                                                        */
 548:Middlewares/ST/usbx/common/usbx_stm32_device_controllers/ux_dcd_stm32_callback.c **** /*    HAL_PCD_DataOutStageCallback                        PORTABLE C      */
 549:Middlewares/ST/usbx/common/usbx_stm32_device_controllers/ux_dcd_stm32_callback.c **** /*                                                           6.1.10       */
 550:Middlewares/ST/usbx/common/usbx_stm32_device_controllers/ux_dcd_stm32_callback.c **** /*  AUTHOR                                                                */
 551:Middlewares/ST/usbx/common/usbx_stm32_device_controllers/ux_dcd_stm32_callback.c **** /*                                                                        */
 552:Middlewares/ST/usbx/common/usbx_stm32_device_controllers/ux_dcd_stm32_callback.c **** /*    Chaoqiong Xiao, Microsoft Corporation                               */
 553:Middlewares/ST/usbx/common/usbx_stm32_device_controllers/ux_dcd_stm32_callback.c **** /*                                                                        */
 554:Middlewares/ST/usbx/common/usbx_stm32_device_controllers/ux_dcd_stm32_callback.c **** /*  DESCRIPTION                                                           */
 555:Middlewares/ST/usbx/common/usbx_stm32_device_controllers/ux_dcd_stm32_callback.c **** /*                                                                        */
 556:Middlewares/ST/usbx/common/usbx_stm32_device_controllers/ux_dcd_stm32_callback.c **** /*    This function handles callback from HAL driver.                     */
 557:Middlewares/ST/usbx/common/usbx_stm32_device_controllers/ux_dcd_stm32_callback.c **** /*                                                                        */
 558:Middlewares/ST/usbx/common/usbx_stm32_device_controllers/ux_dcd_stm32_callback.c **** /*  INPUT                                                                 */
 559:Middlewares/ST/usbx/common/usbx_stm32_device_controllers/ux_dcd_stm32_callback.c **** /*                                                                        */
 560:Middlewares/ST/usbx/common/usbx_stm32_device_controllers/ux_dcd_stm32_callback.c **** /*    hpcd                                  Pointer to PCD handle         */
 561:Middlewares/ST/usbx/common/usbx_stm32_device_controllers/ux_dcd_stm32_callback.c **** /*    epnum                                 Endpoint number               */
 562:Middlewares/ST/usbx/common/usbx_stm32_device_controllers/ux_dcd_stm32_callback.c **** /*                                                                        */
 563:Middlewares/ST/usbx/common/usbx_stm32_device_controllers/ux_dcd_stm32_callback.c **** /*  OUTPUT                                                                */
 564:Middlewares/ST/usbx/common/usbx_stm32_device_controllers/ux_dcd_stm32_callback.c **** /*                                                                        */
 565:Middlewares/ST/usbx/common/usbx_stm32_device_controllers/ux_dcd_stm32_callback.c **** /*    None                                                                */
 566:Middlewares/ST/usbx/common/usbx_stm32_device_controllers/ux_dcd_stm32_callback.c **** /*                                                                        */
 567:Middlewares/ST/usbx/common/usbx_stm32_device_controllers/ux_dcd_stm32_callback.c **** /*  CALLS                                                                 */
 568:Middlewares/ST/usbx/common/usbx_stm32_device_controllers/ux_dcd_stm32_callback.c **** /*                                                                        */
 569:Middlewares/ST/usbx/common/usbx_stm32_device_controllers/ux_dcd_stm32_callback.c **** /*    _ux_device_stack_control_request_process                            */
 570:Middlewares/ST/usbx/common/usbx_stm32_device_controllers/ux_dcd_stm32_callback.c **** /*                                          Process control request       */
 571:Middlewares/ST/usbx/common/usbx_stm32_device_controllers/ux_dcd_stm32_callback.c **** /*    _ux_utility_semaphore_put             Put semaphore                 */
 572:Middlewares/ST/usbx/common/usbx_stm32_device_controllers/ux_dcd_stm32_callback.c **** /*    HAL_PCD_EP_Transmit                   Transmit data                 */
 573:Middlewares/ST/usbx/common/usbx_stm32_device_controllers/ux_dcd_stm32_callback.c **** /*    HAL_PCD_EP_Receive                    Receive data                  */
 574:Middlewares/ST/usbx/common/usbx_stm32_device_controllers/ux_dcd_stm32_callback.c **** /*                                                                        */
 575:Middlewares/ST/usbx/common/usbx_stm32_device_controllers/ux_dcd_stm32_callback.c **** /*  CALLED BY                                                             */
 576:Middlewares/ST/usbx/common/usbx_stm32_device_controllers/ux_dcd_stm32_callback.c **** /*                                                                        */
 577:Middlewares/ST/usbx/common/usbx_stm32_device_controllers/ux_dcd_stm32_callback.c **** /*    STM32 HAL Driver                                                    */
 578:Middlewares/ST/usbx/common/usbx_stm32_device_controllers/ux_dcd_stm32_callback.c **** /*                                                                        */
 579:Middlewares/ST/usbx/common/usbx_stm32_device_controllers/ux_dcd_stm32_callback.c **** /*  RELEASE HISTORY                                                       */
 580:Middlewares/ST/usbx/common/usbx_stm32_device_controllers/ux_dcd_stm32_callback.c **** /*                                                                        */
 581:Middlewares/ST/usbx/common/usbx_stm32_device_controllers/ux_dcd_stm32_callback.c **** /*    DATE              NAME                      DESCRIPTION             */
 582:Middlewares/ST/usbx/common/usbx_stm32_device_controllers/ux_dcd_stm32_callback.c **** /*                                                                        */
 583:Middlewares/ST/usbx/common/usbx_stm32_device_controllers/ux_dcd_stm32_callback.c **** /*  09-30-2020     Chaoqiong Xiao           Initial Version 6.1           */
 584:Middlewares/ST/usbx/common/usbx_stm32_device_controllers/ux_dcd_stm32_callback.c **** /*  01-31-2022     Chaoqiong Xiao           Modified comment(s),          */
 585:Middlewares/ST/usbx/common/usbx_stm32_device_controllers/ux_dcd_stm32_callback.c **** /*                                            added standalone support,   */
ARM GAS  C:\usertemp\cctPESIS.s 			page 23


 586:Middlewares/ST/usbx/common/usbx_stm32_device_controllers/ux_dcd_stm32_callback.c **** /*                                            resulting in version 6.1.10 */
 587:Middlewares/ST/usbx/common/usbx_stm32_device_controllers/ux_dcd_stm32_callback.c **** /*                                                                        */
 588:Middlewares/ST/usbx/common/usbx_stm32_device_controllers/ux_dcd_stm32_callback.c **** /**************************************************************************/
 589:Middlewares/ST/usbx/common/usbx_stm32_device_controllers/ux_dcd_stm32_callback.c **** void HAL_PCD_DataOutStageCallback(PCD_HandleTypeDef *hpcd, uint8_t epnum)
 590:Middlewares/ST/usbx/common/usbx_stm32_device_controllers/ux_dcd_stm32_callback.c **** {
 583              		.loc 1 590 1 is_stmt 1 view -0
 584              		.cfi_startproc
 585              		@ args = 0, pretend = 0, frame = 0
 586              		@ frame_needed = 0, uses_anonymous_args = 0
 587              		.loc 1 590 1 is_stmt 0 view .LVU188
 588 0000 2DE9F041 		push	{r4, r5, r6, r7, r8, lr}
 589              	.LCFI4:
 590              		.cfi_def_cfa_offset 24
 591              		.cfi_offset 4, -24
 592              		.cfi_offset 5, -20
 593              		.cfi_offset 6, -16
 594              		.cfi_offset 7, -12
 595              		.cfi_offset 8, -8
 596              		.cfi_offset 14, -4
 597 0004 0546     		mov	r5, r0
 591:Middlewares/ST/usbx/common/usbx_stm32_device_controllers/ux_dcd_stm32_callback.c **** 
 592:Middlewares/ST/usbx/common/usbx_stm32_device_controllers/ux_dcd_stm32_callback.c **** UX_SLAVE_DCD            *dcd;
 598              		.loc 1 592 1 is_stmt 1 view .LVU189
 593:Middlewares/ST/usbx/common/usbx_stm32_device_controllers/ux_dcd_stm32_callback.c **** UX_DCD_STM32            *dcd_stm32;
 599              		.loc 1 593 1 view .LVU190
 594:Middlewares/ST/usbx/common/usbx_stm32_device_controllers/ux_dcd_stm32_callback.c **** UX_DCD_STM32_ED         *ed;
 600              		.loc 1 594 1 view .LVU191
 595:Middlewares/ST/usbx/common/usbx_stm32_device_controllers/ux_dcd_stm32_callback.c **** UX_SLAVE_TRANSFER       *transfer_request;
 601              		.loc 1 595 1 view .LVU192
 596:Middlewares/ST/usbx/common/usbx_stm32_device_controllers/ux_dcd_stm32_callback.c **** ULONG                   transfer_length;
 602              		.loc 1 596 1 view .LVU193
 597:Middlewares/ST/usbx/common/usbx_stm32_device_controllers/ux_dcd_stm32_callback.c **** UX_SLAVE_ENDPOINT       *endpoint;
 603              		.loc 1 597 1 view .LVU194
 598:Middlewares/ST/usbx/common/usbx_stm32_device_controllers/ux_dcd_stm32_callback.c **** 
 599:Middlewares/ST/usbx/common/usbx_stm32_device_controllers/ux_dcd_stm32_callback.c **** 
 600:Middlewares/ST/usbx/common/usbx_stm32_device_controllers/ux_dcd_stm32_callback.c ****     /* Get the pointer to the DCD.  */
 601:Middlewares/ST/usbx/common/usbx_stm32_device_controllers/ux_dcd_stm32_callback.c ****     dcd = &_ux_system_slave -> ux_system_slave_dcd;
 604              		.loc 1 601 5 view .LVU195
 605              		.loc 1 601 29 is_stmt 0 view .LVU196
 606 0006 254B     		ldr	r3, .L45
 607 0008 1B68     		ldr	r3, [r3]
 608              	.LVL57:
 602:Middlewares/ST/usbx/common/usbx_stm32_device_controllers/ux_dcd_stm32_callback.c **** 
 603:Middlewares/ST/usbx/common/usbx_stm32_device_controllers/ux_dcd_stm32_callback.c ****     /* Get the pointer to the STM32 DCD.  */
 604:Middlewares/ST/usbx/common/usbx_stm32_device_controllers/ux_dcd_stm32_callback.c ****     dcd_stm32 = (UX_DCD_STM32 *) dcd -> ux_slave_dcd_controller_hardware;
 609              		.loc 1 604 5 is_stmt 1 view .LVU197
 610              		.loc 1 604 15 is_stmt 0 view .LVU198
 611 000a DA69     		ldr	r2, [r3, #28]
 612              	.LVL58:
 605:Middlewares/ST/usbx/common/usbx_stm32_device_controllers/ux_dcd_stm32_callback.c **** 
 606:Middlewares/ST/usbx/common/usbx_stm32_device_controllers/ux_dcd_stm32_callback.c ****     /* Fetch the address of the physical endpoint.  */
 607:Middlewares/ST/usbx/common/usbx_stm32_device_controllers/ux_dcd_stm32_callback.c ****     ed = &dcd_stm32 -> ux_dcd_stm32_ed[epnum & 0xF];
 613              		.loc 1 607 5 is_stmt 1 view .LVU199
 614              		.loc 1 607 46 is_stmt 0 view .LVU200
 615 000c 01F00F03 		and	r3, r1, #15
 616              	.LVL59:
 617              		.loc 1 607 8 view .LVU201
ARM GAS  C:\usertemp\cctPESIS.s 			page 24


 618 0010 03EB430C 		add	ip, r3, r3, lsl #1
 619 0014 02EB8C0C 		add	ip, r2, ip, lsl #2
 620              	.LVL60:
 608:Middlewares/ST/usbx/common/usbx_stm32_device_controllers/ux_dcd_stm32_callback.c **** 
 609:Middlewares/ST/usbx/common/usbx_stm32_device_controllers/ux_dcd_stm32_callback.c ****     /* Get the pointer to the transfer request.  */
 610:Middlewares/ST/usbx/common/usbx_stm32_device_controllers/ux_dcd_stm32_callback.c ****     transfer_request = &(ed -> ux_dcd_stm32_ed_endpoint -> ux_slave_endpoint_transfer_request);
 621              		.loc 1 610 5 is_stmt 1 view .LVU202
 622              		.loc 1 610 29 is_stmt 0 view .LVU203
 623 0018 DCF80440 		ldr	r4, [ip, #4]
 624              	.LVL61:
 611:Middlewares/ST/usbx/common/usbx_stm32_device_controllers/ux_dcd_stm32_callback.c **** 
 612:Middlewares/ST/usbx/common/usbx_stm32_device_controllers/ux_dcd_stm32_callback.c ****     /* Endpoint 0 is different.  */
 613:Middlewares/ST/usbx/common/usbx_stm32_device_controllers/ux_dcd_stm32_callback.c ****     if (epnum == 0U)
 625              		.loc 1 613 5 is_stmt 1 view .LVU204
 626              		.loc 1 613 8 is_stmt 0 view .LVU205
 627 001c 89BB     		cbnz	r1, .L38
 628 001e 0CF10406 		add	r6, ip, #4
 629              	.LVL62:
 630              		.loc 1 613 8 view .LVU206
 631 0022 04F12007 		add	r7, r4, #32
 632              	.LVL63:
 614:Middlewares/ST/usbx/common/usbx_stm32_device_controllers/ux_dcd_stm32_callback.c ****     {
 615:Middlewares/ST/usbx/common/usbx_stm32_device_controllers/ux_dcd_stm32_callback.c **** 
 616:Middlewares/ST/usbx/common/usbx_stm32_device_controllers/ux_dcd_stm32_callback.c ****         /* Check if we have received something on endpoint 0 during data phase .  */
 617:Middlewares/ST/usbx/common/usbx_stm32_device_controllers/ux_dcd_stm32_callback.c ****         if (ed -> ux_dcd_stm32_ed_state == UX_DCD_STM32_ED_STATE_DATA_RX)
 633              		.loc 1 617 9 is_stmt 1 view .LVU207
 634              		.loc 1 617 16 is_stmt 0 view .LVU208
 635 0026 9CF80C30 		ldrb	r3, [ip, #12]	@ zero_extendqisi2
 636              		.loc 1 617 12 view .LVU209
 637 002a 022B     		cmp	r3, #2
 638 002c 01D0     		beq	.L44
 639              	.LVL64:
 640              	.L37:
 618:Middlewares/ST/usbx/common/usbx_stm32_device_controllers/ux_dcd_stm32_callback.c ****         {
 619:Middlewares/ST/usbx/common/usbx_stm32_device_controllers/ux_dcd_stm32_callback.c **** 
 620:Middlewares/ST/usbx/common/usbx_stm32_device_controllers/ux_dcd_stm32_callback.c ****             /* Get the pointer to the logical endpoint from the transfer request.  */
 621:Middlewares/ST/usbx/common/usbx_stm32_device_controllers/ux_dcd_stm32_callback.c ****             endpoint = transfer_request -> ux_slave_transfer_request_endpoint;
 622:Middlewares/ST/usbx/common/usbx_stm32_device_controllers/ux_dcd_stm32_callback.c **** 
 623:Middlewares/ST/usbx/common/usbx_stm32_device_controllers/ux_dcd_stm32_callback.c ****             /* Read the received data length for the Control endpoint.  */
 624:Middlewares/ST/usbx/common/usbx_stm32_device_controllers/ux_dcd_stm32_callback.c ****             transfer_length = HAL_PCD_EP_GetRxCount(hpcd, epnum);
 625:Middlewares/ST/usbx/common/usbx_stm32_device_controllers/ux_dcd_stm32_callback.c **** 
 626:Middlewares/ST/usbx/common/usbx_stm32_device_controllers/ux_dcd_stm32_callback.c ****             /* Update the length of the data received.  */
 627:Middlewares/ST/usbx/common/usbx_stm32_device_controllers/ux_dcd_stm32_callback.c ****             transfer_request -> ux_slave_transfer_request_actual_length += transfer_length;
 628:Middlewares/ST/usbx/common/usbx_stm32_device_controllers/ux_dcd_stm32_callback.c **** 
 629:Middlewares/ST/usbx/common/usbx_stm32_device_controllers/ux_dcd_stm32_callback.c ****             /* Can we accept this much?  */
 630:Middlewares/ST/usbx/common/usbx_stm32_device_controllers/ux_dcd_stm32_callback.c ****             if (transfer_request -> ux_slave_transfer_request_actual_length <=
 631:Middlewares/ST/usbx/common/usbx_stm32_device_controllers/ux_dcd_stm32_callback.c ****                 transfer_request -> ux_slave_transfer_request_requested_length)
 632:Middlewares/ST/usbx/common/usbx_stm32_device_controllers/ux_dcd_stm32_callback.c ****             {
 633:Middlewares/ST/usbx/common/usbx_stm32_device_controllers/ux_dcd_stm32_callback.c **** 
 634:Middlewares/ST/usbx/common/usbx_stm32_device_controllers/ux_dcd_stm32_callback.c ****                 /* Are we done with this transfer ? */
 635:Middlewares/ST/usbx/common/usbx_stm32_device_controllers/ux_dcd_stm32_callback.c ****                 if ((transfer_request -> ux_slave_transfer_request_actual_length ==
 636:Middlewares/ST/usbx/common/usbx_stm32_device_controllers/ux_dcd_stm32_callback.c ****                      transfer_request -> ux_slave_transfer_request_requested_length) ||
 637:Middlewares/ST/usbx/common/usbx_stm32_device_controllers/ux_dcd_stm32_callback.c ****                     (transfer_length != endpoint -> ux_slave_endpoint_descriptor.wMaxPacketSize))
 638:Middlewares/ST/usbx/common/usbx_stm32_device_controllers/ux_dcd_stm32_callback.c ****                 {
 639:Middlewares/ST/usbx/common/usbx_stm32_device_controllers/ux_dcd_stm32_callback.c **** #if defined(UX_DEVICE_STANDALONE)
 640:Middlewares/ST/usbx/common/usbx_stm32_device_controllers/ux_dcd_stm32_callback.c ****                     ed -> ux_dcd_stm32_ed_status |= UX_DCD_STM32_ED_STATUS_SETUP_OUT;
 641:Middlewares/ST/usbx/common/usbx_stm32_device_controllers/ux_dcd_stm32_callback.c **** #else
ARM GAS  C:\usertemp\cctPESIS.s 			page 25


 642:Middlewares/ST/usbx/common/usbx_stm32_device_controllers/ux_dcd_stm32_callback.c ****                     _ux_dcd_stm32_setup_out(ed, transfer_request, hpcd);
 643:Middlewares/ST/usbx/common/usbx_stm32_device_controllers/ux_dcd_stm32_callback.c **** #endif
 644:Middlewares/ST/usbx/common/usbx_stm32_device_controllers/ux_dcd_stm32_callback.c ****                 }
 645:Middlewares/ST/usbx/common/usbx_stm32_device_controllers/ux_dcd_stm32_callback.c ****                 else
 646:Middlewares/ST/usbx/common/usbx_stm32_device_controllers/ux_dcd_stm32_callback.c ****                 {
 647:Middlewares/ST/usbx/common/usbx_stm32_device_controllers/ux_dcd_stm32_callback.c **** 
 648:Middlewares/ST/usbx/common/usbx_stm32_device_controllers/ux_dcd_stm32_callback.c ****                     /* Rearm the OUT control endpoint for one packet. */
 649:Middlewares/ST/usbx/common/usbx_stm32_device_controllers/ux_dcd_stm32_callback.c ****                     transfer_request -> ux_slave_transfer_request_current_data_pointer += endpoint 
 650:Middlewares/ST/usbx/common/usbx_stm32_device_controllers/ux_dcd_stm32_callback.c ****                     HAL_PCD_EP_Receive(hpcd,
 651:Middlewares/ST/usbx/common/usbx_stm32_device_controllers/ux_dcd_stm32_callback.c ****                                 endpoint -> ux_slave_endpoint_descriptor.bEndpointAddress,
 652:Middlewares/ST/usbx/common/usbx_stm32_device_controllers/ux_dcd_stm32_callback.c ****                                 transfer_request -> ux_slave_transfer_request_current_data_pointer,
 653:Middlewares/ST/usbx/common/usbx_stm32_device_controllers/ux_dcd_stm32_callback.c ****                                 endpoint -> ux_slave_endpoint_descriptor.wMaxPacketSize);
 654:Middlewares/ST/usbx/common/usbx_stm32_device_controllers/ux_dcd_stm32_callback.c ****                 }
 655:Middlewares/ST/usbx/common/usbx_stm32_device_controllers/ux_dcd_stm32_callback.c ****             }
 656:Middlewares/ST/usbx/common/usbx_stm32_device_controllers/ux_dcd_stm32_callback.c ****             else
 657:Middlewares/ST/usbx/common/usbx_stm32_device_controllers/ux_dcd_stm32_callback.c ****             {
 658:Middlewares/ST/usbx/common/usbx_stm32_device_controllers/ux_dcd_stm32_callback.c **** 
 659:Middlewares/ST/usbx/common/usbx_stm32_device_controllers/ux_dcd_stm32_callback.c ****                 /*  We have an overflow situation. Set the completion code to overflow.  */
 660:Middlewares/ST/usbx/common/usbx_stm32_device_controllers/ux_dcd_stm32_callback.c ****                 transfer_request -> ux_slave_transfer_request_completion_code =  UX_TRANSFER_BUFFER
 661:Middlewares/ST/usbx/common/usbx_stm32_device_controllers/ux_dcd_stm32_callback.c **** 
 662:Middlewares/ST/usbx/common/usbx_stm32_device_controllers/ux_dcd_stm32_callback.c ****                 /* If trace is enabled, insert this event into the trace buffer.  */
 663:Middlewares/ST/usbx/common/usbx_stm32_device_controllers/ux_dcd_stm32_callback.c ****                 UX_TRACE_IN_LINE_INSERT(UX_TRACE_ERROR, UX_TRANSFER_BUFFER_OVERFLOW, transfer_reque
 664:Middlewares/ST/usbx/common/usbx_stm32_device_controllers/ux_dcd_stm32_callback.c **** 
 665:Middlewares/ST/usbx/common/usbx_stm32_device_controllers/ux_dcd_stm32_callback.c **** #if defined(UX_DEVICE_STANDALONE)
 666:Middlewares/ST/usbx/common/usbx_stm32_device_controllers/ux_dcd_stm32_callback.c **** 
 667:Middlewares/ST/usbx/common/usbx_stm32_device_controllers/ux_dcd_stm32_callback.c ****                 /* Control status phase done.  */
 668:Middlewares/ST/usbx/common/usbx_stm32_device_controllers/ux_dcd_stm32_callback.c ****                 ed -> ux_dcd_stm32_ed_status |= UX_DCD_STM32_ED_STATUS_DONE;
 669:Middlewares/ST/usbx/common/usbx_stm32_device_controllers/ux_dcd_stm32_callback.c **** #endif
 670:Middlewares/ST/usbx/common/usbx_stm32_device_controllers/ux_dcd_stm32_callback.c **** 
 671:Middlewares/ST/usbx/common/usbx_stm32_device_controllers/ux_dcd_stm32_callback.c ****                 /* We are using a Control endpoint, if there is a callback, invoke it. We are still
 672:Middlewares/ST/usbx/common/usbx_stm32_device_controllers/ux_dcd_stm32_callback.c ****                 if (transfer_request -> ux_slave_transfer_request_completion_function)
 673:Middlewares/ST/usbx/common/usbx_stm32_device_controllers/ux_dcd_stm32_callback.c ****                     transfer_request -> ux_slave_transfer_request_completion_function (transfer_req
 674:Middlewares/ST/usbx/common/usbx_stm32_device_controllers/ux_dcd_stm32_callback.c ****             }
 675:Middlewares/ST/usbx/common/usbx_stm32_device_controllers/ux_dcd_stm32_callback.c ****         }
 676:Middlewares/ST/usbx/common/usbx_stm32_device_controllers/ux_dcd_stm32_callback.c ****     }
 677:Middlewares/ST/usbx/common/usbx_stm32_device_controllers/ux_dcd_stm32_callback.c ****     else
 678:Middlewares/ST/usbx/common/usbx_stm32_device_controllers/ux_dcd_stm32_callback.c ****     {
 679:Middlewares/ST/usbx/common/usbx_stm32_device_controllers/ux_dcd_stm32_callback.c **** 
 680:Middlewares/ST/usbx/common/usbx_stm32_device_controllers/ux_dcd_stm32_callback.c **** 
 681:Middlewares/ST/usbx/common/usbx_stm32_device_controllers/ux_dcd_stm32_callback.c ****         /* Update the length of the data sent in previous transaction.  */
 682:Middlewares/ST/usbx/common/usbx_stm32_device_controllers/ux_dcd_stm32_callback.c ****         transfer_request -> ux_slave_transfer_request_actual_length =  HAL_PCD_EP_GetRxCount(hpcd, 
 683:Middlewares/ST/usbx/common/usbx_stm32_device_controllers/ux_dcd_stm32_callback.c **** 
 684:Middlewares/ST/usbx/common/usbx_stm32_device_controllers/ux_dcd_stm32_callback.c ****         /* Set the completion code to no error.  */
 685:Middlewares/ST/usbx/common/usbx_stm32_device_controllers/ux_dcd_stm32_callback.c ****         transfer_request -> ux_slave_transfer_request_completion_code =  UX_SUCCESS;
 686:Middlewares/ST/usbx/common/usbx_stm32_device_controllers/ux_dcd_stm32_callback.c **** 
 687:Middlewares/ST/usbx/common/usbx_stm32_device_controllers/ux_dcd_stm32_callback.c ****         /* The transfer is completed.  */
 688:Middlewares/ST/usbx/common/usbx_stm32_device_controllers/ux_dcd_stm32_callback.c ****         transfer_request -> ux_slave_transfer_request_status =  UX_TRANSFER_STATUS_COMPLETED;
 689:Middlewares/ST/usbx/common/usbx_stm32_device_controllers/ux_dcd_stm32_callback.c **** 
 690:Middlewares/ST/usbx/common/usbx_stm32_device_controllers/ux_dcd_stm32_callback.c **** #if defined(UX_DEVICE_STANDALONE)
 691:Middlewares/ST/usbx/common/usbx_stm32_device_controllers/ux_dcd_stm32_callback.c ****         ed -> ux_dcd_stm32_ed_status |= UX_DCD_STM32_ED_STATUS_DONE;
 692:Middlewares/ST/usbx/common/usbx_stm32_device_controllers/ux_dcd_stm32_callback.c **** #else
 693:Middlewares/ST/usbx/common/usbx_stm32_device_controllers/ux_dcd_stm32_callback.c **** 
 694:Middlewares/ST/usbx/common/usbx_stm32_device_controllers/ux_dcd_stm32_callback.c ****         /* Non control endpoint operation, use semaphore.  */
 695:Middlewares/ST/usbx/common/usbx_stm32_device_controllers/ux_dcd_stm32_callback.c ****         _ux_utility_semaphore_put(&transfer_request -> ux_slave_transfer_request_semaphore);
 696:Middlewares/ST/usbx/common/usbx_stm32_device_controllers/ux_dcd_stm32_callback.c **** #endif
 697:Middlewares/ST/usbx/common/usbx_stm32_device_controllers/ux_dcd_stm32_callback.c ****     }
 698:Middlewares/ST/usbx/common/usbx_stm32_device_controllers/ux_dcd_stm32_callback.c **** 
ARM GAS  C:\usertemp\cctPESIS.s 			page 26


 699:Middlewares/ST/usbx/common/usbx_stm32_device_controllers/ux_dcd_stm32_callback.c **** }
 641              		.loc 1 699 1 view .LVU210
 642 002e BDE8F081 		pop	{r4, r5, r6, r7, r8, pc}
 643              	.LVL65:
 644              	.L44:
 621:Middlewares/ST/usbx/common/usbx_stm32_device_controllers/ux_dcd_stm32_callback.c **** 
 645              		.loc 1 621 13 is_stmt 1 view .LVU211
 621:Middlewares/ST/usbx/common/usbx_stm32_device_controllers/ux_dcd_stm32_callback.c **** 
 646              		.loc 1 621 22 is_stmt 0 view .LVU212
 647 0032 D4F82880 		ldr	r8, [r4, #40]
 648              	.LVL66:
 624:Middlewares/ST/usbx/common/usbx_stm32_device_controllers/ux_dcd_stm32_callback.c **** 
 649              		.loc 1 624 13 is_stmt 1 view .LVU213
 624:Middlewares/ST/usbx/common/usbx_stm32_device_controllers/ux_dcd_stm32_callback.c **** 
 650              		.loc 1 624 31 is_stmt 0 view .LVU214
 651 0036 FFF7FEFF 		bl	HAL_PCD_EP_GetRxCount
 652              	.LVL67:
 627:Middlewares/ST/usbx/common/usbx_stm32_device_controllers/ux_dcd_stm32_callback.c **** 
 653              		.loc 1 627 13 is_stmt 1 view .LVU215
 627:Middlewares/ST/usbx/common/usbx_stm32_device_controllers/ux_dcd_stm32_callback.c **** 
 654              		.loc 1 627 30 is_stmt 0 view .LVU216
 655 003a A36B     		ldr	r3, [r4, #56]
 627:Middlewares/ST/usbx/common/usbx_stm32_device_controllers/ux_dcd_stm32_callback.c **** 
 656              		.loc 1 627 73 view .LVU217
 657 003c 0344     		add	r3, r3, r0
 658 003e A363     		str	r3, [r4, #56]
 630:Middlewares/ST/usbx/common/usbx_stm32_device_controllers/ux_dcd_stm32_callback.c ****                 transfer_request -> ux_slave_transfer_request_requested_length)
 659              		.loc 1 630 13 is_stmt 1 view .LVU218
 631:Middlewares/ST/usbx/common/usbx_stm32_device_controllers/ux_dcd_stm32_callback.c ****             {
 660              		.loc 1 631 34 is_stmt 0 view .LVU219
 661 0040 626B     		ldr	r2, [r4, #52]
 630:Middlewares/ST/usbx/common/usbx_stm32_device_controllers/ux_dcd_stm32_callback.c ****                 transfer_request -> ux_slave_transfer_request_requested_length)
 662              		.loc 1 630 16 view .LVU220
 663 0042 9342     		cmp	r3, r2
 664 0044 15D8     		bhi	.L40
 635:Middlewares/ST/usbx/common/usbx_stm32_device_controllers/ux_dcd_stm32_callback.c ****                      transfer_request -> ux_slave_transfer_request_requested_length) ||
 665              		.loc 1 635 17 is_stmt 1 view .LVU221
 635:Middlewares/ST/usbx/common/usbx_stm32_device_controllers/ux_dcd_stm32_callback.c ****                      transfer_request -> ux_slave_transfer_request_requested_length) ||
 666              		.loc 1 635 20 is_stmt 0 view .LVU222
 667 0046 03D0     		beq	.L41
 637:Middlewares/ST/usbx/common/usbx_stm32_device_controllers/ux_dcd_stm32_callback.c ****                 {
 668              		.loc 1 637 81 view .LVU223
 669 0048 B8F81030 		ldrh	r3, [r8, #16]
 636:Middlewares/ST/usbx/common/usbx_stm32_device_controllers/ux_dcd_stm32_callback.c ****                     (transfer_length != endpoint -> ux_slave_endpoint_descriptor.wMaxPacketSize))
 670              		.loc 1 636 86 view .LVU224
 671 004c 8342     		cmp	r3, r0
 672 004e 05D0     		beq	.L42
 673              	.L41:
 642:Middlewares/ST/usbx/common/usbx_stm32_device_controllers/ux_dcd_stm32_callback.c **** #endif
 674              		.loc 1 642 21 is_stmt 1 view .LVU225
 675 0050 2A46     		mov	r2, r5
 676 0052 3946     		mov	r1, r7
 677 0054 3046     		mov	r0, r6
 678              	.LVL68:
 642:Middlewares/ST/usbx/common/usbx_stm32_device_controllers/ux_dcd_stm32_callback.c **** #endif
 679              		.loc 1 642 21 is_stmt 0 view .LVU226
 680 0056 FFF7FEFF 		bl	_ux_dcd_stm32_setup_out
ARM GAS  C:\usertemp\cctPESIS.s 			page 27


 681              	.LVL69:
 682 005a E8E7     		b	.L37
 683              	.LVL70:
 684              	.L42:
 649:Middlewares/ST/usbx/common/usbx_stm32_device_controllers/ux_dcd_stm32_callback.c ****                     HAL_PCD_EP_Receive(hpcd,
 685              		.loc 1 649 21 is_stmt 1 view .LVU227
 649:Middlewares/ST/usbx/common/usbx_stm32_device_controllers/ux_dcd_stm32_callback.c ****                     HAL_PCD_EP_Receive(hpcd,
 686              		.loc 1 649 38 is_stmt 0 view .LVU228
 687 005c 226B     		ldr	r2, [r4, #48]
 649:Middlewares/ST/usbx/common/usbx_stm32_device_controllers/ux_dcd_stm32_callback.c ****                     HAL_PCD_EP_Receive(hpcd,
 688              		.loc 1 649 88 view .LVU229
 689 005e 1A44     		add	r2, r2, r3
 690 0060 2263     		str	r2, [r4, #48]
 650:Middlewares/ST/usbx/common/usbx_stm32_device_controllers/ux_dcd_stm32_callback.c ****                                 endpoint -> ux_slave_endpoint_descriptor.bEndpointAddress,
 691              		.loc 1 650 21 is_stmt 1 view .LVU230
 692 0062 B8F81030 		ldrh	r3, [r8, #16]
 693 0066 98F80E10 		ldrb	r1, [r8, #14]	@ zero_extendqisi2
 694 006a 2846     		mov	r0, r5
 695              	.LVL71:
 650:Middlewares/ST/usbx/common/usbx_stm32_device_controllers/ux_dcd_stm32_callback.c ****                                 endpoint -> ux_slave_endpoint_descriptor.bEndpointAddress,
 696              		.loc 1 650 21 is_stmt 0 view .LVU231
 697 006c FFF7FEFF 		bl	HAL_PCD_EP_Receive
 698              	.LVL72:
 699 0070 DDE7     		b	.L37
 700              	.LVL73:
 701              	.L40:
 660:Middlewares/ST/usbx/common/usbx_stm32_device_controllers/ux_dcd_stm32_callback.c **** 
 702              		.loc 1 660 17 is_stmt 1 view .LVU232
 660:Middlewares/ST/usbx/common/usbx_stm32_device_controllers/ux_dcd_stm32_callback.c **** 
 703              		.loc 1 660 79 is_stmt 0 view .LVU233
 704 0072 2723     		movs	r3, #39
 705 0074 6364     		str	r3, [r4, #68]
 672:Middlewares/ST/usbx/common/usbx_stm32_device_controllers/ux_dcd_stm32_callback.c ****                     transfer_request -> ux_slave_transfer_request_completion_function (transfer_req
 706              		.loc 1 672 17 is_stmt 1 view .LVU234
 672:Middlewares/ST/usbx/common/usbx_stm32_device_controllers/ux_dcd_stm32_callback.c ****                     transfer_request -> ux_slave_transfer_request_completion_function (transfer_req
 707              		.loc 1 672 38 is_stmt 0 view .LVU235
 708 0076 E36C     		ldr	r3, [r4, #76]
 672:Middlewares/ST/usbx/common/usbx_stm32_device_controllers/ux_dcd_stm32_callback.c ****                     transfer_request -> ux_slave_transfer_request_completion_function (transfer_req
 709              		.loc 1 672 20 view .LVU236
 710 0078 002B     		cmp	r3, #0
 711 007a D8D0     		beq	.L37
 673:Middlewares/ST/usbx/common/usbx_stm32_device_controllers/ux_dcd_stm32_callback.c ****             }
 712              		.loc 1 673 21 is_stmt 1 view .LVU237
 713 007c 3846     		mov	r0, r7
 714              	.LVL74:
 673:Middlewares/ST/usbx/common/usbx_stm32_device_controllers/ux_dcd_stm32_callback.c ****             }
 715              		.loc 1 673 21 is_stmt 0 view .LVU238
 716 007e 9847     		blx	r3
 717              	.LVL75:
 718 0080 D5E7     		b	.L37
 719              	.LVL76:
 720              	.L38:
 682:Middlewares/ST/usbx/common/usbx_stm32_device_controllers/ux_dcd_stm32_callback.c **** 
 721              		.loc 1 682 9 is_stmt 1 view .LVU239
 682:Middlewares/ST/usbx/common/usbx_stm32_device_controllers/ux_dcd_stm32_callback.c **** 
 722              		.loc 1 682 72 is_stmt 0 view .LVU240
 723 0082 FFF7FEFF 		bl	HAL_PCD_EP_GetRxCount
ARM GAS  C:\usertemp\cctPESIS.s 			page 28


 724              	.LVL77:
 682:Middlewares/ST/usbx/common/usbx_stm32_device_controllers/ux_dcd_stm32_callback.c **** 
 725              		.loc 1 682 69 discriminator 1 view .LVU241
 726 0086 A063     		str	r0, [r4, #56]
 685:Middlewares/ST/usbx/common/usbx_stm32_device_controllers/ux_dcd_stm32_callback.c **** 
 727              		.loc 1 685 9 is_stmt 1 view .LVU242
 685:Middlewares/ST/usbx/common/usbx_stm32_device_controllers/ux_dcd_stm32_callback.c **** 
 728              		.loc 1 685 71 is_stmt 0 view .LVU243
 729 0088 0023     		movs	r3, #0
 730 008a 6364     		str	r3, [r4, #68]
 688:Middlewares/ST/usbx/common/usbx_stm32_device_controllers/ux_dcd_stm32_callback.c **** 
 731              		.loc 1 688 9 is_stmt 1 view .LVU244
 688:Middlewares/ST/usbx/common/usbx_stm32_device_controllers/ux_dcd_stm32_callback.c **** 
 732              		.loc 1 688 62 is_stmt 0 view .LVU245
 733 008c 0223     		movs	r3, #2
 734 008e 2362     		str	r3, [r4, #32]
 695:Middlewares/ST/usbx/common/usbx_stm32_device_controllers/ux_dcd_stm32_callback.c **** #endif
 735              		.loc 1 695 9 is_stmt 1 view .LVU246
 736 0090 04F15000 		add	r0, r4, #80
 737 0094 FFF7FEFF 		bl	_ux_utility_semaphore_put
 738              	.LVL78:
 739              		.loc 1 699 1 is_stmt 0 view .LVU247
 740 0098 C9E7     		b	.L37
 741              	.L46:
 742 009a 00BF     		.align	2
 743              	.L45:
 744 009c 00000000 		.word	_ux_system_slave
 745              		.cfi_endproc
 746              	.LFE174:
 748              		.section	.text.HAL_PCD_ResetCallback,"ax",%progbits
 749              		.align	1
 750              		.global	HAL_PCD_ResetCallback
 751              		.syntax unified
 752              		.thumb
 753              		.thumb_func
 755              	HAL_PCD_ResetCallback:
 756              	.LVL79:
 757              	.LFB175:
 700:Middlewares/ST/usbx/common/usbx_stm32_device_controllers/ux_dcd_stm32_callback.c **** 
 701:Middlewares/ST/usbx/common/usbx_stm32_device_controllers/ux_dcd_stm32_callback.c **** 
 702:Middlewares/ST/usbx/common/usbx_stm32_device_controllers/ux_dcd_stm32_callback.c **** /**************************************************************************/
 703:Middlewares/ST/usbx/common/usbx_stm32_device_controllers/ux_dcd_stm32_callback.c **** /*                                                                        */
 704:Middlewares/ST/usbx/common/usbx_stm32_device_controllers/ux_dcd_stm32_callback.c **** /*  FUNCTION                                               RELEASE        */
 705:Middlewares/ST/usbx/common/usbx_stm32_device_controllers/ux_dcd_stm32_callback.c **** /*                                                                        */
 706:Middlewares/ST/usbx/common/usbx_stm32_device_controllers/ux_dcd_stm32_callback.c **** /*    HAL_PCD_ResetCallback                               PORTABLE C      */
 707:Middlewares/ST/usbx/common/usbx_stm32_device_controllers/ux_dcd_stm32_callback.c **** /*                                                           6.1.10       */
 708:Middlewares/ST/usbx/common/usbx_stm32_device_controllers/ux_dcd_stm32_callback.c **** /*  AUTHOR                                                                */
 709:Middlewares/ST/usbx/common/usbx_stm32_device_controllers/ux_dcd_stm32_callback.c **** /*                                                                        */
 710:Middlewares/ST/usbx/common/usbx_stm32_device_controllers/ux_dcd_stm32_callback.c **** /*    Chaoqiong Xiao, Microsoft Corporation                               */
 711:Middlewares/ST/usbx/common/usbx_stm32_device_controllers/ux_dcd_stm32_callback.c **** /*                                                                        */
 712:Middlewares/ST/usbx/common/usbx_stm32_device_controllers/ux_dcd_stm32_callback.c **** /*  DESCRIPTION                                                           */
 713:Middlewares/ST/usbx/common/usbx_stm32_device_controllers/ux_dcd_stm32_callback.c **** /*                                                                        */
 714:Middlewares/ST/usbx/common/usbx_stm32_device_controllers/ux_dcd_stm32_callback.c **** /*    This function handles callback from HAL driver.                     */
 715:Middlewares/ST/usbx/common/usbx_stm32_device_controllers/ux_dcd_stm32_callback.c **** /*                                                                        */
 716:Middlewares/ST/usbx/common/usbx_stm32_device_controllers/ux_dcd_stm32_callback.c **** /*  INPUT                                                                 */
 717:Middlewares/ST/usbx/common/usbx_stm32_device_controllers/ux_dcd_stm32_callback.c **** /*                                                                        */
 718:Middlewares/ST/usbx/common/usbx_stm32_device_controllers/ux_dcd_stm32_callback.c **** /*    hpcd                                  Pointer to PCD handle         */
ARM GAS  C:\usertemp\cctPESIS.s 			page 29


 719:Middlewares/ST/usbx/common/usbx_stm32_device_controllers/ux_dcd_stm32_callback.c **** /*                                                                        */
 720:Middlewares/ST/usbx/common/usbx_stm32_device_controllers/ux_dcd_stm32_callback.c **** /*  OUTPUT                                                                */
 721:Middlewares/ST/usbx/common/usbx_stm32_device_controllers/ux_dcd_stm32_callback.c **** /*                                                                        */
 722:Middlewares/ST/usbx/common/usbx_stm32_device_controllers/ux_dcd_stm32_callback.c **** /*    None                                                                */
 723:Middlewares/ST/usbx/common/usbx_stm32_device_controllers/ux_dcd_stm32_callback.c **** /*                                                                        */
 724:Middlewares/ST/usbx/common/usbx_stm32_device_controllers/ux_dcd_stm32_callback.c **** /*  CALLS                                                                 */
 725:Middlewares/ST/usbx/common/usbx_stm32_device_controllers/ux_dcd_stm32_callback.c **** /*                                                                        */
 726:Middlewares/ST/usbx/common/usbx_stm32_device_controllers/ux_dcd_stm32_callback.c **** /*    _ux_device_stack_disconnect           Disconnect device             */
 727:Middlewares/ST/usbx/common/usbx_stm32_device_controllers/ux_dcd_stm32_callback.c **** /*    _ux_dcd_stm32_initialize_complete     Complete initialization       */
 728:Middlewares/ST/usbx/common/usbx_stm32_device_controllers/ux_dcd_stm32_callback.c **** /*                                                                        */
 729:Middlewares/ST/usbx/common/usbx_stm32_device_controllers/ux_dcd_stm32_callback.c **** /*  CALLED BY                                                             */
 730:Middlewares/ST/usbx/common/usbx_stm32_device_controllers/ux_dcd_stm32_callback.c **** /*                                                                        */
 731:Middlewares/ST/usbx/common/usbx_stm32_device_controllers/ux_dcd_stm32_callback.c **** /*    STM32 HAL Driver                                                    */
 732:Middlewares/ST/usbx/common/usbx_stm32_device_controllers/ux_dcd_stm32_callback.c **** /*                                                                        */
 733:Middlewares/ST/usbx/common/usbx_stm32_device_controllers/ux_dcd_stm32_callback.c **** /*  RELEASE HISTORY                                                       */
 734:Middlewares/ST/usbx/common/usbx_stm32_device_controllers/ux_dcd_stm32_callback.c **** /*                                                                        */
 735:Middlewares/ST/usbx/common/usbx_stm32_device_controllers/ux_dcd_stm32_callback.c **** /*    DATE              NAME                      DESCRIPTION             */
 736:Middlewares/ST/usbx/common/usbx_stm32_device_controllers/ux_dcd_stm32_callback.c **** /*                                                                        */
 737:Middlewares/ST/usbx/common/usbx_stm32_device_controllers/ux_dcd_stm32_callback.c **** /*  09-30-2020     Chaoqiong Xiao           Initial Version 6.1           */
 738:Middlewares/ST/usbx/common/usbx_stm32_device_controllers/ux_dcd_stm32_callback.c **** /*  01-31-2022     Chaoqiong Xiao           Modified comment(s),          */
 739:Middlewares/ST/usbx/common/usbx_stm32_device_controllers/ux_dcd_stm32_callback.c **** /*                                            resulting in version 6.1.10 */
 740:Middlewares/ST/usbx/common/usbx_stm32_device_controllers/ux_dcd_stm32_callback.c **** /*                                                                        */
 741:Middlewares/ST/usbx/common/usbx_stm32_device_controllers/ux_dcd_stm32_callback.c **** /**************************************************************************/
 742:Middlewares/ST/usbx/common/usbx_stm32_device_controllers/ux_dcd_stm32_callback.c **** void HAL_PCD_ResetCallback(PCD_HandleTypeDef *hpcd)
 743:Middlewares/ST/usbx/common/usbx_stm32_device_controllers/ux_dcd_stm32_callback.c **** {
 758              		.loc 1 743 1 is_stmt 1 view -0
 759              		.cfi_startproc
 760              		@ args = 0, pretend = 0, frame = 0
 761              		@ frame_needed = 0, uses_anonymous_args = 0
 762              		.loc 1 743 1 is_stmt 0 view .LVU249
 763 0000 10B5     		push	{r4, lr}
 764              	.LCFI5:
 765              		.cfi_def_cfa_offset 8
 766              		.cfi_offset 4, -8
 767              		.cfi_offset 14, -4
 768 0002 0446     		mov	r4, r0
 744:Middlewares/ST/usbx/common/usbx_stm32_device_controllers/ux_dcd_stm32_callback.c **** 
 745:Middlewares/ST/usbx/common/usbx_stm32_device_controllers/ux_dcd_stm32_callback.c ****     /* If the device is attached or configured, we need to disconnect it.  */
 746:Middlewares/ST/usbx/common/usbx_stm32_device_controllers/ux_dcd_stm32_callback.c ****     if (_ux_system_slave -> ux_system_slave_device.ux_slave_device_state !=  UX_DEVICE_RESET)
 769              		.loc 1 746 5 is_stmt 1 view .LVU250
 770              		.loc 1 746 26 is_stmt 0 view .LVU251
 771 0004 114B     		ldr	r3, .L56
 772 0006 1B68     		ldr	r3, [r3]
 773              		.loc 1 746 51 view .LVU252
 774 0008 1B6A     		ldr	r3, [r3, #32]
 775              		.loc 1 746 8 view .LVU253
 776 000a 4BB9     		cbnz	r3, .L55
 777              	.LVL80:
 778              	.L48:
 747:Middlewares/ST/usbx/common/usbx_stm32_device_controllers/ux_dcd_stm32_callback.c ****     {
 748:Middlewares/ST/usbx/common/usbx_stm32_device_controllers/ux_dcd_stm32_callback.c **** 
 749:Middlewares/ST/usbx/common/usbx_stm32_device_controllers/ux_dcd_stm32_callback.c ****         /* Disconnect the device.  */
 750:Middlewares/ST/usbx/common/usbx_stm32_device_controllers/ux_dcd_stm32_callback.c ****         _ux_device_stack_disconnect();
 751:Middlewares/ST/usbx/common/usbx_stm32_device_controllers/ux_dcd_stm32_callback.c ****     }
 752:Middlewares/ST/usbx/common/usbx_stm32_device_controllers/ux_dcd_stm32_callback.c **** 
 753:Middlewares/ST/usbx/common/usbx_stm32_device_controllers/ux_dcd_stm32_callback.c ****     /* Set USB Current Speed */
 754:Middlewares/ST/usbx/common/usbx_stm32_device_controllers/ux_dcd_stm32_callback.c ****     switch(hpcd -> Init.speed)
ARM GAS  C:\usertemp\cctPESIS.s 			page 30


 779              		.loc 1 754 5 is_stmt 1 view .LVU254
 780              		.loc 1 754 24 is_stmt 0 view .LVU255
 781 000c E379     		ldrb	r3, [r4, #7]	@ zero_extendqisi2
 782              		.loc 1 754 5 view .LVU256
 783 000e 53B1     		cbz	r3, .L49
 784 0010 022B     		cmp	r3, #2
 785 0012 14D0     		beq	.L50
 755:Middlewares/ST/usbx/common/usbx_stm32_device_controllers/ux_dcd_stm32_callback.c ****     {
 756:Middlewares/ST/usbx/common/usbx_stm32_device_controllers/ux_dcd_stm32_callback.c **** #ifdef PCD_SPEED_HIGH
 757:Middlewares/ST/usbx/common/usbx_stm32_device_controllers/ux_dcd_stm32_callback.c ****     case PCD_SPEED_HIGH:
 758:Middlewares/ST/usbx/common/usbx_stm32_device_controllers/ux_dcd_stm32_callback.c **** 
 759:Middlewares/ST/usbx/common/usbx_stm32_device_controllers/ux_dcd_stm32_callback.c ****         /* We are connected at high speed.  */
 760:Middlewares/ST/usbx/common/usbx_stm32_device_controllers/ux_dcd_stm32_callback.c ****         _ux_system_slave -> ux_system_slave_speed =  UX_HIGH_SPEED_DEVICE;
 761:Middlewares/ST/usbx/common/usbx_stm32_device_controllers/ux_dcd_stm32_callback.c ****         break;
 762:Middlewares/ST/usbx/common/usbx_stm32_device_controllers/ux_dcd_stm32_callback.c **** #endif
 763:Middlewares/ST/usbx/common/usbx_stm32_device_controllers/ux_dcd_stm32_callback.c ****     case PCD_SPEED_FULL:
 764:Middlewares/ST/usbx/common/usbx_stm32_device_controllers/ux_dcd_stm32_callback.c **** 
 765:Middlewares/ST/usbx/common/usbx_stm32_device_controllers/ux_dcd_stm32_callback.c ****         /* We are connected at full speed.  */
 766:Middlewares/ST/usbx/common/usbx_stm32_device_controllers/ux_dcd_stm32_callback.c ****         _ux_system_slave -> ux_system_slave_speed =  UX_FULL_SPEED_DEVICE;
 767:Middlewares/ST/usbx/common/usbx_stm32_device_controllers/ux_dcd_stm32_callback.c ****         break;
 768:Middlewares/ST/usbx/common/usbx_stm32_device_controllers/ux_dcd_stm32_callback.c **** 
 769:Middlewares/ST/usbx/common/usbx_stm32_device_controllers/ux_dcd_stm32_callback.c ****     default:
 770:Middlewares/ST/usbx/common/usbx_stm32_device_controllers/ux_dcd_stm32_callback.c **** 
 771:Middlewares/ST/usbx/common/usbx_stm32_device_controllers/ux_dcd_stm32_callback.c ****         /* We are connected at full speed.  */
 772:Middlewares/ST/usbx/common/usbx_stm32_device_controllers/ux_dcd_stm32_callback.c ****         _ux_system_slave -> ux_system_slave_speed =  UX_FULL_SPEED_DEVICE;
 786              		.loc 1 772 9 is_stmt 1 view .LVU257
 787              		.loc 1 772 26 is_stmt 0 view .LVU258
 788 0014 0D4B     		ldr	r3, .L56
 789 0016 1B68     		ldr	r3, [r3]
 790              		.loc 1 772 51 view .LVU259
 791 0018 0122     		movs	r2, #1
 792 001a C3F85421 		str	r2, [r3, #340]
 773:Middlewares/ST/usbx/common/usbx_stm32_device_controllers/ux_dcd_stm32_callback.c ****         break;
 793              		.loc 1 773 9 is_stmt 1 view .LVU260
 794 001e 07E0     		b	.L52
 795              	.LVL81:
 796              	.L55:
 750:Middlewares/ST/usbx/common/usbx_stm32_device_controllers/ux_dcd_stm32_callback.c ****     }
 797              		.loc 1 750 9 view .LVU261
 798 0020 FFF7FEFF 		bl	_ux_device_stack_disconnect
 799              	.LVL82:
 750:Middlewares/ST/usbx/common/usbx_stm32_device_controllers/ux_dcd_stm32_callback.c ****     }
 800              		.loc 1 750 9 is_stmt 0 view .LVU262
 801 0024 F2E7     		b	.L48
 802              	.L49:
 760:Middlewares/ST/usbx/common/usbx_stm32_device_controllers/ux_dcd_stm32_callback.c ****         break;
 803              		.loc 1 760 9 is_stmt 1 view .LVU263
 760:Middlewares/ST/usbx/common/usbx_stm32_device_controllers/ux_dcd_stm32_callback.c ****         break;
 804              		.loc 1 760 26 is_stmt 0 view .LVU264
 805 0026 094B     		ldr	r3, .L56
 806 0028 1B68     		ldr	r3, [r3]
 760:Middlewares/ST/usbx/common/usbx_stm32_device_controllers/ux_dcd_stm32_callback.c ****         break;
 807              		.loc 1 760 51 view .LVU265
 808 002a 0222     		movs	r2, #2
 809 002c C3F85421 		str	r2, [r3, #340]
 761:Middlewares/ST/usbx/common/usbx_stm32_device_controllers/ux_dcd_stm32_callback.c **** #endif
 810              		.loc 1 761 9 is_stmt 1 view .LVU266
ARM GAS  C:\usertemp\cctPESIS.s 			page 31


 811              	.L52:
 774:Middlewares/ST/usbx/common/usbx_stm32_device_controllers/ux_dcd_stm32_callback.c ****     }
 775:Middlewares/ST/usbx/common/usbx_stm32_device_controllers/ux_dcd_stm32_callback.c **** 
 776:Middlewares/ST/usbx/common/usbx_stm32_device_controllers/ux_dcd_stm32_callback.c ****     /* Complete the device initialization.  */
 777:Middlewares/ST/usbx/common/usbx_stm32_device_controllers/ux_dcd_stm32_callback.c ****     _ux_dcd_stm32_initialize_complete();
 812              		.loc 1 777 5 view .LVU267
 813 0030 FFF7FEFF 		bl	_ux_dcd_stm32_initialize_complete
 814              	.LVL83:
 778:Middlewares/ST/usbx/common/usbx_stm32_device_controllers/ux_dcd_stm32_callback.c **** 
 779:Middlewares/ST/usbx/common/usbx_stm32_device_controllers/ux_dcd_stm32_callback.c ****     /* Mark the device as attached now.  */
 780:Middlewares/ST/usbx/common/usbx_stm32_device_controllers/ux_dcd_stm32_callback.c ****     _ux_system_slave -> ux_system_slave_device.ux_slave_device_state =  UX_DEVICE_ATTACHED;
 815              		.loc 1 780 5 view .LVU268
 816              		.loc 1 780 22 is_stmt 0 view .LVU269
 817 0034 054B     		ldr	r3, .L56
 818 0036 1B68     		ldr	r3, [r3]
 819              		.loc 1 780 70 view .LVU270
 820 0038 0122     		movs	r2, #1
 821 003a 1A62     		str	r2, [r3, #32]
 781:Middlewares/ST/usbx/common/usbx_stm32_device_controllers/ux_dcd_stm32_callback.c **** }
 822              		.loc 1 781 1 view .LVU271
 823 003c 10BD     		pop	{r4, pc}
 824              	.LVL84:
 825              	.L50:
 766:Middlewares/ST/usbx/common/usbx_stm32_device_controllers/ux_dcd_stm32_callback.c ****         break;
 826              		.loc 1 766 9 is_stmt 1 view .LVU272
 766:Middlewares/ST/usbx/common/usbx_stm32_device_controllers/ux_dcd_stm32_callback.c ****         break;
 827              		.loc 1 766 26 is_stmt 0 view .LVU273
 828 003e 034B     		ldr	r3, .L56
 829 0040 1B68     		ldr	r3, [r3]
 766:Middlewares/ST/usbx/common/usbx_stm32_device_controllers/ux_dcd_stm32_callback.c ****         break;
 830              		.loc 1 766 51 view .LVU274
 831 0042 0122     		movs	r2, #1
 832 0044 C3F85421 		str	r2, [r3, #340]
 767:Middlewares/ST/usbx/common/usbx_stm32_device_controllers/ux_dcd_stm32_callback.c **** 
 833              		.loc 1 767 9 is_stmt 1 view .LVU275
 834 0048 F2E7     		b	.L52
 835              	.L57:
 836 004a 00BF     		.align	2
 837              	.L56:
 838 004c 00000000 		.word	_ux_system_slave
 839              		.cfi_endproc
 840              	.LFE175:
 842              		.section	.text.HAL_PCD_ConnectCallback,"ax",%progbits
 843              		.align	1
 844              		.global	HAL_PCD_ConnectCallback
 845              		.syntax unified
 846              		.thumb
 847              		.thumb_func
 849              	HAL_PCD_ConnectCallback:
 850              	.LVL85:
 851              	.LFB176:
 782:Middlewares/ST/usbx/common/usbx_stm32_device_controllers/ux_dcd_stm32_callback.c **** 
 783:Middlewares/ST/usbx/common/usbx_stm32_device_controllers/ux_dcd_stm32_callback.c **** 
 784:Middlewares/ST/usbx/common/usbx_stm32_device_controllers/ux_dcd_stm32_callback.c **** /**************************************************************************/
 785:Middlewares/ST/usbx/common/usbx_stm32_device_controllers/ux_dcd_stm32_callback.c **** /*                                                                        */
 786:Middlewares/ST/usbx/common/usbx_stm32_device_controllers/ux_dcd_stm32_callback.c **** /*  FUNCTION                                               RELEASE        */
 787:Middlewares/ST/usbx/common/usbx_stm32_device_controllers/ux_dcd_stm32_callback.c **** /*                                                                        */
ARM GAS  C:\usertemp\cctPESIS.s 			page 32


 788:Middlewares/ST/usbx/common/usbx_stm32_device_controllers/ux_dcd_stm32_callback.c **** /*    HAL_PCD_ConnectCallback                             PORTABLE C      */
 789:Middlewares/ST/usbx/common/usbx_stm32_device_controllers/ux_dcd_stm32_callback.c **** /*                                                           6.1.12       */
 790:Middlewares/ST/usbx/common/usbx_stm32_device_controllers/ux_dcd_stm32_callback.c **** /*  AUTHOR                                                                */
 791:Middlewares/ST/usbx/common/usbx_stm32_device_controllers/ux_dcd_stm32_callback.c **** /*                                                                        */
 792:Middlewares/ST/usbx/common/usbx_stm32_device_controllers/ux_dcd_stm32_callback.c **** /*    Chaoqiong Xiao, Microsoft Corporation                               */
 793:Middlewares/ST/usbx/common/usbx_stm32_device_controllers/ux_dcd_stm32_callback.c **** /*                                                                        */
 794:Middlewares/ST/usbx/common/usbx_stm32_device_controllers/ux_dcd_stm32_callback.c **** /*  DESCRIPTION                                                           */
 795:Middlewares/ST/usbx/common/usbx_stm32_device_controllers/ux_dcd_stm32_callback.c **** /*                                                                        */
 796:Middlewares/ST/usbx/common/usbx_stm32_device_controllers/ux_dcd_stm32_callback.c **** /*    This function handles callback from HAL driver.                     */
 797:Middlewares/ST/usbx/common/usbx_stm32_device_controllers/ux_dcd_stm32_callback.c **** /*                                                                        */
 798:Middlewares/ST/usbx/common/usbx_stm32_device_controllers/ux_dcd_stm32_callback.c **** /*  INPUT                                                                 */
 799:Middlewares/ST/usbx/common/usbx_stm32_device_controllers/ux_dcd_stm32_callback.c **** /*                                                                        */
 800:Middlewares/ST/usbx/common/usbx_stm32_device_controllers/ux_dcd_stm32_callback.c **** /*    hpcd                                  Pointer to PCD handle         */
 801:Middlewares/ST/usbx/common/usbx_stm32_device_controllers/ux_dcd_stm32_callback.c **** /*                                                                        */
 802:Middlewares/ST/usbx/common/usbx_stm32_device_controllers/ux_dcd_stm32_callback.c **** /*  OUTPUT                                                                */
 803:Middlewares/ST/usbx/common/usbx_stm32_device_controllers/ux_dcd_stm32_callback.c **** /*                                                                        */
 804:Middlewares/ST/usbx/common/usbx_stm32_device_controllers/ux_dcd_stm32_callback.c **** /*    None                                                                */
 805:Middlewares/ST/usbx/common/usbx_stm32_device_controllers/ux_dcd_stm32_callback.c **** /*                                                                        */
 806:Middlewares/ST/usbx/common/usbx_stm32_device_controllers/ux_dcd_stm32_callback.c **** /*  CALLS                                                                 */
 807:Middlewares/ST/usbx/common/usbx_stm32_device_controllers/ux_dcd_stm32_callback.c **** /*                                                                        */
 808:Middlewares/ST/usbx/common/usbx_stm32_device_controllers/ux_dcd_stm32_callback.c **** /*                                                                        */
 809:Middlewares/ST/usbx/common/usbx_stm32_device_controllers/ux_dcd_stm32_callback.c **** /*                                                                        */
 810:Middlewares/ST/usbx/common/usbx_stm32_device_controllers/ux_dcd_stm32_callback.c **** /*  CALLED BY                                                             */
 811:Middlewares/ST/usbx/common/usbx_stm32_device_controllers/ux_dcd_stm32_callback.c **** /*                                                                        */
 812:Middlewares/ST/usbx/common/usbx_stm32_device_controllers/ux_dcd_stm32_callback.c **** /*    STM32 HAL Driver                                                    */
 813:Middlewares/ST/usbx/common/usbx_stm32_device_controllers/ux_dcd_stm32_callback.c **** /*                                                                        */
 814:Middlewares/ST/usbx/common/usbx_stm32_device_controllers/ux_dcd_stm32_callback.c **** /*  RELEASE HISTORY                                                       */
 815:Middlewares/ST/usbx/common/usbx_stm32_device_controllers/ux_dcd_stm32_callback.c **** /*                                                                        */
 816:Middlewares/ST/usbx/common/usbx_stm32_device_controllers/ux_dcd_stm32_callback.c **** /*    DATE              NAME                      DESCRIPTION             */
 817:Middlewares/ST/usbx/common/usbx_stm32_device_controllers/ux_dcd_stm32_callback.c **** /*                                                                        */
 818:Middlewares/ST/usbx/common/usbx_stm32_device_controllers/ux_dcd_stm32_callback.c **** /*  07-29-2022     Chaoqiong Xiao           Modified comment(s),          */
 819:Middlewares/ST/usbx/common/usbx_stm32_device_controllers/ux_dcd_stm32_callback.c **** /*                                            resulting in version 6.1.12 */
 820:Middlewares/ST/usbx/common/usbx_stm32_device_controllers/ux_dcd_stm32_callback.c **** /**************************************************************************/
 821:Middlewares/ST/usbx/common/usbx_stm32_device_controllers/ux_dcd_stm32_callback.c **** void HAL_PCD_ConnectCallback(PCD_HandleTypeDef *hpcd)
 822:Middlewares/ST/usbx/common/usbx_stm32_device_controllers/ux_dcd_stm32_callback.c **** {
 852              		.loc 1 822 1 view -0
 853              		.cfi_startproc
 854              		@ args = 0, pretend = 0, frame = 0
 855              		@ frame_needed = 0, uses_anonymous_args = 0
 856              		.loc 1 822 1 is_stmt 0 view .LVU277
 857 0000 08B5     		push	{r3, lr}
 858              	.LCFI6:
 859              		.cfi_def_cfa_offset 8
 860              		.cfi_offset 3, -8
 861              		.cfi_offset 14, -4
 823:Middlewares/ST/usbx/common/usbx_stm32_device_controllers/ux_dcd_stm32_callback.c **** 
 824:Middlewares/ST/usbx/common/usbx_stm32_device_controllers/ux_dcd_stm32_callback.c ****     /* Check the status change callback.  */
 825:Middlewares/ST/usbx/common/usbx_stm32_device_controllers/ux_dcd_stm32_callback.c ****     if (_ux_system_slave -> ux_system_slave_change_function != UX_NULL)
 862              		.loc 1 825 5 is_stmt 1 view .LVU278
 863              		.loc 1 825 26 is_stmt 0 view .LVU279
 864 0002 044B     		ldr	r3, .L61
 865 0004 1B68     		ldr	r3, [r3]
 866 0006 D3F87831 		ldr	r3, [r3, #376]
 867              		.loc 1 825 8 view .LVU280
 868 000a 0BB1     		cbz	r3, .L58
 826:Middlewares/ST/usbx/common/usbx_stm32_device_controllers/ux_dcd_stm32_callback.c ****     {
 827:Middlewares/ST/usbx/common/usbx_stm32_device_controllers/ux_dcd_stm32_callback.c **** 
ARM GAS  C:\usertemp\cctPESIS.s 			page 33


 828:Middlewares/ST/usbx/common/usbx_stm32_device_controllers/ux_dcd_stm32_callback.c ****        /* Inform the application if a callback function was programmed.  */
 829:Middlewares/ST/usbx/common/usbx_stm32_device_controllers/ux_dcd_stm32_callback.c ****         _ux_system_slave -> ux_system_slave_change_function(UX_DCD_STM32_DEVICE_CONNECTED);
 869              		.loc 1 829 9 is_stmt 1 view .LVU281
 870 000c F120     		movs	r0, #241
 871              	.LVL86:
 872              		.loc 1 829 9 is_stmt 0 view .LVU282
 873 000e 9847     		blx	r3
 874              	.LVL87:
 875              	.L58:
 830:Middlewares/ST/usbx/common/usbx_stm32_device_controllers/ux_dcd_stm32_callback.c ****     }
 831:Middlewares/ST/usbx/common/usbx_stm32_device_controllers/ux_dcd_stm32_callback.c **** }
 876              		.loc 1 831 1 view .LVU283
 877 0010 08BD     		pop	{r3, pc}
 878              	.L62:
 879 0012 00BF     		.align	2
 880              	.L61:
 881 0014 00000000 		.word	_ux_system_slave
 882              		.cfi_endproc
 883              	.LFE176:
 885              		.section	.text.HAL_PCD_DisconnectCallback,"ax",%progbits
 886              		.align	1
 887              		.global	HAL_PCD_DisconnectCallback
 888              		.syntax unified
 889              		.thumb
 890              		.thumb_func
 892              	HAL_PCD_DisconnectCallback:
 893              	.LVL88:
 894              	.LFB177:
 832:Middlewares/ST/usbx/common/usbx_stm32_device_controllers/ux_dcd_stm32_callback.c **** 
 833:Middlewares/ST/usbx/common/usbx_stm32_device_controllers/ux_dcd_stm32_callback.c **** 
 834:Middlewares/ST/usbx/common/usbx_stm32_device_controllers/ux_dcd_stm32_callback.c **** /**************************************************************************/
 835:Middlewares/ST/usbx/common/usbx_stm32_device_controllers/ux_dcd_stm32_callback.c **** /*                                                                        */
 836:Middlewares/ST/usbx/common/usbx_stm32_device_controllers/ux_dcd_stm32_callback.c **** /*  FUNCTION                                               RELEASE        */
 837:Middlewares/ST/usbx/common/usbx_stm32_device_controllers/ux_dcd_stm32_callback.c **** /*                                                                        */
 838:Middlewares/ST/usbx/common/usbx_stm32_device_controllers/ux_dcd_stm32_callback.c **** /*    HAL_PCD_DisconnectCallback                          PORTABLE C      */
 839:Middlewares/ST/usbx/common/usbx_stm32_device_controllers/ux_dcd_stm32_callback.c **** /*                                                           6.1.12       */
 840:Middlewares/ST/usbx/common/usbx_stm32_device_controllers/ux_dcd_stm32_callback.c **** /*  AUTHOR                                                                */
 841:Middlewares/ST/usbx/common/usbx_stm32_device_controllers/ux_dcd_stm32_callback.c **** /*                                                                        */
 842:Middlewares/ST/usbx/common/usbx_stm32_device_controllers/ux_dcd_stm32_callback.c **** /*    Chaoqiong Xiao, Microsoft Corporation                               */
 843:Middlewares/ST/usbx/common/usbx_stm32_device_controllers/ux_dcd_stm32_callback.c **** /*                                                                        */
 844:Middlewares/ST/usbx/common/usbx_stm32_device_controllers/ux_dcd_stm32_callback.c **** /*  DESCRIPTION                                                           */
 845:Middlewares/ST/usbx/common/usbx_stm32_device_controllers/ux_dcd_stm32_callback.c **** /*                                                                        */
 846:Middlewares/ST/usbx/common/usbx_stm32_device_controllers/ux_dcd_stm32_callback.c **** /*    This function handles callback from HAL driver.                     */
 847:Middlewares/ST/usbx/common/usbx_stm32_device_controllers/ux_dcd_stm32_callback.c **** /*                                                                        */
 848:Middlewares/ST/usbx/common/usbx_stm32_device_controllers/ux_dcd_stm32_callback.c **** /*  INPUT                                                                 */
 849:Middlewares/ST/usbx/common/usbx_stm32_device_controllers/ux_dcd_stm32_callback.c **** /*                                                                        */
 850:Middlewares/ST/usbx/common/usbx_stm32_device_controllers/ux_dcd_stm32_callback.c **** /*    hpcd                                  Pointer to PCD handle         */
 851:Middlewares/ST/usbx/common/usbx_stm32_device_controllers/ux_dcd_stm32_callback.c **** /*                                                                        */
 852:Middlewares/ST/usbx/common/usbx_stm32_device_controllers/ux_dcd_stm32_callback.c **** /*  OUTPUT                                                                */
 853:Middlewares/ST/usbx/common/usbx_stm32_device_controllers/ux_dcd_stm32_callback.c **** /*                                                                        */
 854:Middlewares/ST/usbx/common/usbx_stm32_device_controllers/ux_dcd_stm32_callback.c **** /*    None                                                                */
 855:Middlewares/ST/usbx/common/usbx_stm32_device_controllers/ux_dcd_stm32_callback.c **** /*                                                                        */
 856:Middlewares/ST/usbx/common/usbx_stm32_device_controllers/ux_dcd_stm32_callback.c **** /*  CALLS                                                                 */
 857:Middlewares/ST/usbx/common/usbx_stm32_device_controllers/ux_dcd_stm32_callback.c **** /*                                                                        */
 858:Middlewares/ST/usbx/common/usbx_stm32_device_controllers/ux_dcd_stm32_callback.c **** /*    _ux_device_stack_disconnect           Disconnect device             */
 859:Middlewares/ST/usbx/common/usbx_stm32_device_controllers/ux_dcd_stm32_callback.c **** /*                                                                        */
 860:Middlewares/ST/usbx/common/usbx_stm32_device_controllers/ux_dcd_stm32_callback.c **** /*  CALLED BY                                                             */
ARM GAS  C:\usertemp\cctPESIS.s 			page 34


 861:Middlewares/ST/usbx/common/usbx_stm32_device_controllers/ux_dcd_stm32_callback.c **** /*                                                                        */
 862:Middlewares/ST/usbx/common/usbx_stm32_device_controllers/ux_dcd_stm32_callback.c **** /*    STM32 HAL Driver                                                    */
 863:Middlewares/ST/usbx/common/usbx_stm32_device_controllers/ux_dcd_stm32_callback.c **** /*                                                                        */
 864:Middlewares/ST/usbx/common/usbx_stm32_device_controllers/ux_dcd_stm32_callback.c **** /*  RELEASE HISTORY                                                       */
 865:Middlewares/ST/usbx/common/usbx_stm32_device_controllers/ux_dcd_stm32_callback.c **** /*                                                                        */
 866:Middlewares/ST/usbx/common/usbx_stm32_device_controllers/ux_dcd_stm32_callback.c **** /*    DATE              NAME                      DESCRIPTION             */
 867:Middlewares/ST/usbx/common/usbx_stm32_device_controllers/ux_dcd_stm32_callback.c **** /*                                                                        */
 868:Middlewares/ST/usbx/common/usbx_stm32_device_controllers/ux_dcd_stm32_callback.c **** /*  09-30-2020     Chaoqiong Xiao           Initial Version 6.1           */
 869:Middlewares/ST/usbx/common/usbx_stm32_device_controllers/ux_dcd_stm32_callback.c **** /*  01-31-2022     Chaoqiong Xiao           Modified comment(s),          */
 870:Middlewares/ST/usbx/common/usbx_stm32_device_controllers/ux_dcd_stm32_callback.c **** /*                                            resulting in version 6.1.10 */
 871:Middlewares/ST/usbx/common/usbx_stm32_device_controllers/ux_dcd_stm32_callback.c **** /*  07-29-2022     Chaoqiong Xiao           Modified comment(s),          */
 872:Middlewares/ST/usbx/common/usbx_stm32_device_controllers/ux_dcd_stm32_callback.c **** /*                                            resulting in version 6.1.12 */
 873:Middlewares/ST/usbx/common/usbx_stm32_device_controllers/ux_dcd_stm32_callback.c **** /*                                                                        */
 874:Middlewares/ST/usbx/common/usbx_stm32_device_controllers/ux_dcd_stm32_callback.c **** /**************************************************************************/
 875:Middlewares/ST/usbx/common/usbx_stm32_device_controllers/ux_dcd_stm32_callback.c **** void HAL_PCD_DisconnectCallback(PCD_HandleTypeDef *hpcd)
 876:Middlewares/ST/usbx/common/usbx_stm32_device_controllers/ux_dcd_stm32_callback.c **** {
 895              		.loc 1 876 1 is_stmt 1 view -0
 896              		.cfi_startproc
 897              		@ args = 0, pretend = 0, frame = 0
 898              		@ frame_needed = 0, uses_anonymous_args = 0
 899              		.loc 1 876 1 is_stmt 0 view .LVU285
 900 0000 08B5     		push	{r3, lr}
 901              	.LCFI7:
 902              		.cfi_def_cfa_offset 8
 903              		.cfi_offset 3, -8
 904              		.cfi_offset 14, -4
 877:Middlewares/ST/usbx/common/usbx_stm32_device_controllers/ux_dcd_stm32_callback.c **** 
 878:Middlewares/ST/usbx/common/usbx_stm32_device_controllers/ux_dcd_stm32_callback.c ****     /* Check the status change callback.  */
 879:Middlewares/ST/usbx/common/usbx_stm32_device_controllers/ux_dcd_stm32_callback.c ****     if (_ux_system_slave -> ux_system_slave_change_function != UX_NULL)
 905              		.loc 1 879 5 is_stmt 1 view .LVU286
 906              		.loc 1 879 26 is_stmt 0 view .LVU287
 907 0002 074B     		ldr	r3, .L68
 908 0004 1B68     		ldr	r3, [r3]
 909 0006 D3F87831 		ldr	r3, [r3, #376]
 910              		.loc 1 879 8 view .LVU288
 911 000a 0BB1     		cbz	r3, .L64
 880:Middlewares/ST/usbx/common/usbx_stm32_device_controllers/ux_dcd_stm32_callback.c ****     {
 881:Middlewares/ST/usbx/common/usbx_stm32_device_controllers/ux_dcd_stm32_callback.c **** 
 882:Middlewares/ST/usbx/common/usbx_stm32_device_controllers/ux_dcd_stm32_callback.c ****        /* Inform the application if a callback function was programmed.  */
 883:Middlewares/ST/usbx/common/usbx_stm32_device_controllers/ux_dcd_stm32_callback.c ****         _ux_system_slave -> ux_system_slave_change_function(UX_DCD_STM32_DEVICE_DISCONNECTED);
 912              		.loc 1 883 9 is_stmt 1 view .LVU289
 913 000c F220     		movs	r0, #242
 914              	.LVL89:
 915              		.loc 1 883 9 is_stmt 0 view .LVU290
 916 000e 9847     		blx	r3
 917              	.LVL90:
 918              	.L64:
 884:Middlewares/ST/usbx/common/usbx_stm32_device_controllers/ux_dcd_stm32_callback.c ****     }
 885:Middlewares/ST/usbx/common/usbx_stm32_device_controllers/ux_dcd_stm32_callback.c **** 
 886:Middlewares/ST/usbx/common/usbx_stm32_device_controllers/ux_dcd_stm32_callback.c ****     /* Check if the device is attached or configured.  */
 887:Middlewares/ST/usbx/common/usbx_stm32_device_controllers/ux_dcd_stm32_callback.c ****     if (_ux_system_slave -> ux_system_slave_device.ux_slave_device_state !=  UX_DEVICE_RESET)
 919              		.loc 1 887 5 is_stmt 1 view .LVU291
 920              		.loc 1 887 26 is_stmt 0 view .LVU292
 921 0010 034B     		ldr	r3, .L68
 922 0012 1B68     		ldr	r3, [r3]
 923              		.loc 1 887 51 view .LVU293
 924 0014 1B6A     		ldr	r3, [r3, #32]
ARM GAS  C:\usertemp\cctPESIS.s 			page 35


 925              		.loc 1 887 8 view .LVU294
 926 0016 03B9     		cbnz	r3, .L67
 927              	.L63:
 888:Middlewares/ST/usbx/common/usbx_stm32_device_controllers/ux_dcd_stm32_callback.c ****     {
 889:Middlewares/ST/usbx/common/usbx_stm32_device_controllers/ux_dcd_stm32_callback.c **** 
 890:Middlewares/ST/usbx/common/usbx_stm32_device_controllers/ux_dcd_stm32_callback.c ****         /* Disconnect the device.  */
 891:Middlewares/ST/usbx/common/usbx_stm32_device_controllers/ux_dcd_stm32_callback.c ****         _ux_device_stack_disconnect();
 892:Middlewares/ST/usbx/common/usbx_stm32_device_controllers/ux_dcd_stm32_callback.c ****     }
 893:Middlewares/ST/usbx/common/usbx_stm32_device_controllers/ux_dcd_stm32_callback.c **** }
 928              		.loc 1 893 1 view .LVU295
 929 0018 08BD     		pop	{r3, pc}
 930              	.L67:
 891:Middlewares/ST/usbx/common/usbx_stm32_device_controllers/ux_dcd_stm32_callback.c ****     }
 931              		.loc 1 891 9 is_stmt 1 view .LVU296
 932 001a FFF7FEFF 		bl	_ux_device_stack_disconnect
 933              	.LVL91:
 934              		.loc 1 893 1 is_stmt 0 view .LVU297
 935 001e FBE7     		b	.L63
 936              	.L69:
 937              		.align	2
 938              	.L68:
 939 0020 00000000 		.word	_ux_system_slave
 940              		.cfi_endproc
 941              	.LFE177:
 943              		.section	.text.HAL_PCD_SuspendCallback,"ax",%progbits
 944              		.align	1
 945              		.global	HAL_PCD_SuspendCallback
 946              		.syntax unified
 947              		.thumb
 948              		.thumb_func
 950              	HAL_PCD_SuspendCallback:
 951              	.LVL92:
 952              	.LFB178:
 894:Middlewares/ST/usbx/common/usbx_stm32_device_controllers/ux_dcd_stm32_callback.c **** 
 895:Middlewares/ST/usbx/common/usbx_stm32_device_controllers/ux_dcd_stm32_callback.c **** 
 896:Middlewares/ST/usbx/common/usbx_stm32_device_controllers/ux_dcd_stm32_callback.c **** /**************************************************************************/
 897:Middlewares/ST/usbx/common/usbx_stm32_device_controllers/ux_dcd_stm32_callback.c **** /*                                                                        */
 898:Middlewares/ST/usbx/common/usbx_stm32_device_controllers/ux_dcd_stm32_callback.c **** /*  FUNCTION                                               RELEASE        */
 899:Middlewares/ST/usbx/common/usbx_stm32_device_controllers/ux_dcd_stm32_callback.c **** /*                                                                        */
 900:Middlewares/ST/usbx/common/usbx_stm32_device_controllers/ux_dcd_stm32_callback.c **** /*    HAL_PCD_SuspendCallback                             PORTABLE C      */
 901:Middlewares/ST/usbx/common/usbx_stm32_device_controllers/ux_dcd_stm32_callback.c **** /*                                                           6.1.12       */
 902:Middlewares/ST/usbx/common/usbx_stm32_device_controllers/ux_dcd_stm32_callback.c **** /*  AUTHOR                                                                */
 903:Middlewares/ST/usbx/common/usbx_stm32_device_controllers/ux_dcd_stm32_callback.c **** /*                                                                        */
 904:Middlewares/ST/usbx/common/usbx_stm32_device_controllers/ux_dcd_stm32_callback.c **** /*    Chaoqiong Xiao, Microsoft Corporation                               */
 905:Middlewares/ST/usbx/common/usbx_stm32_device_controllers/ux_dcd_stm32_callback.c **** /*                                                                        */
 906:Middlewares/ST/usbx/common/usbx_stm32_device_controllers/ux_dcd_stm32_callback.c **** /*  DESCRIPTION                                                           */
 907:Middlewares/ST/usbx/common/usbx_stm32_device_controllers/ux_dcd_stm32_callback.c **** /*                                                                        */
 908:Middlewares/ST/usbx/common/usbx_stm32_device_controllers/ux_dcd_stm32_callback.c **** /*    This function handles callback from HAL driver.                     */
 909:Middlewares/ST/usbx/common/usbx_stm32_device_controllers/ux_dcd_stm32_callback.c **** /*                                                                        */
 910:Middlewares/ST/usbx/common/usbx_stm32_device_controllers/ux_dcd_stm32_callback.c **** /*  INPUT                                                                 */
 911:Middlewares/ST/usbx/common/usbx_stm32_device_controllers/ux_dcd_stm32_callback.c **** /*                                                                        */
 912:Middlewares/ST/usbx/common/usbx_stm32_device_controllers/ux_dcd_stm32_callback.c **** /*    hpcd                                  Pointer to PCD handle         */
 913:Middlewares/ST/usbx/common/usbx_stm32_device_controllers/ux_dcd_stm32_callback.c **** /*                                                                        */
 914:Middlewares/ST/usbx/common/usbx_stm32_device_controllers/ux_dcd_stm32_callback.c **** /*  OUTPUT                                                                */
 915:Middlewares/ST/usbx/common/usbx_stm32_device_controllers/ux_dcd_stm32_callback.c **** /*                                                                        */
 916:Middlewares/ST/usbx/common/usbx_stm32_device_controllers/ux_dcd_stm32_callback.c **** /*    None                                                                */
 917:Middlewares/ST/usbx/common/usbx_stm32_device_controllers/ux_dcd_stm32_callback.c **** /*                                                                        */
ARM GAS  C:\usertemp\cctPESIS.s 			page 36


 918:Middlewares/ST/usbx/common/usbx_stm32_device_controllers/ux_dcd_stm32_callback.c **** /*  CALLS                                                                 */
 919:Middlewares/ST/usbx/common/usbx_stm32_device_controllers/ux_dcd_stm32_callback.c **** /*                                                                        */
 920:Middlewares/ST/usbx/common/usbx_stm32_device_controllers/ux_dcd_stm32_callback.c **** /*                                                                        */
 921:Middlewares/ST/usbx/common/usbx_stm32_device_controllers/ux_dcd_stm32_callback.c **** /*                                                                        */
 922:Middlewares/ST/usbx/common/usbx_stm32_device_controllers/ux_dcd_stm32_callback.c **** /*  CALLED BY                                                             */
 923:Middlewares/ST/usbx/common/usbx_stm32_device_controllers/ux_dcd_stm32_callback.c **** /*                                                                        */
 924:Middlewares/ST/usbx/common/usbx_stm32_device_controllers/ux_dcd_stm32_callback.c **** /*    STM32 HAL Driver                                                    */
 925:Middlewares/ST/usbx/common/usbx_stm32_device_controllers/ux_dcd_stm32_callback.c **** /*                                                                        */
 926:Middlewares/ST/usbx/common/usbx_stm32_device_controllers/ux_dcd_stm32_callback.c **** /*  RELEASE HISTORY                                                       */
 927:Middlewares/ST/usbx/common/usbx_stm32_device_controllers/ux_dcd_stm32_callback.c **** /*                                                                        */
 928:Middlewares/ST/usbx/common/usbx_stm32_device_controllers/ux_dcd_stm32_callback.c **** /*    DATE              NAME                      DESCRIPTION             */
 929:Middlewares/ST/usbx/common/usbx_stm32_device_controllers/ux_dcd_stm32_callback.c **** /*                                                                        */
 930:Middlewares/ST/usbx/common/usbx_stm32_device_controllers/ux_dcd_stm32_callback.c **** /*  07-29-2022     Chaoqiong Xiao           Modified comment(s),          */
 931:Middlewares/ST/usbx/common/usbx_stm32_device_controllers/ux_dcd_stm32_callback.c **** /*                                            resulting in version 6.1.12 */
 932:Middlewares/ST/usbx/common/usbx_stm32_device_controllers/ux_dcd_stm32_callback.c **** /*                                                                        */
 933:Middlewares/ST/usbx/common/usbx_stm32_device_controllers/ux_dcd_stm32_callback.c **** /**************************************************************************/
 934:Middlewares/ST/usbx/common/usbx_stm32_device_controllers/ux_dcd_stm32_callback.c **** void HAL_PCD_SuspendCallback(PCD_HandleTypeDef *hpcd)
 935:Middlewares/ST/usbx/common/usbx_stm32_device_controllers/ux_dcd_stm32_callback.c **** {
 953              		.loc 1 935 1 is_stmt 1 view -0
 954              		.cfi_startproc
 955              		@ args = 0, pretend = 0, frame = 0
 956              		@ frame_needed = 0, uses_anonymous_args = 0
 957              		.loc 1 935 1 is_stmt 0 view .LVU299
 958 0000 08B5     		push	{r3, lr}
 959              	.LCFI8:
 960              		.cfi_def_cfa_offset 8
 961              		.cfi_offset 3, -8
 962              		.cfi_offset 14, -4
 936:Middlewares/ST/usbx/common/usbx_stm32_device_controllers/ux_dcd_stm32_callback.c **** 
 937:Middlewares/ST/usbx/common/usbx_stm32_device_controllers/ux_dcd_stm32_callback.c ****     /* Check the status change callback.  */
 938:Middlewares/ST/usbx/common/usbx_stm32_device_controllers/ux_dcd_stm32_callback.c ****     if (_ux_system_slave -> ux_system_slave_change_function != UX_NULL)
 963              		.loc 1 938 5 is_stmt 1 view .LVU300
 964              		.loc 1 938 26 is_stmt 0 view .LVU301
 965 0002 044B     		ldr	r3, .L73
 966 0004 1B68     		ldr	r3, [r3]
 967 0006 D3F87831 		ldr	r3, [r3, #376]
 968              		.loc 1 938 8 view .LVU302
 969 000a 0BB1     		cbz	r3, .L70
 939:Middlewares/ST/usbx/common/usbx_stm32_device_controllers/ux_dcd_stm32_callback.c ****     {
 940:Middlewares/ST/usbx/common/usbx_stm32_device_controllers/ux_dcd_stm32_callback.c **** 
 941:Middlewares/ST/usbx/common/usbx_stm32_device_controllers/ux_dcd_stm32_callback.c ****        /* Inform the application if a callback function was programmed.  */
 942:Middlewares/ST/usbx/common/usbx_stm32_device_controllers/ux_dcd_stm32_callback.c ****         _ux_system_slave -> ux_system_slave_change_function(UX_DCD_STM32_DEVICE_SUSPENDED);
 970              		.loc 1 942 9 is_stmt 1 view .LVU303
 971 000c F420     		movs	r0, #244
 972              	.LVL93:
 973              		.loc 1 942 9 is_stmt 0 view .LVU304
 974 000e 9847     		blx	r3
 975              	.LVL94:
 976              	.L70:
 943:Middlewares/ST/usbx/common/usbx_stm32_device_controllers/ux_dcd_stm32_callback.c ****     }
 944:Middlewares/ST/usbx/common/usbx_stm32_device_controllers/ux_dcd_stm32_callback.c **** }
 977              		.loc 1 944 1 view .LVU305
 978 0010 08BD     		pop	{r3, pc}
 979              	.L74:
 980 0012 00BF     		.align	2
 981              	.L73:
 982 0014 00000000 		.word	_ux_system_slave
ARM GAS  C:\usertemp\cctPESIS.s 			page 37


 983              		.cfi_endproc
 984              	.LFE178:
 986              		.section	.text.HAL_PCD_ResumeCallback,"ax",%progbits
 987              		.align	1
 988              		.global	HAL_PCD_ResumeCallback
 989              		.syntax unified
 990              		.thumb
 991              		.thumb_func
 993              	HAL_PCD_ResumeCallback:
 994              	.LVL95:
 995              	.LFB179:
 945:Middlewares/ST/usbx/common/usbx_stm32_device_controllers/ux_dcd_stm32_callback.c **** 
 946:Middlewares/ST/usbx/common/usbx_stm32_device_controllers/ux_dcd_stm32_callback.c **** 
 947:Middlewares/ST/usbx/common/usbx_stm32_device_controllers/ux_dcd_stm32_callback.c **** /**************************************************************************/
 948:Middlewares/ST/usbx/common/usbx_stm32_device_controllers/ux_dcd_stm32_callback.c **** /*                                                                        */
 949:Middlewares/ST/usbx/common/usbx_stm32_device_controllers/ux_dcd_stm32_callback.c **** /*  FUNCTION                                               RELEASE        */
 950:Middlewares/ST/usbx/common/usbx_stm32_device_controllers/ux_dcd_stm32_callback.c **** /*                                                                        */
 951:Middlewares/ST/usbx/common/usbx_stm32_device_controllers/ux_dcd_stm32_callback.c **** /*    HAL_PCD_ResumeCallback                              PORTABLE C      */
 952:Middlewares/ST/usbx/common/usbx_stm32_device_controllers/ux_dcd_stm32_callback.c **** /*                                                           6.1.12       */
 953:Middlewares/ST/usbx/common/usbx_stm32_device_controllers/ux_dcd_stm32_callback.c **** /*  AUTHOR                                                                */
 954:Middlewares/ST/usbx/common/usbx_stm32_device_controllers/ux_dcd_stm32_callback.c **** /*                                                                        */
 955:Middlewares/ST/usbx/common/usbx_stm32_device_controllers/ux_dcd_stm32_callback.c **** /*    Chaoqiong Xiao, Microsoft Corporation                               */
 956:Middlewares/ST/usbx/common/usbx_stm32_device_controllers/ux_dcd_stm32_callback.c **** /*                                                                        */
 957:Middlewares/ST/usbx/common/usbx_stm32_device_controllers/ux_dcd_stm32_callback.c **** /*  DESCRIPTION                                                           */
 958:Middlewares/ST/usbx/common/usbx_stm32_device_controllers/ux_dcd_stm32_callback.c **** /*                                                                        */
 959:Middlewares/ST/usbx/common/usbx_stm32_device_controllers/ux_dcd_stm32_callback.c **** /*    This function handles callback from HAL driver.                     */
 960:Middlewares/ST/usbx/common/usbx_stm32_device_controllers/ux_dcd_stm32_callback.c **** /*                                                                        */
 961:Middlewares/ST/usbx/common/usbx_stm32_device_controllers/ux_dcd_stm32_callback.c **** /*  INPUT                                                                 */
 962:Middlewares/ST/usbx/common/usbx_stm32_device_controllers/ux_dcd_stm32_callback.c **** /*                                                                        */
 963:Middlewares/ST/usbx/common/usbx_stm32_device_controllers/ux_dcd_stm32_callback.c **** /*    hpcd                                  Pointer to PCD handle         */
 964:Middlewares/ST/usbx/common/usbx_stm32_device_controllers/ux_dcd_stm32_callback.c **** /*                                                                        */
 965:Middlewares/ST/usbx/common/usbx_stm32_device_controllers/ux_dcd_stm32_callback.c **** /*  OUTPUT                                                                */
 966:Middlewares/ST/usbx/common/usbx_stm32_device_controllers/ux_dcd_stm32_callback.c **** /*                                                                        */
 967:Middlewares/ST/usbx/common/usbx_stm32_device_controllers/ux_dcd_stm32_callback.c **** /*    None                                                                */
 968:Middlewares/ST/usbx/common/usbx_stm32_device_controllers/ux_dcd_stm32_callback.c **** /*                                                                        */
 969:Middlewares/ST/usbx/common/usbx_stm32_device_controllers/ux_dcd_stm32_callback.c **** /*  CALLS                                                                 */
 970:Middlewares/ST/usbx/common/usbx_stm32_device_controllers/ux_dcd_stm32_callback.c **** /*                                                                        */
 971:Middlewares/ST/usbx/common/usbx_stm32_device_controllers/ux_dcd_stm32_callback.c **** /*                                                                        */
 972:Middlewares/ST/usbx/common/usbx_stm32_device_controllers/ux_dcd_stm32_callback.c **** /*                                                                        */
 973:Middlewares/ST/usbx/common/usbx_stm32_device_controllers/ux_dcd_stm32_callback.c **** /*  CALLED BY                                                             */
 974:Middlewares/ST/usbx/common/usbx_stm32_device_controllers/ux_dcd_stm32_callback.c **** /*                                                                        */
 975:Middlewares/ST/usbx/common/usbx_stm32_device_controllers/ux_dcd_stm32_callback.c **** /*    STM32 HAL Driver                                                    */
 976:Middlewares/ST/usbx/common/usbx_stm32_device_controllers/ux_dcd_stm32_callback.c **** /*                                                                        */
 977:Middlewares/ST/usbx/common/usbx_stm32_device_controllers/ux_dcd_stm32_callback.c **** /*  RELEASE HISTORY                                                       */
 978:Middlewares/ST/usbx/common/usbx_stm32_device_controllers/ux_dcd_stm32_callback.c **** /*                                                                        */
 979:Middlewares/ST/usbx/common/usbx_stm32_device_controllers/ux_dcd_stm32_callback.c **** /*    DATE              NAME                      DESCRIPTION             */
 980:Middlewares/ST/usbx/common/usbx_stm32_device_controllers/ux_dcd_stm32_callback.c **** /*                                                                        */
 981:Middlewares/ST/usbx/common/usbx_stm32_device_controllers/ux_dcd_stm32_callback.c **** /*  07-29-2022     Chaoqiong Xiao           Modified comment(s),          */
 982:Middlewares/ST/usbx/common/usbx_stm32_device_controllers/ux_dcd_stm32_callback.c **** /*                                            resulting in version 6.1.12 */
 983:Middlewares/ST/usbx/common/usbx_stm32_device_controllers/ux_dcd_stm32_callback.c **** /*                                                                        */
 984:Middlewares/ST/usbx/common/usbx_stm32_device_controllers/ux_dcd_stm32_callback.c **** /**************************************************************************/
 985:Middlewares/ST/usbx/common/usbx_stm32_device_controllers/ux_dcd_stm32_callback.c **** void HAL_PCD_ResumeCallback(PCD_HandleTypeDef *hpcd)
 986:Middlewares/ST/usbx/common/usbx_stm32_device_controllers/ux_dcd_stm32_callback.c **** {
 996              		.loc 1 986 1 is_stmt 1 view -0
 997              		.cfi_startproc
 998              		@ args = 0, pretend = 0, frame = 0
 999              		@ frame_needed = 0, uses_anonymous_args = 0
ARM GAS  C:\usertemp\cctPESIS.s 			page 38


 1000              		.loc 1 986 1 is_stmt 0 view .LVU307
 1001 0000 08B5     		push	{r3, lr}
 1002              	.LCFI9:
 1003              		.cfi_def_cfa_offset 8
 1004              		.cfi_offset 3, -8
 1005              		.cfi_offset 14, -4
 987:Middlewares/ST/usbx/common/usbx_stm32_device_controllers/ux_dcd_stm32_callback.c **** 
 988:Middlewares/ST/usbx/common/usbx_stm32_device_controllers/ux_dcd_stm32_callback.c ****     /* Check the status change callback.  */
 989:Middlewares/ST/usbx/common/usbx_stm32_device_controllers/ux_dcd_stm32_callback.c ****     if (_ux_system_slave -> ux_system_slave_change_function != UX_NULL)
 1006              		.loc 1 989 5 is_stmt 1 view .LVU308
 1007              		.loc 1 989 26 is_stmt 0 view .LVU309
 1008 0002 044B     		ldr	r3, .L78
 1009 0004 1B68     		ldr	r3, [r3]
 1010 0006 D3F87831 		ldr	r3, [r3, #376]
 1011              		.loc 1 989 8 view .LVU310
 1012 000a 0BB1     		cbz	r3, .L75
 990:Middlewares/ST/usbx/common/usbx_stm32_device_controllers/ux_dcd_stm32_callback.c ****     {
 991:Middlewares/ST/usbx/common/usbx_stm32_device_controllers/ux_dcd_stm32_callback.c **** 
 992:Middlewares/ST/usbx/common/usbx_stm32_device_controllers/ux_dcd_stm32_callback.c ****        /* Inform the application if a callback function was programmed.  */
 993:Middlewares/ST/usbx/common/usbx_stm32_device_controllers/ux_dcd_stm32_callback.c ****         _ux_system_slave -> ux_system_slave_change_function(UX_DCD_STM32_DEVICE_RESUMED);
 1013              		.loc 1 993 9 is_stmt 1 view .LVU311
 1014 000c F320     		movs	r0, #243
 1015              	.LVL96:
 1016              		.loc 1 993 9 is_stmt 0 view .LVU312
 1017 000e 9847     		blx	r3
 1018              	.LVL97:
 1019              	.L75:
 994:Middlewares/ST/usbx/common/usbx_stm32_device_controllers/ux_dcd_stm32_callback.c ****     }
 995:Middlewares/ST/usbx/common/usbx_stm32_device_controllers/ux_dcd_stm32_callback.c **** }
 1020              		.loc 1 995 1 view .LVU313
 1021 0010 08BD     		pop	{r3, pc}
 1022              	.L79:
 1023 0012 00BF     		.align	2
 1024              	.L78:
 1025 0014 00000000 		.word	_ux_system_slave
 1026              		.cfi_endproc
 1027              	.LFE179:
 1029              		.section	.text.HAL_PCD_SOFCallback,"ax",%progbits
 1030              		.align	1
 1031              		.global	HAL_PCD_SOFCallback
 1032              		.syntax unified
 1033              		.thumb
 1034              		.thumb_func
 1036              	HAL_PCD_SOFCallback:
 1037              	.LVL98:
 1038              	.LFB180:
 996:Middlewares/ST/usbx/common/usbx_stm32_device_controllers/ux_dcd_stm32_callback.c **** 
 997:Middlewares/ST/usbx/common/usbx_stm32_device_controllers/ux_dcd_stm32_callback.c **** 
 998:Middlewares/ST/usbx/common/usbx_stm32_device_controllers/ux_dcd_stm32_callback.c **** /**************************************************************************/
 999:Middlewares/ST/usbx/common/usbx_stm32_device_controllers/ux_dcd_stm32_callback.c **** /*                                                                        */
1000:Middlewares/ST/usbx/common/usbx_stm32_device_controllers/ux_dcd_stm32_callback.c **** /*  FUNCTION                                               RELEASE        */
1001:Middlewares/ST/usbx/common/usbx_stm32_device_controllers/ux_dcd_stm32_callback.c **** /*                                                                        */
1002:Middlewares/ST/usbx/common/usbx_stm32_device_controllers/ux_dcd_stm32_callback.c **** /*    HAL_PCD_SOFCallback                                 PORTABLE C      */
1003:Middlewares/ST/usbx/common/usbx_stm32_device_controllers/ux_dcd_stm32_callback.c **** /*                                                           6.1.12       */
1004:Middlewares/ST/usbx/common/usbx_stm32_device_controllers/ux_dcd_stm32_callback.c **** /*  AUTHOR                                                                */
1005:Middlewares/ST/usbx/common/usbx_stm32_device_controllers/ux_dcd_stm32_callback.c **** /*                                                                        */
1006:Middlewares/ST/usbx/common/usbx_stm32_device_controllers/ux_dcd_stm32_callback.c **** /*    Chaoqiong Xiao, Microsoft Corporation                               */
ARM GAS  C:\usertemp\cctPESIS.s 			page 39


1007:Middlewares/ST/usbx/common/usbx_stm32_device_controllers/ux_dcd_stm32_callback.c **** /*                                                                        */
1008:Middlewares/ST/usbx/common/usbx_stm32_device_controllers/ux_dcd_stm32_callback.c **** /*  DESCRIPTION                                                           */
1009:Middlewares/ST/usbx/common/usbx_stm32_device_controllers/ux_dcd_stm32_callback.c **** /*                                                                        */
1010:Middlewares/ST/usbx/common/usbx_stm32_device_controllers/ux_dcd_stm32_callback.c **** /*    This function handles callback from HAL driver.                     */
1011:Middlewares/ST/usbx/common/usbx_stm32_device_controllers/ux_dcd_stm32_callback.c **** /*                                                                        */
1012:Middlewares/ST/usbx/common/usbx_stm32_device_controllers/ux_dcd_stm32_callback.c **** /*  INPUT                                                                 */
1013:Middlewares/ST/usbx/common/usbx_stm32_device_controllers/ux_dcd_stm32_callback.c **** /*                                                                        */
1014:Middlewares/ST/usbx/common/usbx_stm32_device_controllers/ux_dcd_stm32_callback.c **** /*    hpcd                                  Pointer to PCD handle         */
1015:Middlewares/ST/usbx/common/usbx_stm32_device_controllers/ux_dcd_stm32_callback.c **** /*                                                                        */
1016:Middlewares/ST/usbx/common/usbx_stm32_device_controllers/ux_dcd_stm32_callback.c **** /*  OUTPUT                                                                */
1017:Middlewares/ST/usbx/common/usbx_stm32_device_controllers/ux_dcd_stm32_callback.c **** /*                                                                        */
1018:Middlewares/ST/usbx/common/usbx_stm32_device_controllers/ux_dcd_stm32_callback.c **** /*    None                                                                */
1019:Middlewares/ST/usbx/common/usbx_stm32_device_controllers/ux_dcd_stm32_callback.c **** /*                                                                        */
1020:Middlewares/ST/usbx/common/usbx_stm32_device_controllers/ux_dcd_stm32_callback.c **** /*  CALLS                                                                 */
1021:Middlewares/ST/usbx/common/usbx_stm32_device_controllers/ux_dcd_stm32_callback.c **** /*                                                                        */
1022:Middlewares/ST/usbx/common/usbx_stm32_device_controllers/ux_dcd_stm32_callback.c **** /*                                                                        */
1023:Middlewares/ST/usbx/common/usbx_stm32_device_controllers/ux_dcd_stm32_callback.c **** /*                                                                        */
1024:Middlewares/ST/usbx/common/usbx_stm32_device_controllers/ux_dcd_stm32_callback.c **** /*  CALLED BY                                                             */
1025:Middlewares/ST/usbx/common/usbx_stm32_device_controllers/ux_dcd_stm32_callback.c **** /*                                                                        */
1026:Middlewares/ST/usbx/common/usbx_stm32_device_controllers/ux_dcd_stm32_callback.c **** /*    STM32 HAL Driver                                                    */
1027:Middlewares/ST/usbx/common/usbx_stm32_device_controllers/ux_dcd_stm32_callback.c **** /*                                                                        */
1028:Middlewares/ST/usbx/common/usbx_stm32_device_controllers/ux_dcd_stm32_callback.c **** /*  RELEASE HISTORY                                                       */
1029:Middlewares/ST/usbx/common/usbx_stm32_device_controllers/ux_dcd_stm32_callback.c **** /*                                                                        */
1030:Middlewares/ST/usbx/common/usbx_stm32_device_controllers/ux_dcd_stm32_callback.c **** /*    DATE              NAME                      DESCRIPTION             */
1031:Middlewares/ST/usbx/common/usbx_stm32_device_controllers/ux_dcd_stm32_callback.c **** /*                                                                        */
1032:Middlewares/ST/usbx/common/usbx_stm32_device_controllers/ux_dcd_stm32_callback.c **** /*  07-29-2022     Chaoqiong Xiao           Modified comment(s),          */
1033:Middlewares/ST/usbx/common/usbx_stm32_device_controllers/ux_dcd_stm32_callback.c **** /*                                            resulting in version 6.1.12 */
1034:Middlewares/ST/usbx/common/usbx_stm32_device_controllers/ux_dcd_stm32_callback.c **** /*                                                                        */
1035:Middlewares/ST/usbx/common/usbx_stm32_device_controllers/ux_dcd_stm32_callback.c **** /**************************************************************************/
1036:Middlewares/ST/usbx/common/usbx_stm32_device_controllers/ux_dcd_stm32_callback.c **** void HAL_PCD_SOFCallback(PCD_HandleTypeDef *hpcd)
1037:Middlewares/ST/usbx/common/usbx_stm32_device_controllers/ux_dcd_stm32_callback.c **** {
 1039              		.loc 1 1037 1 is_stmt 1 view -0
 1040              		.cfi_startproc
 1041              		@ args = 0, pretend = 0, frame = 0
 1042              		@ frame_needed = 0, uses_anonymous_args = 0
 1043              		.loc 1 1037 1 is_stmt 0 view .LVU315
 1044 0000 08B5     		push	{r3, lr}
 1045              	.LCFI10:
 1046              		.cfi_def_cfa_offset 8
 1047              		.cfi_offset 3, -8
 1048              		.cfi_offset 14, -4
1038:Middlewares/ST/usbx/common/usbx_stm32_device_controllers/ux_dcd_stm32_callback.c **** 
1039:Middlewares/ST/usbx/common/usbx_stm32_device_controllers/ux_dcd_stm32_callback.c ****     /* Check the status change callback.  */
1040:Middlewares/ST/usbx/common/usbx_stm32_device_controllers/ux_dcd_stm32_callback.c ****     if (_ux_system_slave -> ux_system_slave_change_function != UX_NULL)
 1049              		.loc 1 1040 5 is_stmt 1 view .LVU316
 1050              		.loc 1 1040 26 is_stmt 0 view .LVU317
 1051 0002 044B     		ldr	r3, .L83
 1052 0004 1B68     		ldr	r3, [r3]
 1053 0006 D3F87831 		ldr	r3, [r3, #376]
 1054              		.loc 1 1040 8 view .LVU318
 1055 000a 0BB1     		cbz	r3, .L80
1041:Middlewares/ST/usbx/common/usbx_stm32_device_controllers/ux_dcd_stm32_callback.c ****     {
1042:Middlewares/ST/usbx/common/usbx_stm32_device_controllers/ux_dcd_stm32_callback.c **** 
1043:Middlewares/ST/usbx/common/usbx_stm32_device_controllers/ux_dcd_stm32_callback.c ****        /* Inform the application if a callback function was programmed.  */
1044:Middlewares/ST/usbx/common/usbx_stm32_device_controllers/ux_dcd_stm32_callback.c ****         _ux_system_slave -> ux_system_slave_change_function(UX_DCD_STM32_SOF_RECEIVED);
 1056              		.loc 1 1044 9 is_stmt 1 view .LVU319
 1057 000c F020     		movs	r0, #240
ARM GAS  C:\usertemp\cctPESIS.s 			page 40


 1058              	.LVL99:
 1059              		.loc 1 1044 9 is_stmt 0 view .LVU320
 1060 000e 9847     		blx	r3
 1061              	.LVL100:
 1062              	.L80:
1045:Middlewares/ST/usbx/common/usbx_stm32_device_controllers/ux_dcd_stm32_callback.c ****     }
1046:Middlewares/ST/usbx/common/usbx_stm32_device_controllers/ux_dcd_stm32_callback.c **** }
 1063              		.loc 1 1046 1 view .LVU321
 1064 0010 08BD     		pop	{r3, pc}
 1065              	.L84:
 1066 0012 00BF     		.align	2
 1067              	.L83:
 1068 0014 00000000 		.word	_ux_system_slave
 1069              		.cfi_endproc
 1070              	.LFE180:
 1072              		.text
 1073              	.Letext0:
 1074              		.file 2 "D:/armtoolchain/arm-gnu-toolchain-13.3.rel1-mingw-w64-i686-arm-none-eabi/arm-none-eabi/in
 1075              		.file 3 "Middlewares/ST/threadx/ports/cortex_m33/gnu/inc/tx_port.h"
 1076              		.file 4 "Middlewares/ST/threadx/common/inc/tx_api.h"
 1077              		.file 5 "Middlewares/ST/usbx/common/core/inc/ux_api.h"
 1078              		.file 6 "D:/armtoolchain/arm-gnu-toolchain-13.3.rel1-mingw-w64-i686-arm-none-eabi/arm-none-eabi/in
 1079              		.file 7 "Drivers/CMSIS/Device/ST/STM32U5xx/Include/stm32u575xx.h"
 1080              		.file 8 "Drivers/STM32U5xx_HAL_Driver/Inc/stm32u5xx_hal_def.h"
 1081              		.file 9 "Drivers/STM32U5xx_HAL_Driver/Inc/stm32u5xx_ll_usb.h"
 1082              		.file 10 "Drivers/STM32U5xx_HAL_Driver/Inc/stm32u5xx_hal_pcd.h"
 1083              		.file 11 "Middlewares/ST/usbx/common/usbx_stm32_device_controllers/ux_dcd_stm32.h"
 1084              		.file 12 "Middlewares/ST/usbx/common/core/inc/ux_device_stack.h"
 1085              		.file 13 "Middlewares/ST/usbx/common/core/inc/ux_utility.h"
 1086              		.file 14 "Middlewares/ST/usbx/common/core/inc/ux_system.h"
ARM GAS  C:\usertemp\cctPESIS.s 			page 41

