ARM GAS  C:\usertemp\ccRvQQdV.s 			page 1


   1              		.cpu cortex-m33
   2              		.arch armv8-m.main
   3              		.fpu fpv4-sp-d16
   4              		.arch_extension dsp
   5              		.eabi_attribute 27, 1
   6              		.eabi_attribute 28, 1
   7              		.eabi_attribute 20, 1
   8              		.eabi_attribute 21, 1
   9              		.eabi_attribute 23, 3
  10              		.eabi_attribute 24, 1
  11              		.eabi_attribute 25, 1
  12              		.eabi_attribute 26, 1
  13              		.eabi_attribute 30, 1
  14              		.eabi_attribute 34, 1
  15              		.eabi_attribute 18, 4
  16              		.file	"ux_device_stack_control_request_process.c"
  17              		.text
  18              	.Ltext0:
  19              		.cfi_sections	.debug_frame
  20              		.file 1 "Middlewares/ST/usbx/common/core/src/ux_device_stack_control_request_process.c"
  21              		.section	.text._ux_device_stack_control_request_process,"ax",%progbits
  22              		.align	1
  23              		.global	_ux_device_stack_control_request_process
  24              		.syntax unified
  25              		.thumb
  26              		.thumb_func
  28              	_ux_device_stack_control_request_process:
  29              	.LVL0:
  30              	.LFB11:
   1:Middlewares/ST/usbx/common/core/src/ux_device_stack_control_request_process.c **** /**************************************************************************/
   2:Middlewares/ST/usbx/common/core/src/ux_device_stack_control_request_process.c **** /*                                                                        */
   3:Middlewares/ST/usbx/common/core/src/ux_device_stack_control_request_process.c **** /*       Copyright (c) Microsoft Corporation. All rights reserved.        */
   4:Middlewares/ST/usbx/common/core/src/ux_device_stack_control_request_process.c **** /*                                                                        */
   5:Middlewares/ST/usbx/common/core/src/ux_device_stack_control_request_process.c **** /*       This software is licensed under the Microsoft Software License   */
   6:Middlewares/ST/usbx/common/core/src/ux_device_stack_control_request_process.c **** /*       Terms for Microsoft Azure RTOS. Full text of the license can be  */
   7:Middlewares/ST/usbx/common/core/src/ux_device_stack_control_request_process.c **** /*       found in the LICENSE file at https://aka.ms/AzureRTOS_EULA       */
   8:Middlewares/ST/usbx/common/core/src/ux_device_stack_control_request_process.c **** /*       and in the root directory of this software.                      */
   9:Middlewares/ST/usbx/common/core/src/ux_device_stack_control_request_process.c **** /*                                                                        */
  10:Middlewares/ST/usbx/common/core/src/ux_device_stack_control_request_process.c **** /**************************************************************************/
  11:Middlewares/ST/usbx/common/core/src/ux_device_stack_control_request_process.c **** 
  12:Middlewares/ST/usbx/common/core/src/ux_device_stack_control_request_process.c **** 
  13:Middlewares/ST/usbx/common/core/src/ux_device_stack_control_request_process.c **** /**************************************************************************/
  14:Middlewares/ST/usbx/common/core/src/ux_device_stack_control_request_process.c **** /**************************************************************************/
  15:Middlewares/ST/usbx/common/core/src/ux_device_stack_control_request_process.c **** /**                                                                       */ 
  16:Middlewares/ST/usbx/common/core/src/ux_device_stack_control_request_process.c **** /** USBX Component                                                        */ 
  17:Middlewares/ST/usbx/common/core/src/ux_device_stack_control_request_process.c **** /**                                                                       */
  18:Middlewares/ST/usbx/common/core/src/ux_device_stack_control_request_process.c **** /**   Device Stack                                                        */
  19:Middlewares/ST/usbx/common/core/src/ux_device_stack_control_request_process.c **** /**                                                                       */
  20:Middlewares/ST/usbx/common/core/src/ux_device_stack_control_request_process.c **** /**************************************************************************/
  21:Middlewares/ST/usbx/common/core/src/ux_device_stack_control_request_process.c **** /**************************************************************************/
  22:Middlewares/ST/usbx/common/core/src/ux_device_stack_control_request_process.c **** 
  23:Middlewares/ST/usbx/common/core/src/ux_device_stack_control_request_process.c **** #define UX_SOURCE_CODE
  24:Middlewares/ST/usbx/common/core/src/ux_device_stack_control_request_process.c **** 
  25:Middlewares/ST/usbx/common/core/src/ux_device_stack_control_request_process.c **** 
  26:Middlewares/ST/usbx/common/core/src/ux_device_stack_control_request_process.c **** /* Include necessary system files.  */
  27:Middlewares/ST/usbx/common/core/src/ux_device_stack_control_request_process.c **** 
  28:Middlewares/ST/usbx/common/core/src/ux_device_stack_control_request_process.c **** #include "ux_api.h"
ARM GAS  C:\usertemp\ccRvQQdV.s 			page 2


  29:Middlewares/ST/usbx/common/core/src/ux_device_stack_control_request_process.c **** #include "ux_device_stack.h"
  30:Middlewares/ST/usbx/common/core/src/ux_device_stack_control_request_process.c **** 
  31:Middlewares/ST/usbx/common/core/src/ux_device_stack_control_request_process.c **** /**************************************************************************/
  32:Middlewares/ST/usbx/common/core/src/ux_device_stack_control_request_process.c **** /*                                                                        */
  33:Middlewares/ST/usbx/common/core/src/ux_device_stack_control_request_process.c **** /*  FUNCTION                                               RELEASE        */
  34:Middlewares/ST/usbx/common/core/src/ux_device_stack_control_request_process.c **** /*                                                                        */
  35:Middlewares/ST/usbx/common/core/src/ux_device_stack_control_request_process.c **** /*    _ux_device_stack_control_request_process            PORTABLE C      */
  36:Middlewares/ST/usbx/common/core/src/ux_device_stack_control_request_process.c **** /*                                                           6.3.0        */
  37:Middlewares/ST/usbx/common/core/src/ux_device_stack_control_request_process.c **** /*  AUTHOR                                                                */
  38:Middlewares/ST/usbx/common/core/src/ux_device_stack_control_request_process.c **** /*                                                                        */
  39:Middlewares/ST/usbx/common/core/src/ux_device_stack_control_request_process.c **** /*    Chaoqiong Xiao, Microsoft Corporation                               */
  40:Middlewares/ST/usbx/common/core/src/ux_device_stack_control_request_process.c **** /*                                                                        */
  41:Middlewares/ST/usbx/common/core/src/ux_device_stack_control_request_process.c **** /*  DESCRIPTION                                                           */
  42:Middlewares/ST/usbx/common/core/src/ux_device_stack_control_request_process.c **** /*                                                                        */
  43:Middlewares/ST/usbx/common/core/src/ux_device_stack_control_request_process.c **** /*    This function is called by the DCD when the device has received a   */
  44:Middlewares/ST/usbx/common/core/src/ux_device_stack_control_request_process.c **** /*    SETUP packet.                                                       */
  45:Middlewares/ST/usbx/common/core/src/ux_device_stack_control_request_process.c **** /*                                                                        */
  46:Middlewares/ST/usbx/common/core/src/ux_device_stack_control_request_process.c **** /*  INPUT                                                                 */
  47:Middlewares/ST/usbx/common/core/src/ux_device_stack_control_request_process.c **** /*                                                                        */
  48:Middlewares/ST/usbx/common/core/src/ux_device_stack_control_request_process.c **** /*    transfer_request                      Pointer to transfer request   */
  49:Middlewares/ST/usbx/common/core/src/ux_device_stack_control_request_process.c **** /*                                                                        */
  50:Middlewares/ST/usbx/common/core/src/ux_device_stack_control_request_process.c **** /*  OUTPUT                                                                */
  51:Middlewares/ST/usbx/common/core/src/ux_device_stack_control_request_process.c **** /*                                                                        */
  52:Middlewares/ST/usbx/common/core/src/ux_device_stack_control_request_process.c **** /*    Completion Status                                                   */ 
  53:Middlewares/ST/usbx/common/core/src/ux_device_stack_control_request_process.c **** /*                                                                        */
  54:Middlewares/ST/usbx/common/core/src/ux_device_stack_control_request_process.c **** /*  CALLS                                                                 */ 
  55:Middlewares/ST/usbx/common/core/src/ux_device_stack_control_request_process.c **** /*                                                                        */ 
  56:Middlewares/ST/usbx/common/core/src/ux_device_stack_control_request_process.c **** /*    (ux_slave_class_entry_function)       Device class entry function   */ 
  57:Middlewares/ST/usbx/common/core/src/ux_device_stack_control_request_process.c **** /*    (ux_slave_dcd_function)               DCD dispatch function         */ 
  58:Middlewares/ST/usbx/common/core/src/ux_device_stack_control_request_process.c **** /*    _ux_device_stack_transfer_request     Transfer request              */
  59:Middlewares/ST/usbx/common/core/src/ux_device_stack_control_request_process.c **** /*    _ux_device_stack_endpoint_stall       Stall endpoint                */
  60:Middlewares/ST/usbx/common/core/src/ux_device_stack_control_request_process.c **** /*    _ux_device_stack_alternate_setting_get                              */
  61:Middlewares/ST/usbx/common/core/src/ux_device_stack_control_request_process.c **** /*                                          Get alternate settings        */ 
  62:Middlewares/ST/usbx/common/core/src/ux_device_stack_control_request_process.c **** /*    _ux_device_stack_alternate_setting_set                              */
  63:Middlewares/ST/usbx/common/core/src/ux_device_stack_control_request_process.c **** /*                                          Set alternate settings        */ 
  64:Middlewares/ST/usbx/common/core/src/ux_device_stack_control_request_process.c **** /*    _ux_device_stack_clear_feature        Clear feature                 */ 
  65:Middlewares/ST/usbx/common/core/src/ux_device_stack_control_request_process.c **** /*    _ux_device_stack_configuration_get    Get configuration             */ 
  66:Middlewares/ST/usbx/common/core/src/ux_device_stack_control_request_process.c **** /*    _ux_device_stack_configuration_set    Set configuration             */ 
  67:Middlewares/ST/usbx/common/core/src/ux_device_stack_control_request_process.c **** /*    _ux_device_stack_descriptor_send      Send descriptor               */ 
  68:Middlewares/ST/usbx/common/core/src/ux_device_stack_control_request_process.c **** /*    _ux_device_stack_get_status           Get status                    */ 
  69:Middlewares/ST/usbx/common/core/src/ux_device_stack_control_request_process.c **** /*    _ux_device_stack_set_feature          Set feature                   */ 
  70:Middlewares/ST/usbx/common/core/src/ux_device_stack_control_request_process.c **** /*    _ux_utility_short_get                 Get short value               */ 
  71:Middlewares/ST/usbx/common/core/src/ux_device_stack_control_request_process.c **** /*                                                                        */ 
  72:Middlewares/ST/usbx/common/core/src/ux_device_stack_control_request_process.c **** /*  CALLED BY                                                             */ 
  73:Middlewares/ST/usbx/common/core/src/ux_device_stack_control_request_process.c **** /*                                                                        */ 
  74:Middlewares/ST/usbx/common/core/src/ux_device_stack_control_request_process.c **** /*    Device Stack                                                        */
  75:Middlewares/ST/usbx/common/core/src/ux_device_stack_control_request_process.c **** /*                                                                        */ 
  76:Middlewares/ST/usbx/common/core/src/ux_device_stack_control_request_process.c **** /*  RELEASE HISTORY                                                       */ 
  77:Middlewares/ST/usbx/common/core/src/ux_device_stack_control_request_process.c **** /*                                                                        */ 
  78:Middlewares/ST/usbx/common/core/src/ux_device_stack_control_request_process.c **** /*    DATE              NAME                      DESCRIPTION             */ 
  79:Middlewares/ST/usbx/common/core/src/ux_device_stack_control_request_process.c **** /*                                                                        */ 
  80:Middlewares/ST/usbx/common/core/src/ux_device_stack_control_request_process.c **** /*  05-19-2020     Chaoqiong Xiao           Initial Version 6.0           */
  81:Middlewares/ST/usbx/common/core/src/ux_device_stack_control_request_process.c **** /*  09-30-2020     Chaoqiong Xiao           Modified comment(s),          */
  82:Middlewares/ST/usbx/common/core/src/ux_device_stack_control_request_process.c **** /*                                            resulting in version 6.1    */
  83:Middlewares/ST/usbx/common/core/src/ux_device_stack_control_request_process.c **** /*  10-15-2021     Chaoqiong Xiao           Modified comment(s),          */
  84:Middlewares/ST/usbx/common/core/src/ux_device_stack_control_request_process.c **** /*                                            fixed possible buffer issue */
  85:Middlewares/ST/usbx/common/core/src/ux_device_stack_control_request_process.c **** /*                                            for control vendor request, */
ARM GAS  C:\usertemp\ccRvQQdV.s 			page 3


  86:Middlewares/ST/usbx/common/core/src/ux_device_stack_control_request_process.c **** /*                                            resulting in version 6.1.9  */
  87:Middlewares/ST/usbx/common/core/src/ux_device_stack_control_request_process.c **** /*  01-31-2022     Chaoqiong Xiao           Modified comment(s),          */
  88:Middlewares/ST/usbx/common/core/src/ux_device_stack_control_request_process.c **** /*                                            added printer support,      */
  89:Middlewares/ST/usbx/common/core/src/ux_device_stack_control_request_process.c **** /*                                            resulting in version 6.1.10 */
  90:Middlewares/ST/usbx/common/core/src/ux_device_stack_control_request_process.c **** /*  07-29-2022     Chaoqiong Xiao           Modified comment(s),          */
  91:Middlewares/ST/usbx/common/core/src/ux_device_stack_control_request_process.c **** /*                                            fixed parameter/variable    */
  92:Middlewares/ST/usbx/common/core/src/ux_device_stack_control_request_process.c **** /*                                            names conflict C++ keyword, */
  93:Middlewares/ST/usbx/common/core/src/ux_device_stack_control_request_process.c **** /*                                            resulting in version 6.1.12 */
  94:Middlewares/ST/usbx/common/core/src/ux_device_stack_control_request_process.c **** /*  03-08-2023     Chaoqiong Xiao           Modified comment(s),          */
  95:Middlewares/ST/usbx/common/core/src/ux_device_stack_control_request_process.c **** /*                                            fixed vendor request issue, */
  96:Middlewares/ST/usbx/common/core/src/ux_device_stack_control_request_process.c **** /*                                            resulting in version 6.2.1  */
  97:Middlewares/ST/usbx/common/core/src/ux_device_stack_control_request_process.c **** /*  10-31-2023     Chaoqiong Xiao           Modified comment(s),          */
  98:Middlewares/ST/usbx/common/core/src/ux_device_stack_control_request_process.c **** /*                                            improved interface request  */
  99:Middlewares/ST/usbx/common/core/src/ux_device_stack_control_request_process.c **** /*                                            process with print class,   */
 100:Middlewares/ST/usbx/common/core/src/ux_device_stack_control_request_process.c **** /*                                            resulting in version 6.3.0  */
 101:Middlewares/ST/usbx/common/core/src/ux_device_stack_control_request_process.c **** /*                                                                        */
 102:Middlewares/ST/usbx/common/core/src/ux_device_stack_control_request_process.c **** /**************************************************************************/
 103:Middlewares/ST/usbx/common/core/src/ux_device_stack_control_request_process.c **** UINT  _ux_device_stack_control_request_process(UX_SLAVE_TRANSFER *transfer_request)
 104:Middlewares/ST/usbx/common/core/src/ux_device_stack_control_request_process.c **** {
  31              		.loc 1 104 1 view -0
  32              		.cfi_startproc
  33              		@ args = 0, pretend = 0, frame = 48
  34              		@ frame_needed = 0, uses_anonymous_args = 0
  35              		.loc 1 104 1 is_stmt 0 view .LVU1
  36 0000 2DE9F04F 		push	{r4, r5, r6, r7, r8, r9, r10, fp, lr}
  37              	.LCFI0:
  38              		.cfi_def_cfa_offset 36
  39              		.cfi_offset 4, -36
  40              		.cfi_offset 5, -32
  41              		.cfi_offset 6, -28
  42              		.cfi_offset 7, -24
  43              		.cfi_offset 8, -20
  44              		.cfi_offset 9, -16
  45              		.cfi_offset 10, -12
  46              		.cfi_offset 11, -8
  47              		.cfi_offset 14, -4
  48 0004 8FB0     		sub	sp, sp, #60
  49              	.LCFI1:
  50              		.cfi_def_cfa_offset 96
 105:Middlewares/ST/usbx/common/core/src/ux_device_stack_control_request_process.c **** 
 106:Middlewares/ST/usbx/common/core/src/ux_device_stack_control_request_process.c **** UX_SLAVE_DCD                *dcd;
  51              		.loc 1 106 1 is_stmt 1 view .LVU2
 107:Middlewares/ST/usbx/common/core/src/ux_device_stack_control_request_process.c **** UX_SLAVE_DEVICE             *device;
  52              		.loc 1 107 1 view .LVU3
 108:Middlewares/ST/usbx/common/core/src/ux_device_stack_control_request_process.c **** UX_SLAVE_CLASS              *class_ptr;
  53              		.loc 1 108 1 view .LVU4
 109:Middlewares/ST/usbx/common/core/src/ux_device_stack_control_request_process.c **** UX_SLAVE_CLASS_COMMAND      class_command;
  54              		.loc 1 109 1 view .LVU5
 110:Middlewares/ST/usbx/common/core/src/ux_device_stack_control_request_process.c **** ULONG                       request_type;
  55              		.loc 1 110 1 view .LVU6
 111:Middlewares/ST/usbx/common/core/src/ux_device_stack_control_request_process.c **** ULONG                       request;
  56              		.loc 1 111 1 view .LVU7
 112:Middlewares/ST/usbx/common/core/src/ux_device_stack_control_request_process.c **** ULONG                       request_value;
  57              		.loc 1 112 1 view .LVU8
 113:Middlewares/ST/usbx/common/core/src/ux_device_stack_control_request_process.c **** ULONG                       request_index;
  58              		.loc 1 113 1 view .LVU9
 114:Middlewares/ST/usbx/common/core/src/ux_device_stack_control_request_process.c **** ULONG                       request_length;
ARM GAS  C:\usertemp\ccRvQQdV.s 			page 4


  59              		.loc 1 114 1 view .LVU10
 115:Middlewares/ST/usbx/common/core/src/ux_device_stack_control_request_process.c **** ULONG                       class_index;
  60              		.loc 1 115 1 view .LVU11
 116:Middlewares/ST/usbx/common/core/src/ux_device_stack_control_request_process.c **** UINT                        status =  UX_ERROR;
  61              		.loc 1 116 1 view .LVU12
  62              	.LVL1:
 117:Middlewares/ST/usbx/common/core/src/ux_device_stack_control_request_process.c **** UX_SLAVE_ENDPOINT           *endpoint;
  63              		.loc 1 117 1 view .LVU13
 118:Middlewares/ST/usbx/common/core/src/ux_device_stack_control_request_process.c **** ULONG                       application_data_length;
  64              		.loc 1 118 1 view .LVU14
 119:Middlewares/ST/usbx/common/core/src/ux_device_stack_control_request_process.c **** 
 120:Middlewares/ST/usbx/common/core/src/ux_device_stack_control_request_process.c ****     /* Get the pointer to the DCD.  */
 121:Middlewares/ST/usbx/common/core/src/ux_device_stack_control_request_process.c ****     dcd =  &_ux_system_slave -> ux_system_slave_dcd;
  65              		.loc 1 121 5 view .LVU15
  66              		.loc 1 121 30 is_stmt 0 view .LVU16
  67 0006 734B     		ldr	r3, .L35
  68 0008 D3F800A0 		ldr	r10, [r3]
  69              	.LVL2:
 122:Middlewares/ST/usbx/common/core/src/ux_device_stack_control_request_process.c **** 
 123:Middlewares/ST/usbx/common/core/src/ux_device_stack_control_request_process.c ****     /* Get the pointer to the device.  */
 124:Middlewares/ST/usbx/common/core/src/ux_device_stack_control_request_process.c ****     device =  &_ux_system_slave -> ux_system_slave_device;
  70              		.loc 1 124 5 is_stmt 1 view .LVU17
 125:Middlewares/ST/usbx/common/core/src/ux_device_stack_control_request_process.c **** 
 126:Middlewares/ST/usbx/common/core/src/ux_device_stack_control_request_process.c ****     /* Ensure that the Setup request has been received correctly.  */
 127:Middlewares/ST/usbx/common/core/src/ux_device_stack_control_request_process.c ****     if (transfer_request -> ux_slave_transfer_request_completion_code == UX_SUCCESS)
  71              		.loc 1 127 5 view .LVU18
  72              		.loc 1 127 26 is_stmt 0 view .LVU19
  73 000c 446A     		ldr	r4, [r0, #36]
  74              		.loc 1 127 8 view .LVU20
  75 000e 2CB1     		cbz	r4, .L31
 116:Middlewares/ST/usbx/common/core/src/ux_device_stack_control_request_process.c **** UX_SLAVE_ENDPOINT           *endpoint;
  76              		.loc 1 116 29 view .LVU21
  77 0010 4FF0FF08 		mov	r8, #255
  78              	.LVL3:
  79              	.L1:
 128:Middlewares/ST/usbx/common/core/src/ux_device_stack_control_request_process.c ****     {
 129:Middlewares/ST/usbx/common/core/src/ux_device_stack_control_request_process.c **** 
 130:Middlewares/ST/usbx/common/core/src/ux_device_stack_control_request_process.c ****         /* Seems so far, the Setup request is valid. Extract all fields of
 131:Middlewares/ST/usbx/common/core/src/ux_device_stack_control_request_process.c ****            the request.  */
 132:Middlewares/ST/usbx/common/core/src/ux_device_stack_control_request_process.c ****         request_type   =   *transfer_request -> ux_slave_transfer_request_setup;
 133:Middlewares/ST/usbx/common/core/src/ux_device_stack_control_request_process.c ****         request        =   *(transfer_request -> ux_slave_transfer_request_setup + UX_SETUP_REQUEST
 134:Middlewares/ST/usbx/common/core/src/ux_device_stack_control_request_process.c ****         request_value  =   _ux_utility_short_get(transfer_request -> ux_slave_transfer_request_setu
 135:Middlewares/ST/usbx/common/core/src/ux_device_stack_control_request_process.c ****         request_index  =   _ux_utility_short_get(transfer_request -> ux_slave_transfer_request_setu
 136:Middlewares/ST/usbx/common/core/src/ux_device_stack_control_request_process.c ****         request_length =   _ux_utility_short_get(transfer_request -> ux_slave_transfer_request_setu
 137:Middlewares/ST/usbx/common/core/src/ux_device_stack_control_request_process.c **** 
 138:Middlewares/ST/usbx/common/core/src/ux_device_stack_control_request_process.c ****         /* Filter for GET_DESCRIPTOR/SET_DESCRIPTOR commands. If the descriptor to be returned is n
 139:Middlewares/ST/usbx/common/core/src/ux_device_stack_control_request_process.c ****            treat the command as a CLASS command.  */
 140:Middlewares/ST/usbx/common/core/src/ux_device_stack_control_request_process.c ****         if ((request == UX_GET_DESCRIPTOR || request == UX_SET_DESCRIPTOR) && (((request_value >> 8
 141:Middlewares/ST/usbx/common/core/src/ux_device_stack_control_request_process.c ****         {        
 142:Middlewares/ST/usbx/common/core/src/ux_device_stack_control_request_process.c **** 
 143:Middlewares/ST/usbx/common/core/src/ux_device_stack_control_request_process.c ****             /* This request is to be handled by the class layer.  */
 144:Middlewares/ST/usbx/common/core/src/ux_device_stack_control_request_process.c ****             request_type &=  (UINT)~UX_REQUEST_TYPE;
 145:Middlewares/ST/usbx/common/core/src/ux_device_stack_control_request_process.c ****             request_type |= UX_REQUEST_TYPE_CLASS;
 146:Middlewares/ST/usbx/common/core/src/ux_device_stack_control_request_process.c ****         }                   
 147:Middlewares/ST/usbx/common/core/src/ux_device_stack_control_request_process.c **** 
 148:Middlewares/ST/usbx/common/core/src/ux_device_stack_control_request_process.c ****         /* Check if there is a vendor registered function at the application layer.  If the request
 149:Middlewares/ST/usbx/common/core/src/ux_device_stack_control_request_process.c ****            is VENDOR and the request match, pass the request to the application.  */
ARM GAS  C:\usertemp\ccRvQQdV.s 			page 5


 150:Middlewares/ST/usbx/common/core/src/ux_device_stack_control_request_process.c ****         if ((request_type & UX_REQUEST_TYPE) == UX_REQUEST_TYPE_VENDOR)
 151:Middlewares/ST/usbx/common/core/src/ux_device_stack_control_request_process.c ****         {
 152:Middlewares/ST/usbx/common/core/src/ux_device_stack_control_request_process.c **** 
 153:Middlewares/ST/usbx/common/core/src/ux_device_stack_control_request_process.c ****             /* Check the request demanded and compare it to the application registered one.  */
 154:Middlewares/ST/usbx/common/core/src/ux_device_stack_control_request_process.c ****             if (_ux_system_slave -> ux_system_slave_device_vendor_request_function != UX_NULL &&
 155:Middlewares/ST/usbx/common/core/src/ux_device_stack_control_request_process.c ****                 request == _ux_system_slave -> ux_system_slave_device_vendor_request)
 156:Middlewares/ST/usbx/common/core/src/ux_device_stack_control_request_process.c ****             {
 157:Middlewares/ST/usbx/common/core/src/ux_device_stack_control_request_process.c **** 
 158:Middlewares/ST/usbx/common/core/src/ux_device_stack_control_request_process.c ****                 /* This is a Microsoft extended function. It happens before the device is configure
 159:Middlewares/ST/usbx/common/core/src/ux_device_stack_control_request_process.c ****                    The request is passed to the application directly.  */
 160:Middlewares/ST/usbx/common/core/src/ux_device_stack_control_request_process.c ****                 application_data_length = UX_SLAVE_REQUEST_CONTROL_MAX_LENGTH;
 161:Middlewares/ST/usbx/common/core/src/ux_device_stack_control_request_process.c ****                 status = _ux_system_slave -> ux_system_slave_device_vendor_request_function(request
 162:Middlewares/ST/usbx/common/core/src/ux_device_stack_control_request_process.c ****                                                                                             request
 163:Middlewares/ST/usbx/common/core/src/ux_device_stack_control_request_process.c ****                                                                                             transfe
 164:Middlewares/ST/usbx/common/core/src/ux_device_stack_control_request_process.c ****                                                                                             &applic
 165:Middlewares/ST/usbx/common/core/src/ux_device_stack_control_request_process.c **** 
 166:Middlewares/ST/usbx/common/core/src/ux_device_stack_control_request_process.c ****                 /* Check the status from the application.  */
 167:Middlewares/ST/usbx/common/core/src/ux_device_stack_control_request_process.c ****                 if (status == UX_SUCCESS)
 168:Middlewares/ST/usbx/common/core/src/ux_device_stack_control_request_process.c ****                 {
 169:Middlewares/ST/usbx/common/core/src/ux_device_stack_control_request_process.c ****                 
 170:Middlewares/ST/usbx/common/core/src/ux_device_stack_control_request_process.c ****                     /* Get the control endpoint associated with the device.  */
 171:Middlewares/ST/usbx/common/core/src/ux_device_stack_control_request_process.c ****                     endpoint =  &device -> ux_slave_device_control_endpoint;
 172:Middlewares/ST/usbx/common/core/src/ux_device_stack_control_request_process.c ****     
 173:Middlewares/ST/usbx/common/core/src/ux_device_stack_control_request_process.c ****                     /* Get the pointer to the transfer request associated with the control endpoint
 174:Middlewares/ST/usbx/common/core/src/ux_device_stack_control_request_process.c ****                     transfer_request =  &endpoint -> ux_slave_endpoint_transfer_request;
 175:Middlewares/ST/usbx/common/core/src/ux_device_stack_control_request_process.c ****     
 176:Middlewares/ST/usbx/common/core/src/ux_device_stack_control_request_process.c ****                     /* Set the direction to OUT.  */
 177:Middlewares/ST/usbx/common/core/src/ux_device_stack_control_request_process.c ****                     transfer_request -> ux_slave_transfer_request_phase =  UX_TRANSFER_PHASE_DATA_O
 178:Middlewares/ST/usbx/common/core/src/ux_device_stack_control_request_process.c **** 
 179:Middlewares/ST/usbx/common/core/src/ux_device_stack_control_request_process.c ****                     /* Perform the data transfer.  */
 180:Middlewares/ST/usbx/common/core/src/ux_device_stack_control_request_process.c ****                     _ux_device_stack_transfer_request(transfer_request, application_data_length, re
 181:Middlewares/ST/usbx/common/core/src/ux_device_stack_control_request_process.c **** 
 182:Middlewares/ST/usbx/common/core/src/ux_device_stack_control_request_process.c ****                     /* We are done here.  */
 183:Middlewares/ST/usbx/common/core/src/ux_device_stack_control_request_process.c ****                     return(UX_SUCCESS);
 184:Middlewares/ST/usbx/common/core/src/ux_device_stack_control_request_process.c ****                 }
 185:Middlewares/ST/usbx/common/core/src/ux_device_stack_control_request_process.c ****                 else
 186:Middlewares/ST/usbx/common/core/src/ux_device_stack_control_request_process.c ****                 {
 187:Middlewares/ST/usbx/common/core/src/ux_device_stack_control_request_process.c **** 
 188:Middlewares/ST/usbx/common/core/src/ux_device_stack_control_request_process.c ****                     /* The application did not like the vendor command format, stall the control en
 189:Middlewares/ST/usbx/common/core/src/ux_device_stack_control_request_process.c ****                     _ux_device_stack_endpoint_stall(&device -> ux_slave_device_control_endpoint);
 190:Middlewares/ST/usbx/common/core/src/ux_device_stack_control_request_process.c ****                     
 191:Middlewares/ST/usbx/common/core/src/ux_device_stack_control_request_process.c ****                     /* We are done here.  */
 192:Middlewares/ST/usbx/common/core/src/ux_device_stack_control_request_process.c ****                     return(UX_SUCCESS);
 193:Middlewares/ST/usbx/common/core/src/ux_device_stack_control_request_process.c ****                 }
 194:Middlewares/ST/usbx/common/core/src/ux_device_stack_control_request_process.c ****             }
 195:Middlewares/ST/usbx/common/core/src/ux_device_stack_control_request_process.c ****         }
 196:Middlewares/ST/usbx/common/core/src/ux_device_stack_control_request_process.c **** 
 197:Middlewares/ST/usbx/common/core/src/ux_device_stack_control_request_process.c ****         /* Check the destination of the request. If the request is of type CLASS or VENDOR_SPECIFIC
 198:Middlewares/ST/usbx/common/core/src/ux_device_stack_control_request_process.c ****            the function has to be passed to the class layer.  */
 199:Middlewares/ST/usbx/common/core/src/ux_device_stack_control_request_process.c ****         if (((request_type & UX_REQUEST_TYPE) == UX_REQUEST_TYPE_CLASS) ||
 200:Middlewares/ST/usbx/common/core/src/ux_device_stack_control_request_process.c ****             ((request_type & UX_REQUEST_TYPE) == UX_REQUEST_TYPE_VENDOR))
 201:Middlewares/ST/usbx/common/core/src/ux_device_stack_control_request_process.c ****         {
 202:Middlewares/ST/usbx/common/core/src/ux_device_stack_control_request_process.c **** 
 203:Middlewares/ST/usbx/common/core/src/ux_device_stack_control_request_process.c ****             /* Build all the fields of the Class Command.  */
 204:Middlewares/ST/usbx/common/core/src/ux_device_stack_control_request_process.c ****             class_command.ux_slave_class_command_request =  UX_SLAVE_CLASS_COMMAND_REQUEST;
 205:Middlewares/ST/usbx/common/core/src/ux_device_stack_control_request_process.c **** 
 206:Middlewares/ST/usbx/common/core/src/ux_device_stack_control_request_process.c ****             /* We need to find which class this request is for.  */
ARM GAS  C:\usertemp\ccRvQQdV.s 			page 6


 207:Middlewares/ST/usbx/common/core/src/ux_device_stack_control_request_process.c ****             for (class_index = 0; class_index < UX_MAX_SLAVE_INTERFACES; class_index ++)
 208:Middlewares/ST/usbx/common/core/src/ux_device_stack_control_request_process.c ****             {
 209:Middlewares/ST/usbx/common/core/src/ux_device_stack_control_request_process.c **** 
 210:Middlewares/ST/usbx/common/core/src/ux_device_stack_control_request_process.c ****                 /* Get the class for the interface.  */
 211:Middlewares/ST/usbx/common/core/src/ux_device_stack_control_request_process.c ****                 class_ptr =  _ux_system_slave -> ux_system_slave_interface_class_array[class_index]
 212:Middlewares/ST/usbx/common/core/src/ux_device_stack_control_request_process.c **** 
 213:Middlewares/ST/usbx/common/core/src/ux_device_stack_control_request_process.c ****                 /* If class is not ready, try next.  */
 214:Middlewares/ST/usbx/common/core/src/ux_device_stack_control_request_process.c ****                 if (class_ptr == UX_NULL)
 215:Middlewares/ST/usbx/common/core/src/ux_device_stack_control_request_process.c ****                     continue;
 216:Middlewares/ST/usbx/common/core/src/ux_device_stack_control_request_process.c **** 
 217:Middlewares/ST/usbx/common/core/src/ux_device_stack_control_request_process.c ****                 /* Is the request target to an interface?  */
 218:Middlewares/ST/usbx/common/core/src/ux_device_stack_control_request_process.c ****                 if ((request_type & UX_REQUEST_TARGET) == UX_REQUEST_TARGET_INTERFACE)
 219:Middlewares/ST/usbx/common/core/src/ux_device_stack_control_request_process.c ****                 {
 220:Middlewares/ST/usbx/common/core/src/ux_device_stack_control_request_process.c **** 
 221:Middlewares/ST/usbx/common/core/src/ux_device_stack_control_request_process.c ****                     /* Yes, so the request index contains the index of the interface 
 222:Middlewares/ST/usbx/common/core/src/ux_device_stack_control_request_process.c ****                        the request is for. So if the current index does not match 
 223:Middlewares/ST/usbx/common/core/src/ux_device_stack_control_request_process.c ****                        the request index, we should go to the next one.  */
 224:Middlewares/ST/usbx/common/core/src/ux_device_stack_control_request_process.c ****                     /* For printer class (0x07) GET_DEVICE_ID (0x00) the high byte of 
 225:Middlewares/ST/usbx/common/core/src/ux_device_stack_control_request_process.c ****                        wIndex is interface index (for recommended index sequence the interface
 226:Middlewares/ST/usbx/common/core/src/ux_device_stack_control_request_process.c ****                        number is same as interface index inside configuration).
 227:Middlewares/ST/usbx/common/core/src/ux_device_stack_control_request_process.c ****                      */
 228:Middlewares/ST/usbx/common/core/src/ux_device_stack_control_request_process.c ****                     if ((request_type == 0xA1) && (request == 0x00) &&
 229:Middlewares/ST/usbx/common/core/src/ux_device_stack_control_request_process.c ****                         (class_ptr -> ux_slave_class_interface -> ux_slave_interface_descriptor.bIn
 230:Middlewares/ST/usbx/common/core/src/ux_device_stack_control_request_process.c ****                     {
 231:Middlewares/ST/usbx/common/core/src/ux_device_stack_control_request_process.c **** 
 232:Middlewares/ST/usbx/common/core/src/ux_device_stack_control_request_process.c ****                         /* Check wIndex high byte.  */
 233:Middlewares/ST/usbx/common/core/src/ux_device_stack_control_request_process.c ****                         if(*(transfer_request -> ux_slave_transfer_request_setup + UX_SETUP_INDEX +
 234:Middlewares/ST/usbx/common/core/src/ux_device_stack_control_request_process.c ****                             continue;
 235:Middlewares/ST/usbx/common/core/src/ux_device_stack_control_request_process.c ****                     }
 236:Middlewares/ST/usbx/common/core/src/ux_device_stack_control_request_process.c ****                     else
 237:Middlewares/ST/usbx/common/core/src/ux_device_stack_control_request_process.c ****                     {
 238:Middlewares/ST/usbx/common/core/src/ux_device_stack_control_request_process.c **** 
 239:Middlewares/ST/usbx/common/core/src/ux_device_stack_control_request_process.c ****                         /* Check wIndex low.  */
 240:Middlewares/ST/usbx/common/core/src/ux_device_stack_control_request_process.c ****                         if ((request_index & 0xFF) != class_index)
 241:Middlewares/ST/usbx/common/core/src/ux_device_stack_control_request_process.c ****                             continue;
 242:Middlewares/ST/usbx/common/core/src/ux_device_stack_control_request_process.c ****                     }
 243:Middlewares/ST/usbx/common/core/src/ux_device_stack_control_request_process.c ****                 }
 244:Middlewares/ST/usbx/common/core/src/ux_device_stack_control_request_process.c **** 
 245:Middlewares/ST/usbx/common/core/src/ux_device_stack_control_request_process.c ****                 /* Memorize the class in the command.  */
 246:Middlewares/ST/usbx/common/core/src/ux_device_stack_control_request_process.c ****                 class_command.ux_slave_class_command_class_ptr = class_ptr;
 247:Middlewares/ST/usbx/common/core/src/ux_device_stack_control_request_process.c **** 
 248:Middlewares/ST/usbx/common/core/src/ux_device_stack_control_request_process.c ****                 /* We have found a potential candidate. Call this registered class entry function. 
 249:Middlewares/ST/usbx/common/core/src/ux_device_stack_control_request_process.c ****                 status = class_ptr -> ux_slave_class_entry_function(&class_command);
 250:Middlewares/ST/usbx/common/core/src/ux_device_stack_control_request_process.c **** 
 251:Middlewares/ST/usbx/common/core/src/ux_device_stack_control_request_process.c ****                 /* The status simply tells us if the registered class handled the 
 252:Middlewares/ST/usbx/common/core/src/ux_device_stack_control_request_process.c ****                    command - if there was an issue processing the command, it would've 
 253:Middlewares/ST/usbx/common/core/src/ux_device_stack_control_request_process.c ****                    stalled the control endpoint, notifying the host (and not us).  */
 254:Middlewares/ST/usbx/common/core/src/ux_device_stack_control_request_process.c ****                 if (status == UX_SUCCESS)
 255:Middlewares/ST/usbx/common/core/src/ux_device_stack_control_request_process.c **** 
 256:Middlewares/ST/usbx/common/core/src/ux_device_stack_control_request_process.c ****                     /* We are done, break the loop!  */
 257:Middlewares/ST/usbx/common/core/src/ux_device_stack_control_request_process.c ****                     break;
 258:Middlewares/ST/usbx/common/core/src/ux_device_stack_control_request_process.c **** 
 259:Middlewares/ST/usbx/common/core/src/ux_device_stack_control_request_process.c ****                 /* Not handled, try next.  */
 260:Middlewares/ST/usbx/common/core/src/ux_device_stack_control_request_process.c ****             }
 261:Middlewares/ST/usbx/common/core/src/ux_device_stack_control_request_process.c **** 
 262:Middlewares/ST/usbx/common/core/src/ux_device_stack_control_request_process.c ****             /* If no class handled the command, then we have an error here.  */
 263:Middlewares/ST/usbx/common/core/src/ux_device_stack_control_request_process.c ****             if (status != UX_SUCCESS)
ARM GAS  C:\usertemp\ccRvQQdV.s 			page 7


 264:Middlewares/ST/usbx/common/core/src/ux_device_stack_control_request_process.c **** 
 265:Middlewares/ST/usbx/common/core/src/ux_device_stack_control_request_process.c ****                 /* We stall the command (request not supported).  */
 266:Middlewares/ST/usbx/common/core/src/ux_device_stack_control_request_process.c ****                 _ux_device_stack_endpoint_stall(&device -> ux_slave_device_control_endpoint);
 267:Middlewares/ST/usbx/common/core/src/ux_device_stack_control_request_process.c **** 
 268:Middlewares/ST/usbx/common/core/src/ux_device_stack_control_request_process.c ****             /* We are done for class/vendor request.  */
 269:Middlewares/ST/usbx/common/core/src/ux_device_stack_control_request_process.c ****             return(status);
 270:Middlewares/ST/usbx/common/core/src/ux_device_stack_control_request_process.c ****         }
 271:Middlewares/ST/usbx/common/core/src/ux_device_stack_control_request_process.c **** 
 272:Middlewares/ST/usbx/common/core/src/ux_device_stack_control_request_process.c ****         /* At this point, the request must be a standard request that the device stack should handl
 273:Middlewares/ST/usbx/common/core/src/ux_device_stack_control_request_process.c ****         switch (request)
 274:Middlewares/ST/usbx/common/core/src/ux_device_stack_control_request_process.c ****         {
 275:Middlewares/ST/usbx/common/core/src/ux_device_stack_control_request_process.c **** 
 276:Middlewares/ST/usbx/common/core/src/ux_device_stack_control_request_process.c ****         case UX_GET_STATUS:
 277:Middlewares/ST/usbx/common/core/src/ux_device_stack_control_request_process.c **** 
 278:Middlewares/ST/usbx/common/core/src/ux_device_stack_control_request_process.c ****             status =  _ux_device_stack_get_status(request_type, request_index, request_length);
 279:Middlewares/ST/usbx/common/core/src/ux_device_stack_control_request_process.c ****             break;
 280:Middlewares/ST/usbx/common/core/src/ux_device_stack_control_request_process.c **** 
 281:Middlewares/ST/usbx/common/core/src/ux_device_stack_control_request_process.c ****         case UX_CLEAR_FEATURE:
 282:Middlewares/ST/usbx/common/core/src/ux_device_stack_control_request_process.c **** 
 283:Middlewares/ST/usbx/common/core/src/ux_device_stack_control_request_process.c ****             status =  _ux_device_stack_clear_feature(request_type, request_value, request_index);
 284:Middlewares/ST/usbx/common/core/src/ux_device_stack_control_request_process.c ****             break;
 285:Middlewares/ST/usbx/common/core/src/ux_device_stack_control_request_process.c **** 
 286:Middlewares/ST/usbx/common/core/src/ux_device_stack_control_request_process.c ****         case UX_SET_FEATURE:
 287:Middlewares/ST/usbx/common/core/src/ux_device_stack_control_request_process.c **** 
 288:Middlewares/ST/usbx/common/core/src/ux_device_stack_control_request_process.c ****             status =  _ux_device_stack_set_feature(request_type, request_value, request_index);
 289:Middlewares/ST/usbx/common/core/src/ux_device_stack_control_request_process.c ****             break;
 290:Middlewares/ST/usbx/common/core/src/ux_device_stack_control_request_process.c **** 
 291:Middlewares/ST/usbx/common/core/src/ux_device_stack_control_request_process.c ****         case UX_SET_ADDRESS:
 292:Middlewares/ST/usbx/common/core/src/ux_device_stack_control_request_process.c ****         
 293:Middlewares/ST/usbx/common/core/src/ux_device_stack_control_request_process.c ****             /* Memorize the address. Some controllers memorize the address here. Some don't.  */
 294:Middlewares/ST/usbx/common/core/src/ux_device_stack_control_request_process.c ****             dcd -> ux_slave_dcd_device_address =  request_value;
 295:Middlewares/ST/usbx/common/core/src/ux_device_stack_control_request_process.c **** 
 296:Middlewares/ST/usbx/common/core/src/ux_device_stack_control_request_process.c ****             /* Force the new address.  */
 297:Middlewares/ST/usbx/common/core/src/ux_device_stack_control_request_process.c ****             status =  dcd -> ux_slave_dcd_function(dcd, UX_DCD_SET_DEVICE_ADDRESS, (VOID *) (ALIGN_
 298:Middlewares/ST/usbx/common/core/src/ux_device_stack_control_request_process.c ****             break;
 299:Middlewares/ST/usbx/common/core/src/ux_device_stack_control_request_process.c **** 
 300:Middlewares/ST/usbx/common/core/src/ux_device_stack_control_request_process.c ****         case UX_GET_DESCRIPTOR:
 301:Middlewares/ST/usbx/common/core/src/ux_device_stack_control_request_process.c **** 
 302:Middlewares/ST/usbx/common/core/src/ux_device_stack_control_request_process.c ****             status =  _ux_device_stack_descriptor_send(request_value, request_index, request_length
 303:Middlewares/ST/usbx/common/core/src/ux_device_stack_control_request_process.c ****             break;
 304:Middlewares/ST/usbx/common/core/src/ux_device_stack_control_request_process.c **** 
 305:Middlewares/ST/usbx/common/core/src/ux_device_stack_control_request_process.c ****         case UX_SET_DESCRIPTOR:
 306:Middlewares/ST/usbx/common/core/src/ux_device_stack_control_request_process.c **** 
 307:Middlewares/ST/usbx/common/core/src/ux_device_stack_control_request_process.c ****             status = UX_FUNCTION_NOT_SUPPORTED;
 308:Middlewares/ST/usbx/common/core/src/ux_device_stack_control_request_process.c ****             break;
 309:Middlewares/ST/usbx/common/core/src/ux_device_stack_control_request_process.c **** 
 310:Middlewares/ST/usbx/common/core/src/ux_device_stack_control_request_process.c ****         case UX_GET_CONFIGURATION:
 311:Middlewares/ST/usbx/common/core/src/ux_device_stack_control_request_process.c **** 
 312:Middlewares/ST/usbx/common/core/src/ux_device_stack_control_request_process.c ****             status =  _ux_device_stack_configuration_get();
 313:Middlewares/ST/usbx/common/core/src/ux_device_stack_control_request_process.c ****             break;
 314:Middlewares/ST/usbx/common/core/src/ux_device_stack_control_request_process.c **** 
 315:Middlewares/ST/usbx/common/core/src/ux_device_stack_control_request_process.c ****         case UX_SET_CONFIGURATION:
 316:Middlewares/ST/usbx/common/core/src/ux_device_stack_control_request_process.c **** 
 317:Middlewares/ST/usbx/common/core/src/ux_device_stack_control_request_process.c ****             status =  _ux_device_stack_configuration_set(request_value);
 318:Middlewares/ST/usbx/common/core/src/ux_device_stack_control_request_process.c ****             break;
 319:Middlewares/ST/usbx/common/core/src/ux_device_stack_control_request_process.c **** 
 320:Middlewares/ST/usbx/common/core/src/ux_device_stack_control_request_process.c ****         case UX_GET_INTERFACE:
ARM GAS  C:\usertemp\ccRvQQdV.s 			page 8


 321:Middlewares/ST/usbx/common/core/src/ux_device_stack_control_request_process.c **** 
 322:Middlewares/ST/usbx/common/core/src/ux_device_stack_control_request_process.c ****             status =  _ux_device_stack_alternate_setting_get(request_index);
 323:Middlewares/ST/usbx/common/core/src/ux_device_stack_control_request_process.c ****             break;
 324:Middlewares/ST/usbx/common/core/src/ux_device_stack_control_request_process.c ****                 
 325:Middlewares/ST/usbx/common/core/src/ux_device_stack_control_request_process.c ****         case UX_SET_INTERFACE:
 326:Middlewares/ST/usbx/common/core/src/ux_device_stack_control_request_process.c **** 
 327:Middlewares/ST/usbx/common/core/src/ux_device_stack_control_request_process.c ****             status =  _ux_device_stack_alternate_setting_set(request_index,request_value);
 328:Middlewares/ST/usbx/common/core/src/ux_device_stack_control_request_process.c ****             break;
 329:Middlewares/ST/usbx/common/core/src/ux_device_stack_control_request_process.c ****                 
 330:Middlewares/ST/usbx/common/core/src/ux_device_stack_control_request_process.c **** 
 331:Middlewares/ST/usbx/common/core/src/ux_device_stack_control_request_process.c ****         case UX_SYNCH_FRAME:
 332:Middlewares/ST/usbx/common/core/src/ux_device_stack_control_request_process.c **** 
 333:Middlewares/ST/usbx/common/core/src/ux_device_stack_control_request_process.c ****             status = UX_SUCCESS;
 334:Middlewares/ST/usbx/common/core/src/ux_device_stack_control_request_process.c ****             break;
 335:Middlewares/ST/usbx/common/core/src/ux_device_stack_control_request_process.c **** 
 336:Middlewares/ST/usbx/common/core/src/ux_device_stack_control_request_process.c ****         default :
 337:Middlewares/ST/usbx/common/core/src/ux_device_stack_control_request_process.c **** 
 338:Middlewares/ST/usbx/common/core/src/ux_device_stack_control_request_process.c ****             status = UX_FUNCTION_NOT_SUPPORTED;
 339:Middlewares/ST/usbx/common/core/src/ux_device_stack_control_request_process.c ****             break;
 340:Middlewares/ST/usbx/common/core/src/ux_device_stack_control_request_process.c ****         }
 341:Middlewares/ST/usbx/common/core/src/ux_device_stack_control_request_process.c **** 
 342:Middlewares/ST/usbx/common/core/src/ux_device_stack_control_request_process.c ****         if (status != UX_SUCCESS)
 343:Middlewares/ST/usbx/common/core/src/ux_device_stack_control_request_process.c **** 
 344:Middlewares/ST/usbx/common/core/src/ux_device_stack_control_request_process.c ****             /* Stall the control endpoint to issue protocol error. */
 345:Middlewares/ST/usbx/common/core/src/ux_device_stack_control_request_process.c ****             _ux_device_stack_endpoint_stall(&device -> ux_slave_device_control_endpoint);
 346:Middlewares/ST/usbx/common/core/src/ux_device_stack_control_request_process.c ****     }
 347:Middlewares/ST/usbx/common/core/src/ux_device_stack_control_request_process.c **** 
 348:Middlewares/ST/usbx/common/core/src/ux_device_stack_control_request_process.c ****     /* Return the function status.  */
 349:Middlewares/ST/usbx/common/core/src/ux_device_stack_control_request_process.c ****     return(status);
 350:Middlewares/ST/usbx/common/core/src/ux_device_stack_control_request_process.c **** }
  80              		.loc 1 350 1 view .LVU22
  81 0014 4046     		mov	r0, r8
  82 0016 0FB0     		add	sp, sp, #60
  83              	.LCFI2:
  84              		.cfi_remember_state
  85              		.cfi_def_cfa_offset 36
  86              		@ sp needed
  87 0018 BDE8F08F 		pop	{r4, r5, r6, r7, r8, r9, r10, fp, pc}
  88              	.LVL4:
  89              	.L31:
  90              	.LCFI3:
  91              		.cfi_restore_state
  92              		.loc 1 350 1 view .LVU23
  93 001c 0546     		mov	r5, r0
 132:Middlewares/ST/usbx/common/core/src/ux_device_stack_control_request_process.c ****         request        =   *(transfer_request -> ux_slave_transfer_request_setup + UX_SETUP_REQUEST
  94              		.loc 1 132 9 is_stmt 1 view .LVU24
 132:Middlewares/ST/usbx/common/core/src/ux_device_stack_control_request_process.c ****         request        =   *(transfer_request -> ux_slave_transfer_request_setup + UX_SETUP_REQUEST
  95              		.loc 1 132 28 is_stmt 0 view .LVU25
  96 001e 90F85460 		ldrb	r6, [r0, #84]	@ zero_extendqisi2
  97              	.LVL5:
 133:Middlewares/ST/usbx/common/core/src/ux_device_stack_control_request_process.c ****         request_value  =   _ux_utility_short_get(transfer_request -> ux_slave_transfer_request_setu
  98              		.loc 1 133 9 is_stmt 1 view .LVU26
 133:Middlewares/ST/usbx/common/core/src/ux_device_stack_control_request_process.c ****         request_value  =   _ux_utility_short_get(transfer_request -> ux_slave_transfer_request_setu
  99              		.loc 1 133 28 is_stmt 0 view .LVU27
 100 0022 90F85590 		ldrb	r9, [r0, #85]	@ zero_extendqisi2
 101              	.LVL6:
 134:Middlewares/ST/usbx/common/core/src/ux_device_stack_control_request_process.c ****         request_index  =   _ux_utility_short_get(transfer_request -> ux_slave_transfer_request_setu
ARM GAS  C:\usertemp\ccRvQQdV.s 			page 9


 102              		.loc 1 134 9 is_stmt 1 view .LVU28
 134:Middlewares/ST/usbx/common/core/src/ux_device_stack_control_request_process.c ****         request_index  =   _ux_utility_short_get(transfer_request -> ux_slave_transfer_request_setu
 103              		.loc 1 134 28 is_stmt 0 view .LVU29
 104 0026 5630     		adds	r0, r0, #86
 105              	.LVL7:
 134:Middlewares/ST/usbx/common/core/src/ux_device_stack_control_request_process.c ****         request_index  =   _ux_utility_short_get(transfer_request -> ux_slave_transfer_request_setu
 106              		.loc 1 134 28 view .LVU30
 107 0028 FFF7FEFF 		bl	_ux_utility_short_get
 108              	.LVL8:
 109 002c 8046     		mov	r8, r0
 110              	.LVL9:
 135:Middlewares/ST/usbx/common/core/src/ux_device_stack_control_request_process.c ****         request_length =   _ux_utility_short_get(transfer_request -> ux_slave_transfer_request_setu
 111              		.loc 1 135 9 is_stmt 1 view .LVU31
 135:Middlewares/ST/usbx/common/core/src/ux_device_stack_control_request_process.c ****         request_length =   _ux_utility_short_get(transfer_request -> ux_slave_transfer_request_setu
 112              		.loc 1 135 28 is_stmt 0 view .LVU32
 113 002e 05F15800 		add	r0, r5, #88
 114              	.LVL10:
 135:Middlewares/ST/usbx/common/core/src/ux_device_stack_control_request_process.c ****         request_length =   _ux_utility_short_get(transfer_request -> ux_slave_transfer_request_setu
 115              		.loc 1 135 28 view .LVU33
 116 0032 FFF7FEFF 		bl	_ux_utility_short_get
 117              	.LVL11:
 118 0036 0746     		mov	r7, r0
 119              	.LVL12:
 136:Middlewares/ST/usbx/common/core/src/ux_device_stack_control_request_process.c **** 
 120              		.loc 1 136 9 is_stmt 1 view .LVU34
 136:Middlewares/ST/usbx/common/core/src/ux_device_stack_control_request_process.c **** 
 121              		.loc 1 136 28 is_stmt 0 view .LVU35
 122 0038 05F15A00 		add	r0, r5, #90
 123              	.LVL13:
 136:Middlewares/ST/usbx/common/core/src/ux_device_stack_control_request_process.c **** 
 124              		.loc 1 136 28 view .LVU36
 125 003c FFF7FEFF 		bl	_ux_utility_short_get
 126              	.LVL14:
 127 0040 0146     		mov	r1, r0
 128              	.LVL15:
 140:Middlewares/ST/usbx/common/core/src/ux_device_stack_control_request_process.c ****         {        
 129              		.loc 1 140 9 is_stmt 1 view .LVU37
 140:Middlewares/ST/usbx/common/core/src/ux_device_stack_control_request_process.c ****         {        
 130              		.loc 1 140 43 is_stmt 0 view .LVU38
 131 0042 A9F10603 		sub	r3, r9, #6
 140:Middlewares/ST/usbx/common/core/src/ux_device_stack_control_request_process.c ****         {        
 132              		.loc 1 140 12 view .LVU39
 133 0046 012B     		cmp	r3, #1
 134 0048 14D9     		bls	.L32
 135              	.L3:
 150:Middlewares/ST/usbx/common/core/src/ux_device_stack_control_request_process.c ****         {
 136              		.loc 1 150 9 is_stmt 1 view .LVU40
 150:Middlewares/ST/usbx/common/core/src/ux_device_stack_control_request_process.c ****         {
 137              		.loc 1 150 27 is_stmt 0 view .LVU41
 138 004a 06F06003 		and	r3, r6, #96
 150:Middlewares/ST/usbx/common/core/src/ux_device_stack_control_request_process.c ****         {
 139              		.loc 1 150 12 view .LVU42
 140 004e 402B     		cmp	r3, #64
 141 0050 18D0     		beq	.L33
 142              	.L4:
 199:Middlewares/ST/usbx/common/core/src/ux_device_stack_control_request_process.c ****             ((request_type & UX_REQUEST_TYPE) == UX_REQUEST_TYPE_VENDOR))
 143              		.loc 1 199 9 is_stmt 1 view .LVU43
ARM GAS  C:\usertemp\ccRvQQdV.s 			page 10


 199:Middlewares/ST/usbx/common/core/src/ux_device_stack_control_request_process.c ****             ((request_type & UX_REQUEST_TYPE) == UX_REQUEST_TYPE_VENDOR))
 144              		.loc 1 199 12 is_stmt 0 view .LVU44
 145 0052 202B     		cmp	r3, #32
 146 0054 40D0     		beq	.L6
 199:Middlewares/ST/usbx/common/core/src/ux_device_stack_control_request_process.c ****             ((request_type & UX_REQUEST_TYPE) == UX_REQUEST_TYPE_VENDOR))
 147              		.loc 1 199 73 discriminator 1 view .LVU45
 148 0056 402B     		cmp	r3, #64
 149 0058 3ED0     		beq	.L6
 273:Middlewares/ST/usbx/common/core/src/ux_device_stack_control_request_process.c ****         {
 150              		.loc 1 273 9 is_stmt 1 view .LVU46
 151 005a B9F10C0F 		cmp	r9, #12
 152 005e 00F2B380 		bhi	.L28
 153 0062 DFE809F0 		tbb	[pc, r9]
 154              	.L16:
 155 0066 6F       		.byte	(.L25-.L16)/2
 156 0067 7E       		.byte	(.L24-.L16)/2
 157 0068 B1       		.byte	(.L28-.L16)/2
 158 0069 85       		.byte	(.L23-.L16)/2
 159 006a B1       		.byte	(.L28-.L16)/2
 160 006b 8C       		.byte	(.L22-.L16)/2
 161 006c 96       		.byte	(.L21-.L16)/2
 162 006d B1       		.byte	(.L28-.L16)/2
 163 006e 9D       		.byte	(.L20-.L16)/2
 164 006f A1       		.byte	(.L19-.L16)/2
 165 0070 A6       		.byte	(.L18-.L16)/2
 166 0071 AB       		.byte	(.L17-.L16)/2
 167 0072 B4       		.byte	(.L29-.L16)/2
 168 0073 00       		.p2align 1
 169              	.L32:
 140:Middlewares/ST/usbx/common/core/src/ux_device_stack_control_request_process.c ****         {        
 170              		.loc 1 140 76 is_stmt 0 discriminator 1 view .LVU47
 171 0074 18F4C04F 		tst	r8, #24576
 172 0078 E7D0     		beq	.L3
 144:Middlewares/ST/usbx/common/core/src/ux_device_stack_control_request_process.c ****             request_type |= UX_REQUEST_TYPE_CLASS;
 173              		.loc 1 144 13 is_stmt 1 view .LVU48
 144:Middlewares/ST/usbx/common/core/src/ux_device_stack_control_request_process.c ****             request_type |= UX_REQUEST_TYPE_CLASS;
 174              		.loc 1 144 26 is_stmt 0 view .LVU49
 175 007a 26F06006 		bic	r6, r6, #96
 176              	.LVL16:
 145:Middlewares/ST/usbx/common/core/src/ux_device_stack_control_request_process.c ****         }                   
 177              		.loc 1 145 13 is_stmt 1 view .LVU50
 145:Middlewares/ST/usbx/common/core/src/ux_device_stack_control_request_process.c ****         }                   
 178              		.loc 1 145 26 is_stmt 0 view .LVU51
 179 007e 46F02006 		orr	r6, r6, #32
 180              	.LVL17:
 145:Middlewares/ST/usbx/common/core/src/ux_device_stack_control_request_process.c ****         }                   
 181              		.loc 1 145 26 view .LVU52
 182 0082 E2E7     		b	.L3
 183              	.L33:
 154:Middlewares/ST/usbx/common/core/src/ux_device_stack_control_request_process.c ****                 request == _ux_system_slave -> ux_system_slave_device_vendor_request)
 184              		.loc 1 154 13 is_stmt 1 view .LVU53
 154:Middlewares/ST/usbx/common/core/src/ux_device_stack_control_request_process.c ****                 request == _ux_system_slave -> ux_system_slave_device_vendor_request)
 185              		.loc 1 154 34 is_stmt 0 view .LVU54
 186 0084 534A     		ldr	r2, .L35
 187 0086 1268     		ldr	r2, [r2]
 188 0088 D2F880B1 		ldr	fp, [r2, #384]
 154:Middlewares/ST/usbx/common/core/src/ux_device_stack_control_request_process.c ****                 request == _ux_system_slave -> ux_system_slave_device_vendor_request)
ARM GAS  C:\usertemp\ccRvQQdV.s 			page 11


 189              		.loc 1 154 16 view .LVU55
 190 008c BBF1000F 		cmp	fp, #0
 191 0090 DFD0     		beq	.L4
 155:Middlewares/ST/usbx/common/core/src/ux_device_stack_control_request_process.c ****             {
 192              		.loc 1 155 45 view .LVU56
 193 0092 D2F87C21 		ldr	r2, [r2, #380]
 154:Middlewares/ST/usbx/common/core/src/ux_device_stack_control_request_process.c ****                 request == _ux_system_slave -> ux_system_slave_device_vendor_request)
 194              		.loc 1 154 95 discriminator 1 view .LVU57
 195 0096 4A45     		cmp	r2, r9
 196 0098 DBD1     		bne	.L4
 160:Middlewares/ST/usbx/common/core/src/ux_device_stack_control_request_process.c ****                 status = _ux_system_slave -> ux_system_slave_device_vendor_request_function(request
 197              		.loc 1 160 17 is_stmt 1 view .LVU58
 160:Middlewares/ST/usbx/common/core/src/ux_device_stack_control_request_process.c ****                 status = _ux_system_slave -> ux_system_slave_device_vendor_request_function(request
 198              		.loc 1 160 41 is_stmt 0 view .LVU59
 199 009a 4FF48073 		mov	r3, #256
 200 009e 0293     		str	r3, [sp, #8]
 161:Middlewares/ST/usbx/common/core/src/ux_device_stack_control_request_process.c ****                                                                                             request
 201              		.loc 1 161 17 is_stmt 1 view .LVU60
 161:Middlewares/ST/usbx/common/core/src/ux_device_stack_control_request_process.c ****                                                                                             request
 202              		.loc 1 161 26 is_stmt 0 view .LVU61
 203 00a0 02AB     		add	r3, sp, #8
 204 00a2 0193     		str	r3, [sp, #4]
 205 00a4 EB68     		ldr	r3, [r5, #12]
 206 00a6 0093     		str	r3, [sp]
 207 00a8 0D46     		mov	r5, r1
 208              	.LVL18:
 161:Middlewares/ST/usbx/common/core/src/ux_device_stack_control_request_process.c ****                                                                                             request
 209              		.loc 1 161 26 view .LVU62
 210 00aa 0B46     		mov	r3, r1
 211 00ac 3A46     		mov	r2, r7
 212 00ae 4146     		mov	r1, r8
 213 00b0 4846     		mov	r0, r9
 214              	.LVL19:
 161:Middlewares/ST/usbx/common/core/src/ux_device_stack_control_request_process.c ****                                                                                             request
 215              		.loc 1 161 26 view .LVU63
 216 00b2 D847     		blx	fp
 217              	.LVL20:
 167:Middlewares/ST/usbx/common/core/src/ux_device_stack_control_request_process.c ****                 {
 218              		.loc 1 167 17 is_stmt 1 view .LVU64
 167:Middlewares/ST/usbx/common/core/src/ux_device_stack_control_request_process.c ****                 {
 219              		.loc 1 167 20 is_stmt 0 view .LVU65
 220 00b4 8046     		mov	r8, r0
 221              	.LVL21:
 167:Middlewares/ST/usbx/common/core/src/ux_device_stack_control_request_process.c ****                 {
 222              		.loc 1 167 20 view .LVU66
 223 00b6 48B9     		cbnz	r0, .L5
 171:Middlewares/ST/usbx/common/core/src/ux_device_stack_control_request_process.c ****     
 224              		.loc 1 171 21 is_stmt 1 view .LVU67
 225              	.LVL22:
 174:Middlewares/ST/usbx/common/core/src/ux_device_stack_control_request_process.c ****     
 226              		.loc 1 174 21 view .LVU68
 177:Middlewares/ST/usbx/common/core/src/ux_device_stack_control_request_process.c **** 
 227              		.loc 1 177 21 view .LVU69
 177:Middlewares/ST/usbx/common/core/src/ux_device_stack_control_request_process.c **** 
 228              		.loc 1 177 73 is_stmt 0 view .LVU70
 229 00b8 0323     		movs	r3, #3
 230 00ba CAF88030 		str	r3, [r10, #128]
ARM GAS  C:\usertemp\ccRvQQdV.s 			page 12


 180:Middlewares/ST/usbx/common/core/src/ux_device_stack_control_request_process.c **** 
 231              		.loc 1 180 21 is_stmt 1 view .LVU71
 232 00be 2A46     		mov	r2, r5
 233 00c0 0299     		ldr	r1, [sp, #8]
 234 00c2 0AF15800 		add	r0, r10, #88
 235              	.LVL23:
 180:Middlewares/ST/usbx/common/core/src/ux_device_stack_control_request_process.c **** 
 236              		.loc 1 180 21 is_stmt 0 view .LVU72
 237 00c6 FFF7FEFF 		bl	_ux_device_stack_transfer_request
 238              	.LVL24:
 183:Middlewares/ST/usbx/common/core/src/ux_device_stack_control_request_process.c ****                 }
 239              		.loc 1 183 21 is_stmt 1 view .LVU73
 183:Middlewares/ST/usbx/common/core/src/ux_device_stack_control_request_process.c ****                 }
 240              		.loc 1 183 27 is_stmt 0 view .LVU74
 241 00ca A3E7     		b	.L1
 242              	.LVL25:
 243              	.L5:
 189:Middlewares/ST/usbx/common/core/src/ux_device_stack_control_request_process.c ****                     
 244              		.loc 1 189 21 is_stmt 1 view .LVU75
 245 00cc 0AF13800 		add	r0, r10, #56
 246              	.LVL26:
 189:Middlewares/ST/usbx/common/core/src/ux_device_stack_control_request_process.c ****                     
 247              		.loc 1 189 21 is_stmt 0 view .LVU76
 248 00d0 FFF7FEFF 		bl	_ux_device_stack_endpoint_stall
 249              	.LVL27:
 192:Middlewares/ST/usbx/common/core/src/ux_device_stack_control_request_process.c ****                 }
 250              		.loc 1 192 21 is_stmt 1 view .LVU77
 192:Middlewares/ST/usbx/common/core/src/ux_device_stack_control_request_process.c ****                 }
 251              		.loc 1 192 27 is_stmt 0 view .LVU78
 252 00d4 A046     		mov	r8, r4
 253              	.LVL28:
 192:Middlewares/ST/usbx/common/core/src/ux_device_stack_control_request_process.c ****                 }
 254              		.loc 1 192 27 view .LVU79
 255 00d6 9DE7     		b	.L1
 256              	.LVL29:
 257              	.L6:
 204:Middlewares/ST/usbx/common/core/src/ux_device_stack_control_request_process.c **** 
 258              		.loc 1 204 13 is_stmt 1 view .LVU80
 204:Middlewares/ST/usbx/common/core/src/ux_device_stack_control_request_process.c **** 
 259              		.loc 1 204 58 is_stmt 0 view .LVU81
 260 00d8 0423     		movs	r3, #4
 261 00da 0393     		str	r3, [sp, #12]
 207:Middlewares/ST/usbx/common/core/src/ux_device_stack_control_request_process.c ****             {
 262              		.loc 1 207 13 is_stmt 1 view .LVU82
 263              	.LVL30:
 116:Middlewares/ST/usbx/common/core/src/ux_device_stack_control_request_process.c **** UX_SLAVE_ENDPOINT           *endpoint;
 264              		.loc 1 116 29 is_stmt 0 view .LVU83
 265 00dc 4FF0FF08 		mov	r8, #255
 266              	.LVL31:
 207:Middlewares/ST/usbx/common/core/src/ux_device_stack_control_request_process.c ****             {
 267              		.loc 1 207 13 view .LVU84
 268 00e0 12E0     		b	.L8
 269              	.LVL32:
 270              	.L34:
 228:Middlewares/ST/usbx/common/core/src/ux_device_stack_control_request_process.c ****                         (class_ptr -> ux_slave_class_interface -> ux_slave_interface_descriptor.bIn
 271              		.loc 1 228 48 discriminator 1 view .LVU85
 272 00e2 B9F1000F 		cmp	r9, #0
ARM GAS  C:\usertemp\ccRvQQdV.s 			page 13


 273 00e6 20D1     		bne	.L11
 229:Middlewares/ST/usbx/common/core/src/ux_device_stack_control_request_process.c ****                     {
 274              		.loc 1 229 36 view .LVU86
 275 00e8 D3F81021 		ldr	r2, [r3, #272]
 229:Middlewares/ST/usbx/common/core/src/ux_device_stack_control_request_process.c ****                     {
 276              		.loc 1 229 96 view .LVU87
 277 00ec 527C     		ldrb	r2, [r2, #17]	@ zero_extendqisi2
 228:Middlewares/ST/usbx/common/core/src/ux_device_stack_control_request_process.c ****                         (class_ptr -> ux_slave_class_interface -> ux_slave_interface_descriptor.bIn
 278              		.loc 1 228 69 discriminator 2 view .LVU88
 279 00ee 072A     		cmp	r2, #7
 280 00f0 1BD1     		bne	.L11
 233:Middlewares/ST/usbx/common/core/src/ux_device_stack_control_request_process.c ****                             continue;
 281              		.loc 1 233 25 is_stmt 1 view .LVU89
 233:Middlewares/ST/usbx/common/core/src/ux_device_stack_control_request_process.c ****                             continue;
 282              		.loc 1 233 28 is_stmt 0 view .LVU90
 283 00f2 95F85920 		ldrb	r2, [r5, #89]	@ zero_extendqisi2
 233:Middlewares/ST/usbx/common/core/src/ux_device_stack_control_request_process.c ****                             continue;
 284              		.loc 1 233 27 view .LVU91
 285 00f6 A242     		cmp	r2, r4
 286 00f8 05D1     		bne	.L9
 287              	.L10:
 246:Middlewares/ST/usbx/common/core/src/ux_device_stack_control_request_process.c **** 
 288              		.loc 1 246 17 is_stmt 1 view .LVU92
 246:Middlewares/ST/usbx/common/core/src/ux_device_stack_control_request_process.c **** 
 289              		.loc 1 246 64 is_stmt 0 view .LVU93
 290 00fa 0B93     		str	r3, [sp, #44]
 249:Middlewares/ST/usbx/common/core/src/ux_device_stack_control_request_process.c **** 
 291              		.loc 1 249 17 is_stmt 1 view .LVU94
 249:Middlewares/ST/usbx/common/core/src/ux_device_stack_control_request_process.c **** 
 292              		.loc 1 249 36 is_stmt 0 view .LVU95
 293 00fc 5B6C     		ldr	r3, [r3, #68]
 294              	.LVL33:
 249:Middlewares/ST/usbx/common/core/src/ux_device_stack_control_request_process.c **** 
 295              		.loc 1 249 26 view .LVU96
 296 00fe 03A8     		add	r0, sp, #12
 297 0100 9847     		blx	r3
 298              	.LVL34:
 254:Middlewares/ST/usbx/common/core/src/ux_device_stack_control_request_process.c **** 
 299              		.loc 1 254 17 is_stmt 1 view .LVU97
 254:Middlewares/ST/usbx/common/core/src/ux_device_stack_control_request_process.c **** 
 300              		.loc 1 254 20 is_stmt 0 view .LVU98
 301 0102 8046     		mov	r8, r0
 302 0104 A8B1     		cbz	r0, .L12
 303              	.LVL35:
 304              	.L9:
 207:Middlewares/ST/usbx/common/core/src/ux_device_stack_control_request_process.c ****             {
 305              		.loc 1 207 86 is_stmt 1 discriminator 2 view .LVU99
 306 0106 0134     		adds	r4, r4, #1
 307              	.LVL36:
 308              	.L8:
 207:Middlewares/ST/usbx/common/core/src/ux_device_stack_control_request_process.c ****             {
 309              		.loc 1 207 47 discriminator 1 view .LVU100
 310 0108 0F2C     		cmp	r4, #15
 311 010a 12D8     		bhi	.L12
 211:Middlewares/ST/usbx/common/core/src/ux_device_stack_control_request_process.c **** 
 312              		.loc 1 211 17 view .LVU101
 211:Middlewares/ST/usbx/common/core/src/ux_device_stack_control_request_process.c **** 
ARM GAS  C:\usertemp\ccRvQQdV.s 			page 14


 313              		.loc 1 211 47 is_stmt 0 view .LVU102
 314 010c 314B     		ldr	r3, .L35
 315 010e 1B68     		ldr	r3, [r3]
 211:Middlewares/ST/usbx/common/core/src/ux_device_stack_control_request_process.c **** 
 316              		.loc 1 211 27 view .LVU103
 317 0110 04F14402 		add	r2, r4, #68
 318 0114 03EB8203 		add	r3, r3, r2, lsl #2
 319 0118 5B68     		ldr	r3, [r3, #4]
 320              	.LVL37:
 214:Middlewares/ST/usbx/common/core/src/ux_device_stack_control_request_process.c ****                     continue;
 321              		.loc 1 214 17 is_stmt 1 view .LVU104
 214:Middlewares/ST/usbx/common/core/src/ux_device_stack_control_request_process.c ****                     continue;
 322              		.loc 1 214 20 is_stmt 0 view .LVU105
 323 011a 002B     		cmp	r3, #0
 324 011c F3D0     		beq	.L9
 218:Middlewares/ST/usbx/common/core/src/ux_device_stack_control_request_process.c ****                 {
 325              		.loc 1 218 17 is_stmt 1 view .LVU106
 218:Middlewares/ST/usbx/common/core/src/ux_device_stack_control_request_process.c ****                 {
 326              		.loc 1 218 35 is_stmt 0 view .LVU107
 327 011e 06F00302 		and	r2, r6, #3
 218:Middlewares/ST/usbx/common/core/src/ux_device_stack_control_request_process.c ****                 {
 328              		.loc 1 218 20 view .LVU108
 329 0122 012A     		cmp	r2, #1
 330 0124 E9D1     		bne	.L10
 228:Middlewares/ST/usbx/common/core/src/ux_device_stack_control_request_process.c ****                         (class_ptr -> ux_slave_class_interface -> ux_slave_interface_descriptor.bIn
 331              		.loc 1 228 21 is_stmt 1 view .LVU109
 228:Middlewares/ST/usbx/common/core/src/ux_device_stack_control_request_process.c ****                         (class_ptr -> ux_slave_class_interface -> ux_slave_interface_descriptor.bIn
 332              		.loc 1 228 24 is_stmt 0 view .LVU110
 333 0126 A12E     		cmp	r6, #161
 334 0128 DBD0     		beq	.L34
 335              	.L11:
 240:Middlewares/ST/usbx/common/core/src/ux_device_stack_control_request_process.c ****                             continue;
 336              		.loc 1 240 25 is_stmt 1 view .LVU111
 240:Middlewares/ST/usbx/common/core/src/ux_device_stack_control_request_process.c ****                             continue;
 337              		.loc 1 240 44 is_stmt 0 view .LVU112
 338 012a FAB2     		uxtb	r2, r7
 240:Middlewares/ST/usbx/common/core/src/ux_device_stack_control_request_process.c ****                             continue;
 339              		.loc 1 240 28 view .LVU113
 340 012c A242     		cmp	r2, r4
 341 012e E4D0     		beq	.L10
 342 0130 E9E7     		b	.L9
 343              	.LVL38:
 344              	.L12:
 263:Middlewares/ST/usbx/common/core/src/ux_device_stack_control_request_process.c **** 
 345              		.loc 1 263 13 is_stmt 1 view .LVU114
 263:Middlewares/ST/usbx/common/core/src/ux_device_stack_control_request_process.c **** 
 346              		.loc 1 263 16 is_stmt 0 view .LVU115
 347 0132 B8F1000F 		cmp	r8, #0
 348 0136 3FF46DAF 		beq	.L1
 266:Middlewares/ST/usbx/common/core/src/ux_device_stack_control_request_process.c **** 
 349              		.loc 1 266 17 is_stmt 1 view .LVU116
 350 013a 0AF13800 		add	r0, r10, #56
 351 013e FFF7FEFF 		bl	_ux_device_stack_endpoint_stall
 352              	.LVL39:
 269:Middlewares/ST/usbx/common/core/src/ux_device_stack_control_request_process.c ****         }
 353              		.loc 1 269 13 view .LVU117
 269:Middlewares/ST/usbx/common/core/src/ux_device_stack_control_request_process.c ****         }
ARM GAS  C:\usertemp\ccRvQQdV.s 			page 15


 354              		.loc 1 269 19 is_stmt 0 view .LVU118
 355 0142 67E7     		b	.L1
 356              	.LVL40:
 357              	.L25:
 278:Middlewares/ST/usbx/common/core/src/ux_device_stack_control_request_process.c ****             break;
 358              		.loc 1 278 13 is_stmt 1 view .LVU119
 278:Middlewares/ST/usbx/common/core/src/ux_device_stack_control_request_process.c ****             break;
 359              		.loc 1 278 23 is_stmt 0 view .LVU120
 360 0144 0A46     		mov	r2, r1
 361 0146 3946     		mov	r1, r7
 362 0148 3046     		mov	r0, r6
 363              	.LVL41:
 278:Middlewares/ST/usbx/common/core/src/ux_device_stack_control_request_process.c ****             break;
 364              		.loc 1 278 23 view .LVU121
 365 014a FFF7FEFF 		bl	_ux_device_stack_get_status
 366              	.LVL42:
 278:Middlewares/ST/usbx/common/core/src/ux_device_stack_control_request_process.c ****             break;
 367              		.loc 1 278 23 view .LVU122
 368 014e 8046     		mov	r8, r0
 369              	.LVL43:
 279:Middlewares/ST/usbx/common/core/src/ux_device_stack_control_request_process.c **** 
 370              		.loc 1 279 13 is_stmt 1 view .LVU123
 371              	.L26:
 342:Middlewares/ST/usbx/common/core/src/ux_device_stack_control_request_process.c **** 
 372              		.loc 1 342 9 view .LVU124
 342:Middlewares/ST/usbx/common/core/src/ux_device_stack_control_request_process.c **** 
 373              		.loc 1 342 12 is_stmt 0 view .LVU125
 374 0150 B8F1000F 		cmp	r8, #0
 375 0154 3FF45EAF 		beq	.L1
 376              	.LVL44:
 377              	.L15:
 345:Middlewares/ST/usbx/common/core/src/ux_device_stack_control_request_process.c ****     }
 378              		.loc 1 345 13 is_stmt 1 view .LVU126
 379 0158 0AF13800 		add	r0, r10, #56
 380 015c FFF7FEFF 		bl	_ux_device_stack_endpoint_stall
 381              	.LVL45:
 382 0160 58E7     		b	.L1
 383              	.LVL46:
 384              	.L24:
 283:Middlewares/ST/usbx/common/core/src/ux_device_stack_control_request_process.c ****             break;
 385              		.loc 1 283 13 view .LVU127
 283:Middlewares/ST/usbx/common/core/src/ux_device_stack_control_request_process.c ****             break;
 386              		.loc 1 283 23 is_stmt 0 view .LVU128
 387 0162 3A46     		mov	r2, r7
 388 0164 4146     		mov	r1, r8
 389 0166 3046     		mov	r0, r6
 390              	.LVL47:
 283:Middlewares/ST/usbx/common/core/src/ux_device_stack_control_request_process.c ****             break;
 391              		.loc 1 283 23 view .LVU129
 392 0168 FFF7FEFF 		bl	_ux_device_stack_clear_feature
 393              	.LVL48:
 394 016c 8046     		mov	r8, r0
 395              	.LVL49:
 284:Middlewares/ST/usbx/common/core/src/ux_device_stack_control_request_process.c **** 
 396              		.loc 1 284 13 is_stmt 1 view .LVU130
 397 016e EFE7     		b	.L26
 398              	.LVL50:
ARM GAS  C:\usertemp\ccRvQQdV.s 			page 16


 399              	.L23:
 288:Middlewares/ST/usbx/common/core/src/ux_device_stack_control_request_process.c ****             break;
 400              		.loc 1 288 13 view .LVU131
 288:Middlewares/ST/usbx/common/core/src/ux_device_stack_control_request_process.c ****             break;
 401              		.loc 1 288 23 is_stmt 0 view .LVU132
 402 0170 3A46     		mov	r2, r7
 403 0172 4146     		mov	r1, r8
 404 0174 3046     		mov	r0, r6
 405              	.LVL51:
 288:Middlewares/ST/usbx/common/core/src/ux_device_stack_control_request_process.c ****             break;
 406              		.loc 1 288 23 view .LVU133
 407 0176 FFF7FEFF 		bl	_ux_device_stack_set_feature
 408              	.LVL52:
 409 017a 8046     		mov	r8, r0
 410              	.LVL53:
 289:Middlewares/ST/usbx/common/core/src/ux_device_stack_control_request_process.c **** 
 411              		.loc 1 289 13 is_stmt 1 view .LVU134
 412 017c E8E7     		b	.L26
 413              	.LVL54:
 414              	.L22:
 294:Middlewares/ST/usbx/common/core/src/ux_device_stack_control_request_process.c **** 
 415              		.loc 1 294 13 view .LVU135
 294:Middlewares/ST/usbx/common/core/src/ux_device_stack_control_request_process.c **** 
 416              		.loc 1 294 48 is_stmt 0 view .LVU136
 417 017e CAF81480 		str	r8, [r10, #20]
 297:Middlewares/ST/usbx/common/core/src/ux_device_stack_control_request_process.c ****             break;
 418              		.loc 1 297 13 is_stmt 1 view .LVU137
 297:Middlewares/ST/usbx/common/core/src/ux_device_stack_control_request_process.c ****             break;
 419              		.loc 1 297 27 is_stmt 0 view .LVU138
 420 0182 DAF81830 		ldr	r3, [r10, #24]
 297:Middlewares/ST/usbx/common/core/src/ux_device_stack_control_request_process.c ****             break;
 421              		.loc 1 297 23 view .LVU139
 422 0186 4246     		mov	r2, r8
 423 0188 1121     		movs	r1, #17
 424 018a 5046     		mov	r0, r10
 425              	.LVL55:
 297:Middlewares/ST/usbx/common/core/src/ux_device_stack_control_request_process.c ****             break;
 426              		.loc 1 297 23 view .LVU140
 427 018c 9847     		blx	r3
 428              	.LVL56:
 429 018e 8046     		mov	r8, r0
 430              	.LVL57:
 298:Middlewares/ST/usbx/common/core/src/ux_device_stack_control_request_process.c **** 
 431              		.loc 1 298 13 is_stmt 1 view .LVU141
 432 0190 DEE7     		b	.L26
 433              	.LVL58:
 434              	.L21:
 302:Middlewares/ST/usbx/common/core/src/ux_device_stack_control_request_process.c ****             break;
 435              		.loc 1 302 13 view .LVU142
 302:Middlewares/ST/usbx/common/core/src/ux_device_stack_control_request_process.c ****             break;
 436              		.loc 1 302 23 is_stmt 0 view .LVU143
 437 0192 0A46     		mov	r2, r1
 438 0194 3946     		mov	r1, r7
 439 0196 4046     		mov	r0, r8
 440              	.LVL59:
 302:Middlewares/ST/usbx/common/core/src/ux_device_stack_control_request_process.c ****             break;
 441              		.loc 1 302 23 view .LVU144
ARM GAS  C:\usertemp\ccRvQQdV.s 			page 17


 442 0198 FFF7FEFF 		bl	_ux_device_stack_descriptor_send
 443              	.LVL60:
 302:Middlewares/ST/usbx/common/core/src/ux_device_stack_control_request_process.c ****             break;
 444              		.loc 1 302 23 view .LVU145
 445 019c 8046     		mov	r8, r0
 446              	.LVL61:
 303:Middlewares/ST/usbx/common/core/src/ux_device_stack_control_request_process.c **** 
 447              		.loc 1 303 13 is_stmt 1 view .LVU146
 448 019e D7E7     		b	.L26
 449              	.LVL62:
 450              	.L20:
 312:Middlewares/ST/usbx/common/core/src/ux_device_stack_control_request_process.c ****             break;
 451              		.loc 1 312 13 view .LVU147
 312:Middlewares/ST/usbx/common/core/src/ux_device_stack_control_request_process.c ****             break;
 452              		.loc 1 312 23 is_stmt 0 view .LVU148
 453 01a0 FFF7FEFF 		bl	_ux_device_stack_configuration_get
 454              	.LVL63:
 312:Middlewares/ST/usbx/common/core/src/ux_device_stack_control_request_process.c ****             break;
 455              		.loc 1 312 23 view .LVU149
 456 01a4 8046     		mov	r8, r0
 457              	.LVL64:
 313:Middlewares/ST/usbx/common/core/src/ux_device_stack_control_request_process.c **** 
 458              		.loc 1 313 13 is_stmt 1 view .LVU150
 459 01a6 D3E7     		b	.L26
 460              	.LVL65:
 461              	.L19:
 317:Middlewares/ST/usbx/common/core/src/ux_device_stack_control_request_process.c ****             break;
 462              		.loc 1 317 13 view .LVU151
 317:Middlewares/ST/usbx/common/core/src/ux_device_stack_control_request_process.c ****             break;
 463              		.loc 1 317 23 is_stmt 0 view .LVU152
 464 01a8 4046     		mov	r0, r8
 465              	.LVL66:
 317:Middlewares/ST/usbx/common/core/src/ux_device_stack_control_request_process.c ****             break;
 466              		.loc 1 317 23 view .LVU153
 467 01aa FFF7FEFF 		bl	_ux_device_stack_configuration_set
 468              	.LVL67:
 317:Middlewares/ST/usbx/common/core/src/ux_device_stack_control_request_process.c ****             break;
 469              		.loc 1 317 23 view .LVU154
 470 01ae 8046     		mov	r8, r0
 471              	.LVL68:
 318:Middlewares/ST/usbx/common/core/src/ux_device_stack_control_request_process.c **** 
 472              		.loc 1 318 13 is_stmt 1 view .LVU155
 473 01b0 CEE7     		b	.L26
 474              	.LVL69:
 475              	.L18:
 322:Middlewares/ST/usbx/common/core/src/ux_device_stack_control_request_process.c ****             break;
 476              		.loc 1 322 13 view .LVU156
 322:Middlewares/ST/usbx/common/core/src/ux_device_stack_control_request_process.c ****             break;
 477              		.loc 1 322 23 is_stmt 0 view .LVU157
 478 01b2 3846     		mov	r0, r7
 479              	.LVL70:
 322:Middlewares/ST/usbx/common/core/src/ux_device_stack_control_request_process.c ****             break;
 480              		.loc 1 322 23 view .LVU158
 481 01b4 FFF7FEFF 		bl	_ux_device_stack_alternate_setting_get
 482              	.LVL71:
 322:Middlewares/ST/usbx/common/core/src/ux_device_stack_control_request_process.c ****             break;
 483              		.loc 1 322 23 view .LVU159
ARM GAS  C:\usertemp\ccRvQQdV.s 			page 18


 484 01b8 8046     		mov	r8, r0
 485              	.LVL72:
 323:Middlewares/ST/usbx/common/core/src/ux_device_stack_control_request_process.c ****                 
 486              		.loc 1 323 13 is_stmt 1 view .LVU160
 487 01ba C9E7     		b	.L26
 488              	.LVL73:
 489              	.L17:
 327:Middlewares/ST/usbx/common/core/src/ux_device_stack_control_request_process.c ****             break;
 490              		.loc 1 327 13 view .LVU161
 327:Middlewares/ST/usbx/common/core/src/ux_device_stack_control_request_process.c ****             break;
 491              		.loc 1 327 23 is_stmt 0 view .LVU162
 492 01bc 4146     		mov	r1, r8
 493 01be 3846     		mov	r0, r7
 494              	.LVL74:
 327:Middlewares/ST/usbx/common/core/src/ux_device_stack_control_request_process.c ****             break;
 495              		.loc 1 327 23 view .LVU163
 496 01c0 FFF7FEFF 		bl	_ux_device_stack_alternate_setting_set
 497              	.LVL75:
 498 01c4 8046     		mov	r8, r0
 499              	.LVL76:
 328:Middlewares/ST/usbx/common/core/src/ux_device_stack_control_request_process.c ****                 
 500              		.loc 1 328 13 is_stmt 1 view .LVU164
 501 01c6 C3E7     		b	.L26
 502              	.LVL77:
 503              	.L28:
 273:Middlewares/ST/usbx/common/core/src/ux_device_stack_control_request_process.c ****         {
 504              		.loc 1 273 9 is_stmt 0 view .LVU165
 505 01c8 4FF05408 		mov	r8, #84
 506              	.LVL78:
 273:Middlewares/ST/usbx/common/core/src/ux_device_stack_control_request_process.c ****         {
 507              		.loc 1 273 9 view .LVU166
 508 01cc C4E7     		b	.L15
 509              	.LVL79:
 510              	.L29:
 273:Middlewares/ST/usbx/common/core/src/ux_device_stack_control_request_process.c ****         {
 511              		.loc 1 273 9 view .LVU167
 512 01ce A046     		mov	r8, r4
 513              	.LVL80:
 273:Middlewares/ST/usbx/common/core/src/ux_device_stack_control_request_process.c ****         {
 514              		.loc 1 273 9 view .LVU168
 515 01d0 20E7     		b	.L1
 516              	.L36:
 517 01d2 00BF     		.align	2
 518              	.L35:
 519 01d4 00000000 		.word	_ux_system_slave
 520              		.cfi_endproc
 521              	.LFE11:
 523              		.text
 524              	.Letext0:
 525              		.file 2 "Middlewares/ST/threadx/ports/cortex_m33/gnu/inc/tx_port.h"
 526              		.file 3 "Middlewares/ST/threadx/common/inc/tx_api.h"
 527              		.file 4 "Middlewares/ST/usbx/common/core/inc/ux_api.h"
 528              		.file 5 "Middlewares/ST/usbx/common/core/inc/ux_device_stack.h"
 529              		.file 6 "Middlewares/ST/usbx/common/core/inc/ux_utility.h"
 530              		.file 7 "Middlewares/ST/usbx/common/core/inc/ux_system.h"
ARM GAS  C:\usertemp\ccRvQQdV.s 			page 19

