ARM GAS  C:\usertemp\ccHMh5si.s 			page 1


   1              		.cpu cortex-m33
   2              		.arch armv8-m.main
   3              		.fpu fpv4-sp-d16
   4              		.arch_extension dsp
   5              		.eabi_attribute 27, 1
   6              		.eabi_attribute 28, 1
   7              		.eabi_attribute 20, 1
   8              		.eabi_attribute 21, 1
   9              		.eabi_attribute 23, 3
  10              		.eabi_attribute 24, 1
  11              		.eabi_attribute 25, 1
  12              		.eabi_attribute 26, 1
  13              		.eabi_attribute 30, 1
  14              		.eabi_attribute 34, 1
  15              		.eabi_attribute 18, 4
  16              		.file	"ux_utility_memory_free.c"
  17              		.text
  18              	.Ltext0:
  19              		.cfi_sections	.debug_frame
  20              		.file 1 "Middlewares/ST/usbx/common/core/src/ux_utility_memory_free.c"
  21              		.section	.text._ux_utility_memory_free,"ax",%progbits
  22              		.align	1
  23              		.global	_ux_utility_memory_free
  24              		.syntax unified
  25              		.thumb
  26              		.thumb_func
  28              	_ux_utility_memory_free:
  29              	.LVL0:
  30              	.LFB3:
   1:Middlewares/ST/usbx/common/core/src/ux_utility_memory_free.c **** /**************************************************************************/
   2:Middlewares/ST/usbx/common/core/src/ux_utility_memory_free.c **** /*                                                                        */
   3:Middlewares/ST/usbx/common/core/src/ux_utility_memory_free.c **** /*       Copyright (c) Microsoft Corporation. All rights reserved.        */
   4:Middlewares/ST/usbx/common/core/src/ux_utility_memory_free.c **** /*                                                                        */
   5:Middlewares/ST/usbx/common/core/src/ux_utility_memory_free.c **** /*       This software is licensed under the Microsoft Software License   */
   6:Middlewares/ST/usbx/common/core/src/ux_utility_memory_free.c **** /*       Terms for Microsoft Azure RTOS. Full text of the license can be  */
   7:Middlewares/ST/usbx/common/core/src/ux_utility_memory_free.c **** /*       found in the LICENSE file at https://aka.ms/AzureRTOS_EULA       */
   8:Middlewares/ST/usbx/common/core/src/ux_utility_memory_free.c **** /*       and in the root directory of this software.                      */
   9:Middlewares/ST/usbx/common/core/src/ux_utility_memory_free.c **** /*                                                                        */
  10:Middlewares/ST/usbx/common/core/src/ux_utility_memory_free.c **** /**************************************************************************/
  11:Middlewares/ST/usbx/common/core/src/ux_utility_memory_free.c **** 
  12:Middlewares/ST/usbx/common/core/src/ux_utility_memory_free.c **** 
  13:Middlewares/ST/usbx/common/core/src/ux_utility_memory_free.c **** /**************************************************************************/
  14:Middlewares/ST/usbx/common/core/src/ux_utility_memory_free.c **** /**************************************************************************/
  15:Middlewares/ST/usbx/common/core/src/ux_utility_memory_free.c **** /**                                                                       */
  16:Middlewares/ST/usbx/common/core/src/ux_utility_memory_free.c **** /** USBX Component                                                        */
  17:Middlewares/ST/usbx/common/core/src/ux_utility_memory_free.c **** /**                                                                       */
  18:Middlewares/ST/usbx/common/core/src/ux_utility_memory_free.c **** /**   Utility                                                             */
  19:Middlewares/ST/usbx/common/core/src/ux_utility_memory_free.c **** /**                                                                       */
  20:Middlewares/ST/usbx/common/core/src/ux_utility_memory_free.c **** /**************************************************************************/
  21:Middlewares/ST/usbx/common/core/src/ux_utility_memory_free.c **** /**************************************************************************/
  22:Middlewares/ST/usbx/common/core/src/ux_utility_memory_free.c **** 
  23:Middlewares/ST/usbx/common/core/src/ux_utility_memory_free.c **** 
  24:Middlewares/ST/usbx/common/core/src/ux_utility_memory_free.c **** /* Include necessary system files.  */
  25:Middlewares/ST/usbx/common/core/src/ux_utility_memory_free.c **** 
  26:Middlewares/ST/usbx/common/core/src/ux_utility_memory_free.c **** #define UX_SOURCE_CODE
  27:Middlewares/ST/usbx/common/core/src/ux_utility_memory_free.c **** 
  28:Middlewares/ST/usbx/common/core/src/ux_utility_memory_free.c **** #include "ux_api.h"
ARM GAS  C:\usertemp\ccHMh5si.s 			page 2


  29:Middlewares/ST/usbx/common/core/src/ux_utility_memory_free.c **** 
  30:Middlewares/ST/usbx/common/core/src/ux_utility_memory_free.c **** 
  31:Middlewares/ST/usbx/common/core/src/ux_utility_memory_free.c **** /**************************************************************************/
  32:Middlewares/ST/usbx/common/core/src/ux_utility_memory_free.c **** /*                                                                        */
  33:Middlewares/ST/usbx/common/core/src/ux_utility_memory_free.c **** /*  FUNCTION                                               RELEASE        */
  34:Middlewares/ST/usbx/common/core/src/ux_utility_memory_free.c **** /*                                                                        */
  35:Middlewares/ST/usbx/common/core/src/ux_utility_memory_free.c **** /*    _ux_utility_memory_free                             PORTABLE C      */
  36:Middlewares/ST/usbx/common/core/src/ux_utility_memory_free.c **** /*                                                           6.3.0        */
  37:Middlewares/ST/usbx/common/core/src/ux_utility_memory_free.c **** /*  AUTHOR                                                                */
  38:Middlewares/ST/usbx/common/core/src/ux_utility_memory_free.c **** /*                                                                        */
  39:Middlewares/ST/usbx/common/core/src/ux_utility_memory_free.c **** /*    Chaoqiong Xiao, Microsoft Corporation                               */
  40:Middlewares/ST/usbx/common/core/src/ux_utility_memory_free.c **** /*                                                                        */
  41:Middlewares/ST/usbx/common/core/src/ux_utility_memory_free.c **** /*  DESCRIPTION                                                           */
  42:Middlewares/ST/usbx/common/core/src/ux_utility_memory_free.c **** /*                                                                        */
  43:Middlewares/ST/usbx/common/core/src/ux_utility_memory_free.c **** /*    This function frees a previously allocated memory block.            */
  44:Middlewares/ST/usbx/common/core/src/ux_utility_memory_free.c **** /*                                                                        */
  45:Middlewares/ST/usbx/common/core/src/ux_utility_memory_free.c **** /*  INPUT                                                                 */
  46:Middlewares/ST/usbx/common/core/src/ux_utility_memory_free.c **** /*                                                                        */
  47:Middlewares/ST/usbx/common/core/src/ux_utility_memory_free.c **** /*    memory                                Pointer to memory block       */
  48:Middlewares/ST/usbx/common/core/src/ux_utility_memory_free.c **** /*                                                                        */
  49:Middlewares/ST/usbx/common/core/src/ux_utility_memory_free.c **** /*  OUTPUT                                                                */
  50:Middlewares/ST/usbx/common/core/src/ux_utility_memory_free.c **** /*                                                                        */
  51:Middlewares/ST/usbx/common/core/src/ux_utility_memory_free.c **** /*    None                                                                */
  52:Middlewares/ST/usbx/common/core/src/ux_utility_memory_free.c **** /*                                                                        */
  53:Middlewares/ST/usbx/common/core/src/ux_utility_memory_free.c **** /*  CALLS                                                                 */
  54:Middlewares/ST/usbx/common/core/src/ux_utility_memory_free.c **** /*                                                                        */
  55:Middlewares/ST/usbx/common/core/src/ux_utility_memory_free.c **** /*    _ux_utility_mutex_on                  Start system protection       */
  56:Middlewares/ST/usbx/common/core/src/ux_utility_memory_free.c **** /*    _ux_utility_mutex_off                 End system protection         */
  57:Middlewares/ST/usbx/common/core/src/ux_utility_memory_free.c **** /*                                                                        */
  58:Middlewares/ST/usbx/common/core/src/ux_utility_memory_free.c **** /*  CALLED BY                                                             */
  59:Middlewares/ST/usbx/common/core/src/ux_utility_memory_free.c **** /*                                                                        */
  60:Middlewares/ST/usbx/common/core/src/ux_utility_memory_free.c **** /*    USBX Components                                                     */
  61:Middlewares/ST/usbx/common/core/src/ux_utility_memory_free.c **** /*                                                                        */
  62:Middlewares/ST/usbx/common/core/src/ux_utility_memory_free.c **** /*  RELEASE HISTORY                                                       */
  63:Middlewares/ST/usbx/common/core/src/ux_utility_memory_free.c **** /*                                                                        */
  64:Middlewares/ST/usbx/common/core/src/ux_utility_memory_free.c **** /*    DATE              NAME                      DESCRIPTION             */
  65:Middlewares/ST/usbx/common/core/src/ux_utility_memory_free.c **** /*                                                                        */
  66:Middlewares/ST/usbx/common/core/src/ux_utility_memory_free.c **** /*  05-19-2020     Chaoqiong Xiao           Initial Version 6.0           */
  67:Middlewares/ST/usbx/common/core/src/ux_utility_memory_free.c **** /*  09-30-2020     Chaoqiong Xiao           Modified comment(s),          */
  68:Middlewares/ST/usbx/common/core/src/ux_utility_memory_free.c **** /*                                            resulting in version 6.1    */
  69:Middlewares/ST/usbx/common/core/src/ux_utility_memory_free.c **** /*  01-31-2022     Chaoqiong Xiao           Modified comment(s),          */
  70:Middlewares/ST/usbx/common/core/src/ux_utility_memory_free.c **** /*                                            added standalone support,   */
  71:Middlewares/ST/usbx/common/core/src/ux_utility_memory_free.c **** /*                                            resulting in version 6.1.10 */
  72:Middlewares/ST/usbx/common/core/src/ux_utility_memory_free.c **** /*  10-31-2023     Yajun Xia, CQ Xiao       Modified comment(s),          */
  73:Middlewares/ST/usbx/common/core/src/ux_utility_memory_free.c **** /*                                            added some error traps,     */
  74:Middlewares/ST/usbx/common/core/src/ux_utility_memory_free.c **** /*                                            refined memory management,  */
  75:Middlewares/ST/usbx/common/core/src/ux_utility_memory_free.c **** /*                                            resulting in version 6.3.0  */
  76:Middlewares/ST/usbx/common/core/src/ux_utility_memory_free.c **** /*                                                                        */
  77:Middlewares/ST/usbx/common/core/src/ux_utility_memory_free.c **** /**************************************************************************/
  78:Middlewares/ST/usbx/common/core/src/ux_utility_memory_free.c **** VOID  _ux_utility_memory_free(VOID *memory)
  79:Middlewares/ST/usbx/common/core/src/ux_utility_memory_free.c **** {
  31              		.loc 1 79 1 view -0
  32              		.cfi_startproc
  33              		@ args = 0, pretend = 0, frame = 0
  34              		@ frame_needed = 0, uses_anonymous_args = 0
  35              		.loc 1 79 1 is_stmt 0 view .LVU1
  36 0000 10B5     		push	{r4, lr}
ARM GAS  C:\usertemp\ccHMh5si.s 			page 3


  37              	.LCFI0:
  38              		.cfi_def_cfa_offset 8
  39              		.cfi_offset 4, -8
  40              		.cfi_offset 14, -4
  80:Middlewares/ST/usbx/common/core/src/ux_utility_memory_free.c **** UX_MEMORY_BYTE_POOL *pool_ptr;
  41              		.loc 1 80 1 is_stmt 1 view .LVU2
  81:Middlewares/ST/usbx/common/core/src/ux_utility_memory_free.c **** UCHAR               *work_ptr;
  42              		.loc 1 81 1 view .LVU3
  82:Middlewares/ST/usbx/common/core/src/ux_utility_memory_free.c **** UCHAR               *temp_ptr;
  43              		.loc 1 82 1 view .LVU4
  83:Middlewares/ST/usbx/common/core/src/ux_utility_memory_free.c **** UCHAR               *next_block_ptr;
  44              		.loc 1 83 1 view .LVU5
  84:Middlewares/ST/usbx/common/core/src/ux_utility_memory_free.c **** 
  85:Middlewares/ST/usbx/common/core/src/ux_utility_memory_free.c **** ALIGN_TYPE          *free_ptr;
  45              		.loc 1 85 1 view .LVU6
  86:Middlewares/ST/usbx/common/core/src/ux_utility_memory_free.c **** UX_MEMORY_BYTE_POOL **byte_pool_ptr;
  46              		.loc 1 86 1 view .LVU7
  87:Middlewares/ST/usbx/common/core/src/ux_utility_memory_free.c **** UCHAR               **block_link_ptr;
  47              		.loc 1 87 1 view .LVU8
  88:Middlewares/ST/usbx/common/core/src/ux_utility_memory_free.c **** #ifdef UX_ENABLE_MEMORY_POOL_SANITY_CHECK
  89:Middlewares/ST/usbx/common/core/src/ux_utility_memory_free.c **** UCHAR               *memory_address;
  90:Middlewares/ST/usbx/common/core/src/ux_utility_memory_free.c **** UCHAR               *regular_start, *regular_end;
  91:Middlewares/ST/usbx/common/core/src/ux_utility_memory_free.c **** UCHAR               *cache_safe_start, *cache_safe_end;
  92:Middlewares/ST/usbx/common/core/src/ux_utility_memory_free.c **** #endif
  93:Middlewares/ST/usbx/common/core/src/ux_utility_memory_free.c **** #ifdef UX_ENABLE_MEMORY_STATISTICS
  94:Middlewares/ST/usbx/common/core/src/ux_utility_memory_free.c **** UINT                index;
  95:Middlewares/ST/usbx/common/core/src/ux_utility_memory_free.c **** #endif
  96:Middlewares/ST/usbx/common/core/src/ux_utility_memory_free.c **** 
  97:Middlewares/ST/usbx/common/core/src/ux_utility_memory_free.c ****     /* Get the mutex as this is a critical section.  */
  98:Middlewares/ST/usbx/common/core/src/ux_utility_memory_free.c ****     _ux_system_mutex_on(&_ux_system -> ux_system_mutex);
  48              		.loc 1 98 5 view .LVU9
  49              		.loc 1 98 5 view .LVU10
  50              		.loc 1 98 5 view .LVU11
  99:Middlewares/ST/usbx/common/core/src/ux_utility_memory_free.c **** 
 100:Middlewares/ST/usbx/common/core/src/ux_utility_memory_free.c **** #ifdef UX_ENABLE_MEMORY_POOL_SANITY_CHECK
 101:Middlewares/ST/usbx/common/core/src/ux_utility_memory_free.c **** 
 102:Middlewares/ST/usbx/common/core/src/ux_utility_memory_free.c ****     /* Sanity check, check if the memory is in memory pool.  */
 103:Middlewares/ST/usbx/common/core/src/ux_utility_memory_free.c ****     regular_start = (UCHAR *)_ux_system -> ux_system_memory_byte_pool[UX_MEMORY_BYTE_POOL_REGULAR] 
 104:Middlewares/ST/usbx/common/core/src/ux_utility_memory_free.c ****     regular_end = regular_start + _ux_system -> ux_system_memory_byte_pool[UX_MEMORY_BYTE_POOL_REGU
 105:Middlewares/ST/usbx/common/core/src/ux_utility_memory_free.c ****     regular_start += UX_MEMORY_BLOCK_HEADER_SIZE;
 106:Middlewares/ST/usbx/common/core/src/ux_utility_memory_free.c ****     cache_safe_start = (UCHAR *)_ux_system -> ux_system_memory_byte_pool[UX_MEMORY_BYTE_POOL_CACHE_
 107:Middlewares/ST/usbx/common/core/src/ux_utility_memory_free.c ****     cache_safe_end = cache_safe_start + _ux_system -> ux_system_memory_byte_pool[UX_MEMORY_BYTE_POO
 108:Middlewares/ST/usbx/common/core/src/ux_utility_memory_free.c ****     cache_safe_start += UX_MEMORY_BLOCK_HEADER_SIZE;
 109:Middlewares/ST/usbx/common/core/src/ux_utility_memory_free.c **** 
 110:Middlewares/ST/usbx/common/core/src/ux_utility_memory_free.c ****     memory_address = (UCHAR *)memory;
 111:Middlewares/ST/usbx/common/core/src/ux_utility_memory_free.c ****     if (!((memory_address >= regular_start    && memory_address < regular_end) ||
 112:Middlewares/ST/usbx/common/core/src/ux_utility_memory_free.c ****           (memory_address >= cache_safe_start && memory_address < cache_safe_end)))
 113:Middlewares/ST/usbx/common/core/src/ux_utility_memory_free.c ****     {
 114:Middlewares/ST/usbx/common/core/src/ux_utility_memory_free.c **** 
 115:Middlewares/ST/usbx/common/core/src/ux_utility_memory_free.c ****         /* Not valid. Release the protection.  */
 116:Middlewares/ST/usbx/common/core/src/ux_utility_memory_free.c ****         _ux_system_mutex_off(&_ux_system -> ux_system_mutex);
 117:Middlewares/ST/usbx/common/core/src/ux_utility_memory_free.c **** 
 118:Middlewares/ST/usbx/common/core/src/ux_utility_memory_free.c ****         /* Error trap.  */
 119:Middlewares/ST/usbx/common/core/src/ux_utility_memory_free.c ****         _ux_system_error_handler(UX_SYSTEM_LEVEL_THREAD,
 120:Middlewares/ST/usbx/common/core/src/ux_utility_memory_free.c ****                                 UX_SYSTEM_CONTEXT_UTILITY, UX_MEMORY_CORRUPTED);
 121:Middlewares/ST/usbx/common/core/src/ux_utility_memory_free.c **** 
 122:Middlewares/ST/usbx/common/core/src/ux_utility_memory_free.c ****         /* No action taken.  */
ARM GAS  C:\usertemp\ccHMh5si.s 			page 4


 123:Middlewares/ST/usbx/common/core/src/ux_utility_memory_free.c ****         return;
 124:Middlewares/ST/usbx/common/core/src/ux_utility_memory_free.c ****     }
 125:Middlewares/ST/usbx/common/core/src/ux_utility_memory_free.c **** #endif
 126:Middlewares/ST/usbx/common/core/src/ux_utility_memory_free.c **** 
 127:Middlewares/ST/usbx/common/core/src/ux_utility_memory_free.c ****     /* Set the pool pointer to NULL.  */
 128:Middlewares/ST/usbx/common/core/src/ux_utility_memory_free.c ****     pool_ptr =  UX_NULL;
  51              		.loc 1 128 5 view .LVU12
  52              	.LVL1:
 129:Middlewares/ST/usbx/common/core/src/ux_utility_memory_free.c **** 
 130:Middlewares/ST/usbx/common/core/src/ux_utility_memory_free.c ****     /* Determine if the memory pointer is valid.  */
 131:Middlewares/ST/usbx/common/core/src/ux_utility_memory_free.c ****     work_ptr =  UX_VOID_TO_UCHAR_POINTER_CONVERT(memory);
  53              		.loc 1 131 5 view .LVU13
 132:Middlewares/ST/usbx/common/core/src/ux_utility_memory_free.c ****     if (work_ptr != UX_NULL)
  54              		.loc 1 132 5 view .LVU14
  55              		.loc 1 132 8 is_stmt 0 view .LVU15
  56 0002 E0B1     		cbz	r0, .L2
  57 0004 0246     		mov	r2, r0
 133:Middlewares/ST/usbx/common/core/src/ux_utility_memory_free.c ****     {
 134:Middlewares/ST/usbx/common/core/src/ux_utility_memory_free.c **** 
 135:Middlewares/ST/usbx/common/core/src/ux_utility_memory_free.c ****         /* Back off the memory pointer to pickup its header.  */
 136:Middlewares/ST/usbx/common/core/src/ux_utility_memory_free.c ****         work_ptr =  UX_UCHAR_POINTER_SUB(work_ptr, UX_MEMORY_BLOCK_HEADER_SIZE);
  58              		.loc 1 136 9 is_stmt 1 view .LVU16
  59              		.loc 1 136 18 is_stmt 0 view .LVU17
  60 0006 A0F10801 		sub	r1, r0, #8
  61              	.LVL2:
 137:Middlewares/ST/usbx/common/core/src/ux_utility_memory_free.c **** 
 138:Middlewares/ST/usbx/common/core/src/ux_utility_memory_free.c ****         /* There is a pointer, pickup the pool pointer address.  */
 139:Middlewares/ST/usbx/common/core/src/ux_utility_memory_free.c ****         temp_ptr =  UX_UCHAR_POINTER_ADD(work_ptr, (sizeof(UCHAR *)));
  62              		.loc 1 139 9 is_stmt 1 view .LVU18
 140:Middlewares/ST/usbx/common/core/src/ux_utility_memory_free.c ****         free_ptr =  UX_UCHAR_TO_ALIGN_TYPE_POINTER_CONVERT(temp_ptr);
  63              		.loc 1 140 9 view .LVU19
 141:Middlewares/ST/usbx/common/core/src/ux_utility_memory_free.c ****         if ((*free_ptr) != UX_BYTE_BLOCK_FREE)
  64              		.loc 1 141 9 view .LVU20
  65              		.loc 1 141 14 is_stmt 0 view .LVU21
  66 000a 50F8043C 		ldr	r3, [r0, #-4]
  67              		.loc 1 141 12 view .LVU22
  68 000e 1648     		ldr	r0, .L8
  69              	.LVL3:
  70              		.loc 1 141 12 view .LVU23
  71 0010 8342     		cmp	r3, r0
  72 0012 0ED0     		beq	.L3
 142:Middlewares/ST/usbx/common/core/src/ux_utility_memory_free.c ****         {
 143:Middlewares/ST/usbx/common/core/src/ux_utility_memory_free.c **** 
 144:Middlewares/ST/usbx/common/core/src/ux_utility_memory_free.c ****             /* Pickup the pool pointer.  */
 145:Middlewares/ST/usbx/common/core/src/ux_utility_memory_free.c ****             temp_ptr =  UX_UCHAR_POINTER_ADD(work_ptr, (sizeof(UCHAR *)));
  73              		.loc 1 145 13 is_stmt 1 view .LVU24
 146:Middlewares/ST/usbx/common/core/src/ux_utility_memory_free.c ****             byte_pool_ptr = UX_UCHAR_TO_INDIRECT_BYTE_POOL_POINTER(temp_ptr);
  74              		.loc 1 146 13 view .LVU25
  75              	.LVL4:
 147:Middlewares/ST/usbx/common/core/src/ux_utility_memory_free.c ****             pool_ptr = *byte_pool_ptr;
  76              		.loc 1 147 13 view .LVU26
 148:Middlewares/ST/usbx/common/core/src/ux_utility_memory_free.c **** 
 149:Middlewares/ST/usbx/common/core/src/ux_utility_memory_free.c ****             /* See if we have a valid pool pointer.  */
 150:Middlewares/ST/usbx/common/core/src/ux_utility_memory_free.c ****             if ((pool_ptr == UX_NULL) ||
  77              		.loc 1 150 13 view .LVU27
  78              		.loc 1 150 16 is_stmt 0 view .LVU28
  79 0014 3BB1     		cbz	r3, .L4
ARM GAS  C:\usertemp\ccHMh5si.s 			page 5


 151:Middlewares/ST/usbx/common/core/src/ux_utility_memory_free.c ****                 ((pool_ptr != _ux_system -> ux_system_memory_byte_pool[UX_MEMORY_BYTE_POOL_REGULAR]
  80              		.loc 1 151 42 view .LVU29
  81 0016 1548     		ldr	r0, .L8+4
  82 0018 0068     		ldr	r0, [r0]
 150:Middlewares/ST/usbx/common/core/src/ux_utility_memory_free.c ****                 ((pool_ptr != _ux_system -> ux_system_memory_byte_pool[UX_MEMORY_BYTE_POOL_REGULAR]
  83              		.loc 1 150 39 discriminator 1 view .LVU30
  84 001a 0468     		ldr	r4, [r0]
  85 001c 9C42     		cmp	r4, r3
  86 001e 14D0     		beq	.L5
 152:Middlewares/ST/usbx/common/core/src/ux_utility_memory_free.c ****                 (pool_ptr != _ux_system -> ux_system_memory_byte_pool[UX_MEMORY_BYTE_POOL_CACHE_SAF
  87              		.loc 1 152 70 view .LVU31
  88 0020 4068     		ldr	r0, [r0, #4]
 151:Middlewares/ST/usbx/common/core/src/ux_utility_memory_free.c ****                 ((pool_ptr != _ux_system -> ux_system_memory_byte_pool[UX_MEMORY_BYTE_POOL_REGULAR]
  89              		.loc 1 151 102 view .LVU32
  90 0022 9842     		cmp	r0, r3
  91 0024 11D0     		beq	.L5
  92              	.L4:
 153:Middlewares/ST/usbx/common/core/src/ux_utility_memory_free.c ****             {
 154:Middlewares/ST/usbx/common/core/src/ux_utility_memory_free.c **** 
 155:Middlewares/ST/usbx/common/core/src/ux_utility_memory_free.c ****                 /* Release the protection.  */
 156:Middlewares/ST/usbx/common/core/src/ux_utility_memory_free.c ****                 _ux_system_mutex_off(&_ux_system -> ux_system_mutex);
  93              		.loc 1 156 17 is_stmt 1 view .LVU33
  94              		.loc 1 156 17 view .LVU34
  95              		.loc 1 156 17 view .LVU35
 157:Middlewares/ST/usbx/common/core/src/ux_utility_memory_free.c **** 
 158:Middlewares/ST/usbx/common/core/src/ux_utility_memory_free.c ****                 /* Error trap: maybe double free/memory issue here!  */
 159:Middlewares/ST/usbx/common/core/src/ux_utility_memory_free.c ****                 _ux_system_error_handler(UX_SYSTEM_LEVEL_THREAD,
  96              		.loc 1 159 17 view .LVU36
  97 0026 1922     		movs	r2, #25
  98              	.LVL5:
  99              		.loc 1 159 17 is_stmt 0 view .LVU37
 100 0028 0821     		movs	r1, #8
 101              	.LVL6:
 102              		.loc 1 159 17 view .LVU38
 103 002a 0220     		movs	r0, #2
 104 002c FFF7FEFF 		bl	_ux_system_error_handler
 105              	.LVL7:
 160:Middlewares/ST/usbx/common/core/src/ux_utility_memory_free.c ****                                          UX_SYSTEM_CONTEXT_UTILITY, UX_MEMORY_CORRUPTED);
 161:Middlewares/ST/usbx/common/core/src/ux_utility_memory_free.c **** 
 162:Middlewares/ST/usbx/common/core/src/ux_utility_memory_free.c ****                 /* Return to caller.  */
 163:Middlewares/ST/usbx/common/core/src/ux_utility_memory_free.c ****                 return;
 106              		.loc 1 163 17 is_stmt 1 view .LVU39
 107              	.L1:
 164:Middlewares/ST/usbx/common/core/src/ux_utility_memory_free.c ****             }
 165:Middlewares/ST/usbx/common/core/src/ux_utility_memory_free.c ****         }
 166:Middlewares/ST/usbx/common/core/src/ux_utility_memory_free.c ****         else
 167:Middlewares/ST/usbx/common/core/src/ux_utility_memory_free.c ****         {
 168:Middlewares/ST/usbx/common/core/src/ux_utility_memory_free.c ****             /* Release the protection.  */
 169:Middlewares/ST/usbx/common/core/src/ux_utility_memory_free.c ****             _ux_system_mutex_off(&_ux_system -> ux_system_mutex);
 170:Middlewares/ST/usbx/common/core/src/ux_utility_memory_free.c **** 
 171:Middlewares/ST/usbx/common/core/src/ux_utility_memory_free.c ****             /* Error trap: maybe double free/memory issue here!  */
 172:Middlewares/ST/usbx/common/core/src/ux_utility_memory_free.c ****             _ux_system_error_handler(UX_SYSTEM_LEVEL_THREAD,
 173:Middlewares/ST/usbx/common/core/src/ux_utility_memory_free.c ****                                      UX_SYSTEM_CONTEXT_UTILITY, UX_MEMORY_CORRUPTED);
 174:Middlewares/ST/usbx/common/core/src/ux_utility_memory_free.c **** 
 175:Middlewares/ST/usbx/common/core/src/ux_utility_memory_free.c ****             /* Return to caller.  */
 176:Middlewares/ST/usbx/common/core/src/ux_utility_memory_free.c ****             return;
 177:Middlewares/ST/usbx/common/core/src/ux_utility_memory_free.c ****         }
ARM GAS  C:\usertemp\ccHMh5si.s 			page 6


 178:Middlewares/ST/usbx/common/core/src/ux_utility_memory_free.c ****     }
 179:Middlewares/ST/usbx/common/core/src/ux_utility_memory_free.c ****     else
 180:Middlewares/ST/usbx/common/core/src/ux_utility_memory_free.c ****     {
 181:Middlewares/ST/usbx/common/core/src/ux_utility_memory_free.c **** 
 182:Middlewares/ST/usbx/common/core/src/ux_utility_memory_free.c ****         /* Release the protection.  */
 183:Middlewares/ST/usbx/common/core/src/ux_utility_memory_free.c ****         _ux_system_mutex_off(&_ux_system -> ux_system_mutex);
 184:Middlewares/ST/usbx/common/core/src/ux_utility_memory_free.c **** 
 185:Middlewares/ST/usbx/common/core/src/ux_utility_memory_free.c ****         /* Error trap: maybe double free/bad flow here!  */
 186:Middlewares/ST/usbx/common/core/src/ux_utility_memory_free.c ****         _ux_system_error_handler(UX_SYSTEM_LEVEL_THREAD,
 187:Middlewares/ST/usbx/common/core/src/ux_utility_memory_free.c ****                                     UX_SYSTEM_CONTEXT_UTILITY, UX_MEMORY_CORRUPTED);
 188:Middlewares/ST/usbx/common/core/src/ux_utility_memory_free.c **** 
 189:Middlewares/ST/usbx/common/core/src/ux_utility_memory_free.c ****         /* Return to caller.  */
 190:Middlewares/ST/usbx/common/core/src/ux_utility_memory_free.c ****         return;
 191:Middlewares/ST/usbx/common/core/src/ux_utility_memory_free.c ****     }
 192:Middlewares/ST/usbx/common/core/src/ux_utility_memory_free.c **** 
 193:Middlewares/ST/usbx/common/core/src/ux_utility_memory_free.c ****     /* At this point, we know that the pool pointer is valid.  */
 194:Middlewares/ST/usbx/common/core/src/ux_utility_memory_free.c **** 
 195:Middlewares/ST/usbx/common/core/src/ux_utility_memory_free.c ****     /* Release the memory.  */
 196:Middlewares/ST/usbx/common/core/src/ux_utility_memory_free.c ****     temp_ptr =   UX_UCHAR_POINTER_ADD(work_ptr, (sizeof(UCHAR *)));
 197:Middlewares/ST/usbx/common/core/src/ux_utility_memory_free.c ****     free_ptr =   UX_UCHAR_TO_ALIGN_TYPE_POINTER_CONVERT(temp_ptr);
 198:Middlewares/ST/usbx/common/core/src/ux_utility_memory_free.c ****     *free_ptr =  UX_BYTE_BLOCK_FREE;
 199:Middlewares/ST/usbx/common/core/src/ux_utility_memory_free.c **** 
 200:Middlewares/ST/usbx/common/core/src/ux_utility_memory_free.c ****     /* Update the number of available bytes in the pool.  */
 201:Middlewares/ST/usbx/common/core/src/ux_utility_memory_free.c ****     block_link_ptr =  UX_UCHAR_TO_INDIRECT_UCHAR_POINTER_CONVERT(work_ptr);
 202:Middlewares/ST/usbx/common/core/src/ux_utility_memory_free.c ****     next_block_ptr =  *block_link_ptr;
 203:Middlewares/ST/usbx/common/core/src/ux_utility_memory_free.c ****     pool_ptr -> ux_byte_pool_available =
 204:Middlewares/ST/usbx/common/core/src/ux_utility_memory_free.c ****         pool_ptr -> ux_byte_pool_available + UX_UCHAR_POINTER_DIF(next_block_ptr, work_ptr);
 205:Middlewares/ST/usbx/common/core/src/ux_utility_memory_free.c **** 
 206:Middlewares/ST/usbx/common/core/src/ux_utility_memory_free.c ****     /* Determine if the free block is prior to current search pointer.  */
 207:Middlewares/ST/usbx/common/core/src/ux_utility_memory_free.c ****     if (work_ptr < (pool_ptr -> ux_byte_pool_search))
 208:Middlewares/ST/usbx/common/core/src/ux_utility_memory_free.c ****     {
 209:Middlewares/ST/usbx/common/core/src/ux_utility_memory_free.c **** 
 210:Middlewares/ST/usbx/common/core/src/ux_utility_memory_free.c ****         /* Yes, update the search pointer to the released block.  */
 211:Middlewares/ST/usbx/common/core/src/ux_utility_memory_free.c ****         pool_ptr -> ux_byte_pool_search =  work_ptr;
 212:Middlewares/ST/usbx/common/core/src/ux_utility_memory_free.c ****     }
 213:Middlewares/ST/usbx/common/core/src/ux_utility_memory_free.c **** 
 214:Middlewares/ST/usbx/common/core/src/ux_utility_memory_free.c **** #ifdef UX_ENABLE_MEMORY_STATISTICS
 215:Middlewares/ST/usbx/common/core/src/ux_utility_memory_free.c ****     if (((UCHAR*)memory >= _ux_system -> ux_system_memory_byte_pool[UX_MEMORY_BYTE_POOL_REGULAR] ->
 216:Middlewares/ST/usbx/common/core/src/ux_utility_memory_free.c ****         ((UCHAR*)memory < (_ux_system -> ux_system_memory_byte_pool[UX_MEMORY_BYTE_POOL_REGULAR] ->
 217:Middlewares/ST/usbx/common/core/src/ux_utility_memory_free.c ****         index = UX_MEMORY_BYTE_POOL_REGULAR;
 218:Middlewares/ST/usbx/common/core/src/ux_utility_memory_free.c ****     else
 219:Middlewares/ST/usbx/common/core/src/ux_utility_memory_free.c ****         index = UX_MEMORY_BYTE_POOL_CACHE_SAFE;
 220:Middlewares/ST/usbx/common/core/src/ux_utility_memory_free.c **** 
 221:Middlewares/ST/usbx/common/core/src/ux_utility_memory_free.c ****     _ux_system -> ux_system_memory_byte_pool[index] -> ux_byte_pool_alloc_count --;
 222:Middlewares/ST/usbx/common/core/src/ux_utility_memory_free.c ****     _ux_system -> ux_system_memory_byte_pool[index] -> ux_byte_pool_alloc_total -= UX_UCHAR_POINTER
 223:Middlewares/ST/usbx/common/core/src/ux_utility_memory_free.c **** #endif
 224:Middlewares/ST/usbx/common/core/src/ux_utility_memory_free.c **** 
 225:Middlewares/ST/usbx/common/core/src/ux_utility_memory_free.c ****     /* Release the protection.  */
 226:Middlewares/ST/usbx/common/core/src/ux_utility_memory_free.c ****     _ux_system_mutex_off(&_ux_system -> ux_system_mutex);
 227:Middlewares/ST/usbx/common/core/src/ux_utility_memory_free.c **** 
 228:Middlewares/ST/usbx/common/core/src/ux_utility_memory_free.c ****     /* Return to caller.  */
 229:Middlewares/ST/usbx/common/core/src/ux_utility_memory_free.c ****     return;
 230:Middlewares/ST/usbx/common/core/src/ux_utility_memory_free.c **** }
 108              		.loc 1 230 1 is_stmt 0 view .LVU40
 109 0030 10BD     		pop	{r4, pc}
 110              	.LVL8:
 111              	.L3:
ARM GAS  C:\usertemp\ccHMh5si.s 			page 7


 169:Middlewares/ST/usbx/common/core/src/ux_utility_memory_free.c **** 
 112              		.loc 1 169 13 is_stmt 1 view .LVU41
 169:Middlewares/ST/usbx/common/core/src/ux_utility_memory_free.c **** 
 113              		.loc 1 169 13 view .LVU42
 169:Middlewares/ST/usbx/common/core/src/ux_utility_memory_free.c **** 
 114              		.loc 1 169 13 view .LVU43
 172:Middlewares/ST/usbx/common/core/src/ux_utility_memory_free.c ****                                      UX_SYSTEM_CONTEXT_UTILITY, UX_MEMORY_CORRUPTED);
 115              		.loc 1 172 13 view .LVU44
 116 0032 1922     		movs	r2, #25
 117              	.LVL9:
 172:Middlewares/ST/usbx/common/core/src/ux_utility_memory_free.c ****                                      UX_SYSTEM_CONTEXT_UTILITY, UX_MEMORY_CORRUPTED);
 118              		.loc 1 172 13 is_stmt 0 view .LVU45
 119 0034 0821     		movs	r1, #8
 120              	.LVL10:
 172:Middlewares/ST/usbx/common/core/src/ux_utility_memory_free.c ****                                      UX_SYSTEM_CONTEXT_UTILITY, UX_MEMORY_CORRUPTED);
 121              		.loc 1 172 13 view .LVU46
 122 0036 0220     		movs	r0, #2
 123 0038 FFF7FEFF 		bl	_ux_system_error_handler
 124              	.LVL11:
 176:Middlewares/ST/usbx/common/core/src/ux_utility_memory_free.c ****         }
 125              		.loc 1 176 13 is_stmt 1 view .LVU47
 126 003c F8E7     		b	.L1
 127              	.LVL12:
 128              	.L2:
 183:Middlewares/ST/usbx/common/core/src/ux_utility_memory_free.c **** 
 129              		.loc 1 183 9 view .LVU48
 183:Middlewares/ST/usbx/common/core/src/ux_utility_memory_free.c **** 
 130              		.loc 1 183 9 view .LVU49
 183:Middlewares/ST/usbx/common/core/src/ux_utility_memory_free.c **** 
 131              		.loc 1 183 9 view .LVU50
 186:Middlewares/ST/usbx/common/core/src/ux_utility_memory_free.c ****                                     UX_SYSTEM_CONTEXT_UTILITY, UX_MEMORY_CORRUPTED);
 132              		.loc 1 186 9 view .LVU51
 133 003e 1922     		movs	r2, #25
 134 0040 0821     		movs	r1, #8
 135 0042 0220     		movs	r0, #2
 136              	.LVL13:
 186:Middlewares/ST/usbx/common/core/src/ux_utility_memory_free.c ****                                     UX_SYSTEM_CONTEXT_UTILITY, UX_MEMORY_CORRUPTED);
 137              		.loc 1 186 9 is_stmt 0 view .LVU52
 138 0044 FFF7FEFF 		bl	_ux_system_error_handler
 139              	.LVL14:
 190:Middlewares/ST/usbx/common/core/src/ux_utility_memory_free.c ****     }
 140              		.loc 1 190 9 is_stmt 1 view .LVU53
 141 0048 F2E7     		b	.L1
 142              	.LVL15:
 143              	.L5:
 196:Middlewares/ST/usbx/common/core/src/ux_utility_memory_free.c ****     free_ptr =   UX_UCHAR_TO_ALIGN_TYPE_POINTER_CONVERT(temp_ptr);
 144              		.loc 1 196 5 view .LVU54
 197:Middlewares/ST/usbx/common/core/src/ux_utility_memory_free.c ****     *free_ptr =  UX_BYTE_BLOCK_FREE;
 145              		.loc 1 197 5 view .LVU55
 198:Middlewares/ST/usbx/common/core/src/ux_utility_memory_free.c **** 
 146              		.loc 1 198 5 view .LVU56
 198:Middlewares/ST/usbx/common/core/src/ux_utility_memory_free.c **** 
 147              		.loc 1 198 15 is_stmt 0 view .LVU57
 148 004a 0748     		ldr	r0, .L8
 149 004c 42F8040C 		str	r0, [r2, #-4]
 201:Middlewares/ST/usbx/common/core/src/ux_utility_memory_free.c ****     next_block_ptr =  *block_link_ptr;
 150              		.loc 1 201 5 is_stmt 1 view .LVU58
ARM GAS  C:\usertemp\ccHMh5si.s 			page 8


 151              	.LVL16:
 202:Middlewares/ST/usbx/common/core/src/ux_utility_memory_free.c ****     pool_ptr -> ux_byte_pool_available =
 152              		.loc 1 202 5 view .LVU59
 202:Middlewares/ST/usbx/common/core/src/ux_utility_memory_free.c ****     pool_ptr -> ux_byte_pool_available =
 153              		.loc 1 202 20 is_stmt 0 view .LVU60
 154 0050 52F8080C 		ldr	r0, [r2, #-8]
 155              	.LVL17:
 203:Middlewares/ST/usbx/common/core/src/ux_utility_memory_free.c ****         pool_ptr -> ux_byte_pool_available + UX_UCHAR_POINTER_DIF(next_block_ptr, work_ptr);
 156              		.loc 1 203 5 is_stmt 1 view .LVU61
 204:Middlewares/ST/usbx/common/core/src/ux_utility_memory_free.c **** 
 157              		.loc 1 204 18 is_stmt 0 view .LVU62
 158 0054 1A68     		ldr	r2, [r3]
 159              	.LVL18:
 204:Middlewares/ST/usbx/common/core/src/ux_utility_memory_free.c **** 
 160              		.loc 1 204 46 view .LVU63
 161 0056 401A     		subs	r0, r0, r1
 162              	.LVL19:
 204:Middlewares/ST/usbx/common/core/src/ux_utility_memory_free.c **** 
 163              		.loc 1 204 44 view .LVU64
 164 0058 0244     		add	r2, r2, r0
 203:Middlewares/ST/usbx/common/core/src/ux_utility_memory_free.c ****         pool_ptr -> ux_byte_pool_available + UX_UCHAR_POINTER_DIF(next_block_ptr, work_ptr);
 165              		.loc 1 203 40 view .LVU65
 166 005a 1A60     		str	r2, [r3]
 167              	.LVL20:
 207:Middlewares/ST/usbx/common/core/src/ux_utility_memory_free.c ****     {
 168              		.loc 1 207 5 is_stmt 1 view .LVU66
 207:Middlewares/ST/usbx/common/core/src/ux_utility_memory_free.c ****     {
 169              		.loc 1 207 30 is_stmt 0 view .LVU67
 170 005c 9A68     		ldr	r2, [r3, #8]
 207:Middlewares/ST/usbx/common/core/src/ux_utility_memory_free.c ****     {
 171              		.loc 1 207 8 view .LVU68
 172 005e 8A42     		cmp	r2, r1
 173 0060 E6D9     		bls	.L1
 211:Middlewares/ST/usbx/common/core/src/ux_utility_memory_free.c ****     }
 174              		.loc 1 211 9 is_stmt 1 view .LVU69
 211:Middlewares/ST/usbx/common/core/src/ux_utility_memory_free.c ****     }
 175              		.loc 1 211 41 is_stmt 0 view .LVU70
 176 0062 9960     		str	r1, [r3, #8]
 177 0064 E4E7     		b	.L1
 178              	.L9:
 179 0066 00BF     		.align	2
 180              	.L8:
 181 0068 EEEEFFFF 		.word	-4370
 182 006c 00000000 		.word	_ux_system
 183              		.cfi_endproc
 184              	.LFE3:
 186              		.text
 187              	.Letext0:
 188              		.file 2 "Middlewares/ST/usbx/ports/generic/inc/ux_port.h"
 189              		.file 3 "Middlewares/ST/usbx/common/core/inc/ux_api.h"
 190              		.file 4 "Middlewares/ST/usbx/common/core/inc/ux_system.h"
 191              		.file 5 "Middlewares/ST/usbx/common/core/inc/ux_utility.h"
ARM GAS  C:\usertemp\ccHMh5si.s 			page 9


DEFINED SYMBOLS
                            *ABS*:00000000 ux_utility_memory_free.c
C:\usertemp\ccHMh5si.s:22     .text._ux_utility_memory_free:00000000 $t
C:\usertemp\ccHMh5si.s:28     .text._ux_utility_memory_free:00000000 _ux_utility_memory_free
C:\usertemp\ccHMh5si.s:181    .text._ux_utility_memory_free:00000068 $d

UNDEFINED SYMBOLS
_ux_system_error_handler
_ux_system
