ARM GAS  C:\usertemp\ccNPOgyb.s 			page 1


   1              		.cpu cortex-m33
   2              		.arch armv8-m.main
   3              		.fpu fpv4-sp-d16
   4              		.arch_extension dsp
   5              		.eabi_attribute 27, 1
   6              		.eabi_attribute 28, 1
   7              		.eabi_attribute 20, 1
   8              		.eabi_attribute 21, 1
   9              		.eabi_attribute 23, 3
  10              		.eabi_attribute 24, 1
  11              		.eabi_attribute 25, 1
  12              		.eabi_attribute 26, 1
  13              		.eabi_attribute 30, 1
  14              		.eabi_attribute 34, 1
  15              		.eabi_attribute 18, 4
  16              		.file	"ux_utility_memory_allocate.c"
  17              		.text
  18              	.Ltext0:
  19              		.cfi_sections	.debug_frame
  20              		.file 1 "Middlewares/ST/usbx/common/core/src/ux_utility_memory_allocate.c"
  21              		.section	.text._ux_utility_memory_allocate,"ax",%progbits
  22              		.align	1
  23              		.global	_ux_utility_memory_allocate
  24              		.syntax unified
  25              		.thumb
  26              		.thumb_func
  28              	_ux_utility_memory_allocate:
  29              	.LVL0:
  30              	.LFB3:
   1:Middlewares/ST/usbx/common/core/src/ux_utility_memory_allocate.c **** /**************************************************************************/
   2:Middlewares/ST/usbx/common/core/src/ux_utility_memory_allocate.c **** /*                                                                        */
   3:Middlewares/ST/usbx/common/core/src/ux_utility_memory_allocate.c **** /*       Copyright (c) Microsoft Corporation. All rights reserved.        */
   4:Middlewares/ST/usbx/common/core/src/ux_utility_memory_allocate.c **** /*                                                                        */
   5:Middlewares/ST/usbx/common/core/src/ux_utility_memory_allocate.c **** /*       This software is licensed under the Microsoft Software License   */
   6:Middlewares/ST/usbx/common/core/src/ux_utility_memory_allocate.c **** /*       Terms for Microsoft Azure RTOS. Full text of the license can be  */
   7:Middlewares/ST/usbx/common/core/src/ux_utility_memory_allocate.c **** /*       found in the LICENSE file at https://aka.ms/AzureRTOS_EULA       */
   8:Middlewares/ST/usbx/common/core/src/ux_utility_memory_allocate.c **** /*       and in the root directory of this software.                      */
   9:Middlewares/ST/usbx/common/core/src/ux_utility_memory_allocate.c **** /*                                                                        */
  10:Middlewares/ST/usbx/common/core/src/ux_utility_memory_allocate.c **** /**************************************************************************/
  11:Middlewares/ST/usbx/common/core/src/ux_utility_memory_allocate.c **** 
  12:Middlewares/ST/usbx/common/core/src/ux_utility_memory_allocate.c **** 
  13:Middlewares/ST/usbx/common/core/src/ux_utility_memory_allocate.c **** /**************************************************************************/
  14:Middlewares/ST/usbx/common/core/src/ux_utility_memory_allocate.c **** /**************************************************************************/
  15:Middlewares/ST/usbx/common/core/src/ux_utility_memory_allocate.c **** /**                                                                       */
  16:Middlewares/ST/usbx/common/core/src/ux_utility_memory_allocate.c **** /** USBX Component                                                        */
  17:Middlewares/ST/usbx/common/core/src/ux_utility_memory_allocate.c **** /**                                                                       */
  18:Middlewares/ST/usbx/common/core/src/ux_utility_memory_allocate.c **** /**   Utility                                                             */
  19:Middlewares/ST/usbx/common/core/src/ux_utility_memory_allocate.c **** /**                                                                       */
  20:Middlewares/ST/usbx/common/core/src/ux_utility_memory_allocate.c **** /**************************************************************************/
  21:Middlewares/ST/usbx/common/core/src/ux_utility_memory_allocate.c **** /**************************************************************************/
  22:Middlewares/ST/usbx/common/core/src/ux_utility_memory_allocate.c **** 
  23:Middlewares/ST/usbx/common/core/src/ux_utility_memory_allocate.c **** 
  24:Middlewares/ST/usbx/common/core/src/ux_utility_memory_allocate.c **** /* Include necessary system files.  */
  25:Middlewares/ST/usbx/common/core/src/ux_utility_memory_allocate.c **** 
  26:Middlewares/ST/usbx/common/core/src/ux_utility_memory_allocate.c **** #define UX_SOURCE_CODE
  27:Middlewares/ST/usbx/common/core/src/ux_utility_memory_allocate.c **** 
  28:Middlewares/ST/usbx/common/core/src/ux_utility_memory_allocate.c **** #include "ux_api.h"
ARM GAS  C:\usertemp\ccNPOgyb.s 			page 2


  29:Middlewares/ST/usbx/common/core/src/ux_utility_memory_allocate.c **** 
  30:Middlewares/ST/usbx/common/core/src/ux_utility_memory_allocate.c **** /**************************************************************************/
  31:Middlewares/ST/usbx/common/core/src/ux_utility_memory_allocate.c **** /*                                                                        */
  32:Middlewares/ST/usbx/common/core/src/ux_utility_memory_allocate.c **** /*  FUNCTION                                               RELEASE        */
  33:Middlewares/ST/usbx/common/core/src/ux_utility_memory_allocate.c **** /*                                                                        */
  34:Middlewares/ST/usbx/common/core/src/ux_utility_memory_allocate.c **** /*    _ux_utility_memory_allocate                         PORTABLE C      */
  35:Middlewares/ST/usbx/common/core/src/ux_utility_memory_allocate.c **** /*                                                           6.3.0        */
  36:Middlewares/ST/usbx/common/core/src/ux_utility_memory_allocate.c **** /*  AUTHOR                                                                */
  37:Middlewares/ST/usbx/common/core/src/ux_utility_memory_allocate.c **** /*                                                                        */
  38:Middlewares/ST/usbx/common/core/src/ux_utility_memory_allocate.c **** /*    Chaoqiong Xiao, Microsoft Corporation                               */
  39:Middlewares/ST/usbx/common/core/src/ux_utility_memory_allocate.c **** /*                                                                        */
  40:Middlewares/ST/usbx/common/core/src/ux_utility_memory_allocate.c **** /*  DESCRIPTION                                                           */
  41:Middlewares/ST/usbx/common/core/src/ux_utility_memory_allocate.c **** /*                                                                        */
  42:Middlewares/ST/usbx/common/core/src/ux_utility_memory_allocate.c **** /*    This function allocates a block of memory for the specified size    */
  43:Middlewares/ST/usbx/common/core/src/ux_utility_memory_allocate.c **** /*    and alignment.                                                      */
  44:Middlewares/ST/usbx/common/core/src/ux_utility_memory_allocate.c **** /*                                                                        */
  45:Middlewares/ST/usbx/common/core/src/ux_utility_memory_allocate.c **** /*  INPUT                                                                 */
  46:Middlewares/ST/usbx/common/core/src/ux_utility_memory_allocate.c **** /*                                                                        */
  47:Middlewares/ST/usbx/common/core/src/ux_utility_memory_allocate.c **** /*    memory_alignment                      Memory alignment required     */
  48:Middlewares/ST/usbx/common/core/src/ux_utility_memory_allocate.c **** /*    memory_cache_flag                     Memory pool source            */
  49:Middlewares/ST/usbx/common/core/src/ux_utility_memory_allocate.c **** /*    memory_size_requested                 Number of bytes required      */
  50:Middlewares/ST/usbx/common/core/src/ux_utility_memory_allocate.c **** /*                                                                        */
  51:Middlewares/ST/usbx/common/core/src/ux_utility_memory_allocate.c **** /*  OUTPUT                                                                */
  52:Middlewares/ST/usbx/common/core/src/ux_utility_memory_allocate.c **** /*                                                                        */
  53:Middlewares/ST/usbx/common/core/src/ux_utility_memory_allocate.c **** /*    Pointer to block of memory                                          */
  54:Middlewares/ST/usbx/common/core/src/ux_utility_memory_allocate.c **** /*                                                                        */
  55:Middlewares/ST/usbx/common/core/src/ux_utility_memory_allocate.c **** /*  CALLS                                                                 */
  56:Middlewares/ST/usbx/common/core/src/ux_utility_memory_allocate.c **** /*                                                                        */
  57:Middlewares/ST/usbx/common/core/src/ux_utility_memory_allocate.c **** /*    _ux_utility_memory_free_block_best_get Get best fit block of memory */
  58:Middlewares/ST/usbx/common/core/src/ux_utility_memory_allocate.c **** /*    _ux_utility_memory_set                 Set block of memory          */
  59:Middlewares/ST/usbx/common/core/src/ux_utility_memory_allocate.c **** /*                                                                        */
  60:Middlewares/ST/usbx/common/core/src/ux_utility_memory_allocate.c **** /*  CALLED BY                                                             */
  61:Middlewares/ST/usbx/common/core/src/ux_utility_memory_allocate.c **** /*                                                                        */
  62:Middlewares/ST/usbx/common/core/src/ux_utility_memory_allocate.c **** /*    USBX Components                                                     */
  63:Middlewares/ST/usbx/common/core/src/ux_utility_memory_allocate.c **** /*                                                                        */
  64:Middlewares/ST/usbx/common/core/src/ux_utility_memory_allocate.c **** /*  RELEASE HISTORY                                                       */
  65:Middlewares/ST/usbx/common/core/src/ux_utility_memory_allocate.c **** /*                                                                        */
  66:Middlewares/ST/usbx/common/core/src/ux_utility_memory_allocate.c **** /*    DATE              NAME                      DESCRIPTION             */
  67:Middlewares/ST/usbx/common/core/src/ux_utility_memory_allocate.c **** /*                                                                        */
  68:Middlewares/ST/usbx/common/core/src/ux_utility_memory_allocate.c **** /*  05-19-2020     Chaoqiong Xiao           Initial Version 6.0           */
  69:Middlewares/ST/usbx/common/core/src/ux_utility_memory_allocate.c **** /*  09-30-2020     Chaoqiong Xiao           Modified comment(s),          */
  70:Middlewares/ST/usbx/common/core/src/ux_utility_memory_allocate.c **** /*                                            verified memset and memcpy  */
  71:Middlewares/ST/usbx/common/core/src/ux_utility_memory_allocate.c **** /*                                            cases,                      */
  72:Middlewares/ST/usbx/common/core/src/ux_utility_memory_allocate.c **** /*                                            resulting in version 6.1    */
  73:Middlewares/ST/usbx/common/core/src/ux_utility_memory_allocate.c **** /*  01-31-2022     Chaoqiong Xiao           Modified comment(s),          */
  74:Middlewares/ST/usbx/common/core/src/ux_utility_memory_allocate.c **** /*                                            added standalone support,   */
  75:Middlewares/ST/usbx/common/core/src/ux_utility_memory_allocate.c **** /*                                            resulting in version 6.1.10 */
  76:Middlewares/ST/usbx/common/core/src/ux_utility_memory_allocate.c **** /*  04-25-2022     Chaoqiong Xiao           Modified comment(s),          */
  77:Middlewares/ST/usbx/common/core/src/ux_utility_memory_allocate.c **** /*                                            internal clean up,          */
  78:Middlewares/ST/usbx/common/core/src/ux_utility_memory_allocate.c **** /*                                            resulting in version 6.1.11 */
  79:Middlewares/ST/usbx/common/core/src/ux_utility_memory_allocate.c **** /*  10-31-2023     Chaoqiong Xiao           Modified comment(s),          */
  80:Middlewares/ST/usbx/common/core/src/ux_utility_memory_allocate.c **** /*                                            refined memory management,  */
  81:Middlewares/ST/usbx/common/core/src/ux_utility_memory_allocate.c **** /*                                            fixed issue in 64-bit env,  */
  82:Middlewares/ST/usbx/common/core/src/ux_utility_memory_allocate.c **** /*                                            resulting in version 6.3.0  */
  83:Middlewares/ST/usbx/common/core/src/ux_utility_memory_allocate.c **** /*                                                                        */
  84:Middlewares/ST/usbx/common/core/src/ux_utility_memory_allocate.c **** /**************************************************************************/
  85:Middlewares/ST/usbx/common/core/src/ux_utility_memory_allocate.c **** VOID  *_ux_utility_memory_allocate(ULONG memory_alignment, ULONG memory_cache_flag,
ARM GAS  C:\usertemp\ccNPOgyb.s 			page 3


  86:Middlewares/ST/usbx/common/core/src/ux_utility_memory_allocate.c ****                                    ULONG memory_size_requested)
  87:Middlewares/ST/usbx/common/core/src/ux_utility_memory_allocate.c **** {
  31              		.loc 1 87 1 view -0
  32              		.cfi_startproc
  33              		@ args = 0, pretend = 0, frame = 0
  34              		@ frame_needed = 0, uses_anonymous_args = 0
  35              		.loc 1 87 1 is_stmt 0 view .LVU1
  36 0000 F8B5     		push	{r3, r4, r5, r6, r7, lr}
  37              	.LCFI0:
  38              		.cfi_def_cfa_offset 24
  39              		.cfi_offset 3, -24
  40              		.cfi_offset 4, -20
  41              		.cfi_offset 5, -16
  42              		.cfi_offset 6, -12
  43              		.cfi_offset 7, -8
  44              		.cfi_offset 14, -4
  45 0002 0746     		mov	r7, r0
  88:Middlewares/ST/usbx/common/core/src/ux_utility_memory_allocate.c **** UX_MEMORY_BYTE_POOL *pool_ptr;
  46              		.loc 1 88 1 is_stmt 1 view .LVU2
  89:Middlewares/ST/usbx/common/core/src/ux_utility_memory_allocate.c **** UCHAR               *current_ptr;
  47              		.loc 1 89 1 view .LVU3
  90:Middlewares/ST/usbx/common/core/src/ux_utility_memory_allocate.c **** UCHAR               *work_ptr;
  48              		.loc 1 90 1 view .LVU4
  91:Middlewares/ST/usbx/common/core/src/ux_utility_memory_allocate.c **** UCHAR               *next_ptr;
  49              		.loc 1 91 1 view .LVU5
  92:Middlewares/ST/usbx/common/core/src/ux_utility_memory_allocate.c **** ALIGN_TYPE          *free_ptr;
  50              		.loc 1 92 1 view .LVU6
  93:Middlewares/ST/usbx/common/core/src/ux_utility_memory_allocate.c **** UCHAR               **this_block_link_ptr;
  51              		.loc 1 93 1 view .LVU7
  94:Middlewares/ST/usbx/common/core/src/ux_utility_memory_allocate.c **** UCHAR               **next_block_link_ptr;
  52              		.loc 1 94 1 view .LVU8
  95:Middlewares/ST/usbx/common/core/src/ux_utility_memory_allocate.c **** ULONG               available_bytes;
  53              		.loc 1 95 1 view .LVU9
  96:Middlewares/ST/usbx/common/core/src/ux_utility_memory_allocate.c **** 
  97:Middlewares/ST/usbx/common/core/src/ux_utility_memory_allocate.c **** ALIGN_TYPE          int_memory_buffer;
  54              		.loc 1 97 1 view .LVU10
  98:Middlewares/ST/usbx/common/core/src/ux_utility_memory_allocate.c **** #ifdef UX_ENABLE_MEMORY_STATISTICS
  99:Middlewares/ST/usbx/common/core/src/ux_utility_memory_allocate.c **** UINT                index;
 100:Middlewares/ST/usbx/common/core/src/ux_utility_memory_allocate.c **** #endif
 101:Middlewares/ST/usbx/common/core/src/ux_utility_memory_allocate.c **** 
 102:Middlewares/ST/usbx/common/core/src/ux_utility_memory_allocate.c ****     /* Get the pool ptr */
 103:Middlewares/ST/usbx/common/core/src/ux_utility_memory_allocate.c ****     if (memory_cache_flag == UX_REGULAR_MEMORY)
  55              		.loc 1 103 5 view .LVU11
  56              		.loc 1 103 8 is_stmt 0 view .LVU12
  57 0004 69B9     		cbnz	r1, .L2
 104:Middlewares/ST/usbx/common/core/src/ux_utility_memory_allocate.c ****     {
 105:Middlewares/ST/usbx/common/core/src/ux_utility_memory_allocate.c ****         pool_ptr = _ux_system -> ux_system_memory_byte_pool[UX_MEMORY_BYTE_POOL_REGULAR];
  58              		.loc 1 105 9 is_stmt 1 view .LVU13
  59              		.loc 1 105 31 is_stmt 0 view .LVU14
  60 0006 364B     		ldr	r3, .L19
  61 0008 1B68     		ldr	r3, [r3]
  62              		.loc 1 105 18 view .LVU15
  63 000a 1D68     		ldr	r5, [r3]
  64              	.LVL1:
  65              	.L3:
 106:Middlewares/ST/usbx/common/core/src/ux_utility_memory_allocate.c ****     }
 107:Middlewares/ST/usbx/common/core/src/ux_utility_memory_allocate.c ****     else if (memory_cache_flag == UX_CACHE_SAFE_MEMORY)
ARM GAS  C:\usertemp\ccNPOgyb.s 			page 4


 108:Middlewares/ST/usbx/common/core/src/ux_utility_memory_allocate.c ****     {
 109:Middlewares/ST/usbx/common/core/src/ux_utility_memory_allocate.c ****         pool_ptr = _ux_system -> ux_system_memory_byte_pool[UX_MEMORY_BYTE_POOL_CACHE_SAFE];
 110:Middlewares/ST/usbx/common/core/src/ux_utility_memory_allocate.c ****     }
 111:Middlewares/ST/usbx/common/core/src/ux_utility_memory_allocate.c ****     else
 112:Middlewares/ST/usbx/common/core/src/ux_utility_memory_allocate.c ****     {
 113:Middlewares/ST/usbx/common/core/src/ux_utility_memory_allocate.c ****         return(UX_NULL);
 114:Middlewares/ST/usbx/common/core/src/ux_utility_memory_allocate.c ****     }
 115:Middlewares/ST/usbx/common/core/src/ux_utility_memory_allocate.c **** 
 116:Middlewares/ST/usbx/common/core/src/ux_utility_memory_allocate.c ****     /* Check if pool_ptr is NX_NULL */
 117:Middlewares/ST/usbx/common/core/src/ux_utility_memory_allocate.c ****     if (pool_ptr == UX_NULL)
  66              		.loc 1 117 5 is_stmt 1 view .LVU16
  67              		.loc 1 117 8 is_stmt 0 view .LVU17
  68 000c 002D     		cmp	r5, #0
  69 000e 51D0     		beq	.L1
 118:Middlewares/ST/usbx/common/core/src/ux_utility_memory_allocate.c ****     {
 119:Middlewares/ST/usbx/common/core/src/ux_utility_memory_allocate.c ****         return(UX_NULL);
 120:Middlewares/ST/usbx/common/core/src/ux_utility_memory_allocate.c ****     }
 121:Middlewares/ST/usbx/common/core/src/ux_utility_memory_allocate.c **** 
 122:Middlewares/ST/usbx/common/core/src/ux_utility_memory_allocate.c ****     /* Check if the memory size requested is 0.  */
 123:Middlewares/ST/usbx/common/core/src/ux_utility_memory_allocate.c ****     if (memory_size_requested == 0)
  70              		.loc 1 123 5 is_stmt 1 view .LVU18
  71              		.loc 1 123 8 is_stmt 0 view .LVU19
  72 0010 002A     		cmp	r2, #0
  73 0012 63D0     		beq	.L13
 124:Middlewares/ST/usbx/common/core/src/ux_utility_memory_allocate.c ****     {
 125:Middlewares/ST/usbx/common/core/src/ux_utility_memory_allocate.c ****         return(UX_NULL);
 126:Middlewares/ST/usbx/common/core/src/ux_utility_memory_allocate.c ****     }
 127:Middlewares/ST/usbx/common/core/src/ux_utility_memory_allocate.c **** 
 128:Middlewares/ST/usbx/common/core/src/ux_utility_memory_allocate.c ****     /* Get the mutex as this is a critical section.  */
 129:Middlewares/ST/usbx/common/core/src/ux_utility_memory_allocate.c ****     _ux_system_mutex_on(&_ux_system -> ux_system_mutex);
  74              		.loc 1 129 5 is_stmt 1 view .LVU20
  75              		.loc 1 129 5 view .LVU21
  76              		.loc 1 129 5 view .LVU22
 130:Middlewares/ST/usbx/common/core/src/ux_utility_memory_allocate.c **** 
 131:Middlewares/ST/usbx/common/core/src/ux_utility_memory_allocate.c **** #ifdef UX_ENFORCE_SAFE_ALIGNMENT
 132:Middlewares/ST/usbx/common/core/src/ux_utility_memory_allocate.c **** 
 133:Middlewares/ST/usbx/common/core/src/ux_utility_memory_allocate.c ****     /* Check if safe alignment requested, in this case switch to UX_NO_ALIGN.  */
 134:Middlewares/ST/usbx/common/core/src/ux_utility_memory_allocate.c ****     if (memory_alignment == UX_SAFE_ALIGN)
 135:Middlewares/ST/usbx/common/core/src/ux_utility_memory_allocate.c ****     {
 136:Middlewares/ST/usbx/common/core/src/ux_utility_memory_allocate.c **** 
 137:Middlewares/ST/usbx/common/core/src/ux_utility_memory_allocate.c ****         /* We will use the memory_size_requested for the alignment.
 138:Middlewares/ST/usbx/common/core/src/ux_utility_memory_allocate.c ****            But we check to see if we have a minimum or maximum alignment.  */
 139:Middlewares/ST/usbx/common/core/src/ux_utility_memory_allocate.c ****         if (memory_size_requested < UX_ALIGN_MIN)
 140:Middlewares/ST/usbx/common/core/src/ux_utility_memory_allocate.c **** 
 141:Middlewares/ST/usbx/common/core/src/ux_utility_memory_allocate.c ****             /* No need to bother about alignment for small packets sizes.  */
 142:Middlewares/ST/usbx/common/core/src/ux_utility_memory_allocate.c ****             memory_alignment = UX_NO_ALIGN;
 143:Middlewares/ST/usbx/common/core/src/ux_utility_memory_allocate.c **** 
 144:Middlewares/ST/usbx/common/core/src/ux_utility_memory_allocate.c ****         /* Check if we are over the maximum.  */
 145:Middlewares/ST/usbx/common/core/src/ux_utility_memory_allocate.c ****         else if (memory_size_requested > UX_MAX_SCATTER_GATHER_ALIGNMENT)
 146:Middlewares/ST/usbx/common/core/src/ux_utility_memory_allocate.c **** 
 147:Middlewares/ST/usbx/common/core/src/ux_utility_memory_allocate.c ****             /* We are over the max alignment required. Use the maximum instead.  */
 148:Middlewares/ST/usbx/common/core/src/ux_utility_memory_allocate.c ****             memory_alignment = UX_MAX_SCATTER_GATHER_ALIGNMENT - 1;
 149:Middlewares/ST/usbx/common/core/src/ux_utility_memory_allocate.c **** 
 150:Middlewares/ST/usbx/common/core/src/ux_utility_memory_allocate.c ****         /* We are not over the maximum, so approximate the alignment according to the size of the m
 151:Middlewares/ST/usbx/common/core/src/ux_utility_memory_allocate.c ****             Check range for alignment on 4096 bytes.  */
 152:Middlewares/ST/usbx/common/core/src/ux_utility_memory_allocate.c ****         else if (memory_size_requested >= UX_ALIGN_2048 + 1)
 153:Middlewares/ST/usbx/common/core/src/ux_utility_memory_allocate.c ****             memory_alignment = UX_ALIGN_4096;
ARM GAS  C:\usertemp\ccNPOgyb.s 			page 5


 154:Middlewares/ST/usbx/common/core/src/ux_utility_memory_allocate.c **** 
 155:Middlewares/ST/usbx/common/core/src/ux_utility_memory_allocate.c ****         /* Check range for alignment on 2048 bytes.  */
 156:Middlewares/ST/usbx/common/core/src/ux_utility_memory_allocate.c ****         else if (memory_size_requested >= UX_ALIGN_1024 + 1)
 157:Middlewares/ST/usbx/common/core/src/ux_utility_memory_allocate.c ****             memory_alignment = UX_ALIGN_2048;
 158:Middlewares/ST/usbx/common/core/src/ux_utility_memory_allocate.c **** 
 159:Middlewares/ST/usbx/common/core/src/ux_utility_memory_allocate.c ****         /* Check range for alignment on 1024 bytes.  */
 160:Middlewares/ST/usbx/common/core/src/ux_utility_memory_allocate.c ****         else if (memory_size_requested >= UX_ALIGN_512 + 1)
 161:Middlewares/ST/usbx/common/core/src/ux_utility_memory_allocate.c ****             memory_alignment = UX_ALIGN_1024;
 162:Middlewares/ST/usbx/common/core/src/ux_utility_memory_allocate.c **** 
 163:Middlewares/ST/usbx/common/core/src/ux_utility_memory_allocate.c ****         /* Check range for alignment on 512 bytes.  */
 164:Middlewares/ST/usbx/common/core/src/ux_utility_memory_allocate.c ****         else if (memory_size_requested >= UX_ALIGN_256 + 1)
 165:Middlewares/ST/usbx/common/core/src/ux_utility_memory_allocate.c ****             memory_alignment = UX_ALIGN_512;
 166:Middlewares/ST/usbx/common/core/src/ux_utility_memory_allocate.c **** 
 167:Middlewares/ST/usbx/common/core/src/ux_utility_memory_allocate.c ****         /* Check range for alignment on 256 bytes.  */
 168:Middlewares/ST/usbx/common/core/src/ux_utility_memory_allocate.c ****         else if (memory_size_requested >= UX_ALIGN_128 + 1)
 169:Middlewares/ST/usbx/common/core/src/ux_utility_memory_allocate.c ****             memory_alignment = UX_ALIGN_256;
 170:Middlewares/ST/usbx/common/core/src/ux_utility_memory_allocate.c **** 
 171:Middlewares/ST/usbx/common/core/src/ux_utility_memory_allocate.c ****         /* Check range for alignment on 128 bytes.  */
 172:Middlewares/ST/usbx/common/core/src/ux_utility_memory_allocate.c ****         else if (memory_size_requested >= UX_ALIGN_64 + 1)
 173:Middlewares/ST/usbx/common/core/src/ux_utility_memory_allocate.c ****             memory_alignment = UX_ALIGN_128;
 174:Middlewares/ST/usbx/common/core/src/ux_utility_memory_allocate.c **** 
 175:Middlewares/ST/usbx/common/core/src/ux_utility_memory_allocate.c ****         /* Check range for alignment on 64 bytes.  */
 176:Middlewares/ST/usbx/common/core/src/ux_utility_memory_allocate.c ****         else if (memory_size_requested >= UX_ALIGN_32 + 1)
 177:Middlewares/ST/usbx/common/core/src/ux_utility_memory_allocate.c ****             memory_alignment = UX_ALIGN_64;
 178:Middlewares/ST/usbx/common/core/src/ux_utility_memory_allocate.c **** 
 179:Middlewares/ST/usbx/common/core/src/ux_utility_memory_allocate.c ****         /* Check range for alignment on 32 bytes.  */
 180:Middlewares/ST/usbx/common/core/src/ux_utility_memory_allocate.c ****         else if (memory_size_requested >= UX_ALIGN_16 + 1)
 181:Middlewares/ST/usbx/common/core/src/ux_utility_memory_allocate.c ****             memory_alignment = UX_ALIGN_32;
 182:Middlewares/ST/usbx/common/core/src/ux_utility_memory_allocate.c **** 
 183:Middlewares/ST/usbx/common/core/src/ux_utility_memory_allocate.c ****         /* Check range for alignment on 16 bytes.  */
 184:Middlewares/ST/usbx/common/core/src/ux_utility_memory_allocate.c ****         else if (memory_size_requested >= UX_ALIGN_8 + 1)
 185:Middlewares/ST/usbx/common/core/src/ux_utility_memory_allocate.c ****             memory_alignment = UX_ALIGN_16;
 186:Middlewares/ST/usbx/common/core/src/ux_utility_memory_allocate.c **** 
 187:Middlewares/ST/usbx/common/core/src/ux_utility_memory_allocate.c ****         else
 188:Middlewares/ST/usbx/common/core/src/ux_utility_memory_allocate.c ****             memory_alignment = UX_ALIGN_MIN;
 189:Middlewares/ST/usbx/common/core/src/ux_utility_memory_allocate.c ****     }
 190:Middlewares/ST/usbx/common/core/src/ux_utility_memory_allocate.c **** 
 191:Middlewares/ST/usbx/common/core/src/ux_utility_memory_allocate.c **** #else
 192:Middlewares/ST/usbx/common/core/src/ux_utility_memory_allocate.c **** 
 193:Middlewares/ST/usbx/common/core/src/ux_utility_memory_allocate.c ****     /* Check if safe alignment requested, in this case switch to UX_NO_ALIGN.  */
 194:Middlewares/ST/usbx/common/core/src/ux_utility_memory_allocate.c ****     if (memory_alignment == UX_SAFE_ALIGN)
  77              		.loc 1 194 5 view .LVU23
  78              		.loc 1 194 8 is_stmt 0 view .LVU24
  79 0014 B7F1FF3F 		cmp	r7, #-1
  80 0018 09D0     		beq	.L14
 195:Middlewares/ST/usbx/common/core/src/ux_utility_memory_allocate.c ****         memory_alignment = UX_NO_ALIGN;
 196:Middlewares/ST/usbx/common/core/src/ux_utility_memory_allocate.c **** 
 197:Middlewares/ST/usbx/common/core/src/ux_utility_memory_allocate.c **** #endif
 198:Middlewares/ST/usbx/common/core/src/ux_utility_memory_allocate.c **** 
 199:Middlewares/ST/usbx/common/core/src/ux_utility_memory_allocate.c ****     /* Ensure the alignment meats the minimum.  */
 200:Middlewares/ST/usbx/common/core/src/ux_utility_memory_allocate.c ****     if (memory_alignment < UX_ALIGN_MIN)
  81              		.loc 1 200 5 is_stmt 1 view .LVU25
  82              		.loc 1 200 8 is_stmt 0 view .LVU26
  83 001a 062F     		cmp	r7, #6
  84 001c 08D8     		bhi	.L5
 201:Middlewares/ST/usbx/common/core/src/ux_utility_memory_allocate.c ****         memory_alignment =  UX_ALIGN_MIN;
  85              		.loc 1 201 26 view .LVU27
ARM GAS  C:\usertemp\ccNPOgyb.s 			page 6


  86 001e 0727     		movs	r7, #7
  87 0020 06E0     		b	.L5
  88              	.LVL2:
  89              	.L2:
 107:Middlewares/ST/usbx/common/core/src/ux_utility_memory_allocate.c ****     {
  90              		.loc 1 107 10 is_stmt 1 view .LVU28
 107:Middlewares/ST/usbx/common/core/src/ux_utility_memory_allocate.c ****     {
  91              		.loc 1 107 13 is_stmt 0 view .LVU29
  92 0022 0129     		cmp	r1, #1
  93 0024 58D1     		bne	.L12
 109:Middlewares/ST/usbx/common/core/src/ux_utility_memory_allocate.c ****     }
  94              		.loc 1 109 9 is_stmt 1 view .LVU30
 109:Middlewares/ST/usbx/common/core/src/ux_utility_memory_allocate.c ****     }
  95              		.loc 1 109 31 is_stmt 0 view .LVU31
  96 0026 2E4B     		ldr	r3, .L19
  97 0028 1B68     		ldr	r3, [r3]
 109:Middlewares/ST/usbx/common/core/src/ux_utility_memory_allocate.c ****     }
  98              		.loc 1 109 18 view .LVU32
  99 002a 5D68     		ldr	r5, [r3, #4]
 100              	.LVL3:
 109:Middlewares/ST/usbx/common/core/src/ux_utility_memory_allocate.c ****     }
 101              		.loc 1 109 18 view .LVU33
 102 002c EEE7     		b	.L3
 103              	.L14:
 104              		.loc 1 201 26 view .LVU34
 105 002e 0727     		movs	r7, #7
 106              	.L5:
 107              	.LVL4:
 202:Middlewares/ST/usbx/common/core/src/ux_utility_memory_allocate.c **** 
 203:Middlewares/ST/usbx/common/core/src/ux_utility_memory_allocate.c ****     /* We need to make sure that the next memory block buffer is 8-byte aligned too. We
 204:Middlewares/ST/usbx/common/core/src/ux_utility_memory_allocate.c ****        do this by first adjusting the requested memory to be 8-byte aligned. One problem
 205:Middlewares/ST/usbx/common/core/src/ux_utility_memory_allocate.c ****        now is that the memory block might not be a size that is a multiple of 8, so we need
 206:Middlewares/ST/usbx/common/core/src/ux_utility_memory_allocate.c ****        to add the amount of memory required such that the memory buffer after the block has
 207:Middlewares/ST/usbx/common/core/src/ux_utility_memory_allocate.c ****        the correct alignment. For example, if the memory block has a size of 12, then we need
 208:Middlewares/ST/usbx/common/core/src/ux_utility_memory_allocate.c ****        to make sure it is placed on an 8-byte alignment that is after a 8-byte alignment so
 209:Middlewares/ST/usbx/common/core/src/ux_utility_memory_allocate.c ****        that the memory right after the memory block is 8-byte aligned (16).  */
 210:Middlewares/ST/usbx/common/core/src/ux_utility_memory_allocate.c ****     memory_size_requested =  (memory_size_requested + UX_ALIGN_MIN) & (~(ULONG)UX_ALIGN_MIN);
 108              		.loc 1 210 5 is_stmt 1 view .LVU35
 109              		.loc 1 210 53 is_stmt 0 view .LVU36
 110 0030 0732     		adds	r2, r2, #7
 111              	.LVL5:
 112              		.loc 1 210 27 view .LVU37
 113 0032 22F00706 		bic	r6, r2, #7
 114              	.LVL6:
 211:Middlewares/ST/usbx/common/core/src/ux_utility_memory_allocate.c ****     memory_size_requested += (((ULONG)(UX_MEMORY_BLOCK_HEADER_SIZE + UX_ALIGN_MIN) & (~(ULONG)UX_AL
 115              		.loc 1 211 5 is_stmt 1 view .LVU38
 212:Middlewares/ST/usbx/common/core/src/ux_utility_memory_allocate.c **** 
 213:Middlewares/ST/usbx/common/core/src/ux_utility_memory_allocate.c ****     if (memory_alignment <= UX_ALIGN_MIN)
 116              		.loc 1 213 5 view .LVU39
 117              		.loc 1 213 8 is_stmt 0 view .LVU40
 118 0036 072F     		cmp	r7, #7
 119 0038 3ED8     		bhi	.L6
 214:Middlewares/ST/usbx/common/core/src/ux_utility_memory_allocate.c ****         current_ptr = _ux_utility_memory_byte_pool_search(pool_ptr, memory_size_requested);
 120              		.loc 1 214 9 is_stmt 1 view .LVU41
 121              		.loc 1 214 23 is_stmt 0 view .LVU42
 122 003a 3146     		mov	r1, r6
 123              	.LVL7:
ARM GAS  C:\usertemp\ccNPOgyb.s 			page 7


 124              		.loc 1 214 23 view .LVU43
 125 003c 2846     		mov	r0, r5
 126 003e FFF7FEFF 		bl	_ux_utility_memory_byte_pool_search
 127              	.LVL8:
 128 0042 0446     		mov	r4, r0
 129              	.LVL9:
 130              	.L7:
 215:Middlewares/ST/usbx/common/core/src/ux_utility_memory_allocate.c ****     else
 216:Middlewares/ST/usbx/common/core/src/ux_utility_memory_allocate.c ****         current_ptr = _ux_utility_memory_byte_pool_search(pool_ptr, memory_size_requested + memory_
 217:Middlewares/ST/usbx/common/core/src/ux_utility_memory_allocate.c **** 
 218:Middlewares/ST/usbx/common/core/src/ux_utility_memory_allocate.c ****     /* Check if we found a memory block.  */
 219:Middlewares/ST/usbx/common/core/src/ux_utility_memory_allocate.c ****     if (current_ptr == UX_NULL)
 131              		.loc 1 219 5 is_stmt 1 view .LVU44
 132              		.loc 1 219 8 is_stmt 0 view .LVU45
 133 0044 002C     		cmp	r4, #0
 134 0046 3DD0     		beq	.L17
 220:Middlewares/ST/usbx/common/core/src/ux_utility_memory_allocate.c ****     {
 221:Middlewares/ST/usbx/common/core/src/ux_utility_memory_allocate.c **** 
 222:Middlewares/ST/usbx/common/core/src/ux_utility_memory_allocate.c ****         /* We could not find a memory block.  */
 223:Middlewares/ST/usbx/common/core/src/ux_utility_memory_allocate.c ****         _ux_system_mutex_off(&_ux_system -> ux_system_mutex);
 224:Middlewares/ST/usbx/common/core/src/ux_utility_memory_allocate.c **** 
 225:Middlewares/ST/usbx/common/core/src/ux_utility_memory_allocate.c ****         UX_TRACE_IN_LINE_INSERT(UX_TRACE_ERROR, UX_MEMORY_INSUFFICIENT, memory_size_requested, 0, 0
 226:Middlewares/ST/usbx/common/core/src/ux_utility_memory_allocate.c **** 
 227:Middlewares/ST/usbx/common/core/src/ux_utility_memory_allocate.c ****         /* Error trap. */
 228:Middlewares/ST/usbx/common/core/src/ux_utility_memory_allocate.c ****         _ux_system_error_handler(UX_SYSTEM_LEVEL_THREAD, UX_SYSTEM_CONTEXT_UTILITY, UX_MEMORY_INSUF
 229:Middlewares/ST/usbx/common/core/src/ux_utility_memory_allocate.c **** 
 230:Middlewares/ST/usbx/common/core/src/ux_utility_memory_allocate.c ****         return(UX_NULL);
 231:Middlewares/ST/usbx/common/core/src/ux_utility_memory_allocate.c ****     }
 232:Middlewares/ST/usbx/common/core/src/ux_utility_memory_allocate.c **** 
 233:Middlewares/ST/usbx/common/core/src/ux_utility_memory_allocate.c ****     /* Pickup the next block's pointer.  */
 234:Middlewares/ST/usbx/common/core/src/ux_utility_memory_allocate.c ****     this_block_link_ptr =  UX_UCHAR_TO_INDIRECT_UCHAR_POINTER_CONVERT(current_ptr);
 135              		.loc 1 234 5 is_stmt 1 view .LVU46
 136              	.LVL10:
 235:Middlewares/ST/usbx/common/core/src/ux_utility_memory_allocate.c ****     next_ptr =             *this_block_link_ptr;
 137              		.loc 1 235 5 view .LVU47
 138              		.loc 1 235 14 is_stmt 0 view .LVU48
 139 0048 2068     		ldr	r0, [r4]
 140              	.LVL11:
 236:Middlewares/ST/usbx/common/core/src/ux_utility_memory_allocate.c **** 
 237:Middlewares/ST/usbx/common/core/src/ux_utility_memory_allocate.c ****     /* Calculate the number of bytes available in this block.  */
 238:Middlewares/ST/usbx/common/core/src/ux_utility_memory_allocate.c ****     available_bytes =   UX_UCHAR_POINTER_DIF(next_ptr, current_ptr);
 141              		.loc 1 238 5 is_stmt 1 view .LVU49
 142              		.loc 1 238 25 is_stmt 0 view .LVU50
 143 004a 021B     		subs	r2, r0, r4
 144              	.LVL12:
 239:Middlewares/ST/usbx/common/core/src/ux_utility_memory_allocate.c ****     available_bytes =   available_bytes - UX_MEMORY_BLOCK_HEADER_SIZE;
 145              		.loc 1 239 5 is_stmt 1 view .LVU51
 146              		.loc 1 239 21 is_stmt 0 view .LVU52
 147 004c 083A     		subs	r2, r2, #8
 148              	.LVL13:
 240:Middlewares/ST/usbx/common/core/src/ux_utility_memory_allocate.c **** 
 241:Middlewares/ST/usbx/common/core/src/ux_utility_memory_allocate.c ****     /* Get the memory buffer for this block.  */
 242:Middlewares/ST/usbx/common/core/src/ux_utility_memory_allocate.c ****     int_memory_buffer = (ALIGN_TYPE) (UX_UCHAR_POINTER_ADD(current_ptr, UX_MEMORY_BLOCK_HEADER_SIZE
 149              		.loc 1 242 5 is_stmt 1 view .LVU53
 150              		.loc 1 242 39 is_stmt 0 view .LVU54
 151 004e 04F10803 		add	r3, r4, #8
 152              	.LVL14:
ARM GAS  C:\usertemp\ccNPOgyb.s 			page 8


 243:Middlewares/ST/usbx/common/core/src/ux_utility_memory_allocate.c **** 
 244:Middlewares/ST/usbx/common/core/src/ux_utility_memory_allocate.c ****     /* In case we are not aligned  */
 245:Middlewares/ST/usbx/common/core/src/ux_utility_memory_allocate.c ****     if ((int_memory_buffer & memory_alignment) != 0)
 153              		.loc 1 245 5 is_stmt 1 view .LVU55
 154              		.loc 1 245 8 is_stmt 0 view .LVU56
 155 0052 1F42     		tst	r7, r3
 156 0054 11D0     		beq	.L9
 246:Middlewares/ST/usbx/common/core/src/ux_utility_memory_allocate.c ****     {
 247:Middlewares/ST/usbx/common/core/src/ux_utility_memory_allocate.c **** 
 248:Middlewares/ST/usbx/common/core/src/ux_utility_memory_allocate.c ****         /* No, we need to align the memory buffer.  */
 249:Middlewares/ST/usbx/common/core/src/ux_utility_memory_allocate.c ****         int_memory_buffer += (ALIGN_TYPE)UX_MEMORY_BLOCK_HEADER_SIZE;
 157              		.loc 1 249 9 is_stmt 1 view .LVU57
 158              		.loc 1 249 27 is_stmt 0 view .LVU58
 159 0056 04F11003 		add	r3, r4, #16
 160              	.LVL15:
 250:Middlewares/ST/usbx/common/core/src/ux_utility_memory_allocate.c ****         int_memory_buffer += memory_alignment;
 161              		.loc 1 250 9 is_stmt 1 view .LVU59
 162              		.loc 1 250 27 is_stmt 0 view .LVU60
 163 005a 3B44     		add	r3, r3, r7
 164              	.LVL16:
 251:Middlewares/ST/usbx/common/core/src/ux_utility_memory_allocate.c ****         int_memory_buffer &=  ~((ALIGN_TYPE) memory_alignment);
 165              		.loc 1 251 9 is_stmt 1 view .LVU61
 166              		.loc 1 251 27 is_stmt 0 view .LVU62
 167 005c 23EA0703 		bic	r3, r3, r7
 168              	.LVL17:
 252:Middlewares/ST/usbx/common/core/src/ux_utility_memory_allocate.c ****         int_memory_buffer -= (ALIGN_TYPE)UX_MEMORY_BLOCK_HEADER_SIZE;
 169              		.loc 1 252 9 is_stmt 1 view .LVU63
 170              		.loc 1 252 27 is_stmt 0 view .LVU64
 171 0060 A3F10801 		sub	r1, r3, #8
 172              	.LVL18:
 253:Middlewares/ST/usbx/common/core/src/ux_utility_memory_allocate.c **** 
 254:Middlewares/ST/usbx/common/core/src/ux_utility_memory_allocate.c ****         /* Setup the new free block.  */
 255:Middlewares/ST/usbx/common/core/src/ux_utility_memory_allocate.c ****         next_ptr = (UCHAR *)int_memory_buffer;
 173              		.loc 1 255 9 is_stmt 1 view .LVU65
 256:Middlewares/ST/usbx/common/core/src/ux_utility_memory_allocate.c **** 
 257:Middlewares/ST/usbx/common/core/src/ux_utility_memory_allocate.c ****         /* Setup the new free block.  */
 258:Middlewares/ST/usbx/common/core/src/ux_utility_memory_allocate.c ****         next_block_link_ptr =   UX_UCHAR_TO_INDIRECT_UCHAR_POINTER_CONVERT(next_ptr);
 174              		.loc 1 258 9 view .LVU66
 259:Middlewares/ST/usbx/common/core/src/ux_utility_memory_allocate.c ****         *next_block_link_ptr =  *this_block_link_ptr;
 175              		.loc 1 259 9 view .LVU67
 176              		.loc 1 259 30 is_stmt 0 view .LVU68
 177 0064 43F8080C 		str	r0, [r3, #-8]
 260:Middlewares/ST/usbx/common/core/src/ux_utility_memory_allocate.c ****         work_ptr =              UX_UCHAR_POINTER_ADD(next_ptr, (sizeof(UCHAR *)));
 178              		.loc 1 260 9 is_stmt 1 view .LVU69
 179              	.LVL19:
 261:Middlewares/ST/usbx/common/core/src/ux_utility_memory_allocate.c ****         free_ptr =              UX_UCHAR_TO_ALIGN_TYPE_POINTER_CONVERT(work_ptr);
 180              		.loc 1 261 9 view .LVU70
 262:Middlewares/ST/usbx/common/core/src/ux_utility_memory_allocate.c ****         *free_ptr =             UX_BYTE_BLOCK_FREE;
 181              		.loc 1 262 9 view .LVU71
 182              		.loc 1 262 19 is_stmt 0 view .LVU72
 183 0068 1E4B     		ldr	r3, .L19+4
 184 006a 4B60     		str	r3, [r1, #4]
 263:Middlewares/ST/usbx/common/core/src/ux_utility_memory_allocate.c **** 
 264:Middlewares/ST/usbx/common/core/src/ux_utility_memory_allocate.c ****         /* Increase the total fragment counter.  */
 265:Middlewares/ST/usbx/common/core/src/ux_utility_memory_allocate.c ****         pool_ptr -> ux_byte_pool_fragments++;
 185              		.loc 1 265 9 is_stmt 1 view .LVU73
 186              		.loc 1 265 18 is_stmt 0 view .LVU74
ARM GAS  C:\usertemp\ccNPOgyb.s 			page 9


 187 006c 6B68     		ldr	r3, [r5, #4]
 188              		.loc 1 265 43 view .LVU75
 189 006e 0133     		adds	r3, r3, #1
 190 0070 6B60     		str	r3, [r5, #4]
 266:Middlewares/ST/usbx/common/core/src/ux_utility_memory_allocate.c **** 
 267:Middlewares/ST/usbx/common/core/src/ux_utility_memory_allocate.c ****         /* Update the current pointer to point at the newly created block.  */
 268:Middlewares/ST/usbx/common/core/src/ux_utility_memory_allocate.c ****         *this_block_link_ptr =  next_ptr;
 191              		.loc 1 268 9 is_stmt 1 view .LVU76
 192              		.loc 1 268 30 is_stmt 0 view .LVU77
 193 0072 2160     		str	r1, [r4]
 269:Middlewares/ST/usbx/common/core/src/ux_utility_memory_allocate.c **** 
 270:Middlewares/ST/usbx/common/core/src/ux_utility_memory_allocate.c ****         /* Calculate the available bytes.  */
 271:Middlewares/ST/usbx/common/core/src/ux_utility_memory_allocate.c ****         available_bytes -=  UX_UCHAR_POINTER_DIF(next_ptr, current_ptr);
 194              		.loc 1 271 9 is_stmt 1 view .LVU78
 195              		.loc 1 271 29 is_stmt 0 view .LVU79
 196 0074 0C1B     		subs	r4, r1, r4
 197              	.LVL20:
 198              		.loc 1 271 25 view .LVU80
 199 0076 121B     		subs	r2, r2, r4
 200              	.LVL21:
 272:Middlewares/ST/usbx/common/core/src/ux_utility_memory_allocate.c **** 
 273:Middlewares/ST/usbx/common/core/src/ux_utility_memory_allocate.c ****         /* Set Current pointer to the aligned memory buffer.  */
 274:Middlewares/ST/usbx/common/core/src/ux_utility_memory_allocate.c ****         current_ptr = next_ptr;
 201              		.loc 1 274 9 is_stmt 1 view .LVU81
 202              		.loc 1 274 21 is_stmt 0 view .LVU82
 203 0078 0C46     		mov	r4, r1
 204              	.LVL22:
 205              	.L9:
 275:Middlewares/ST/usbx/common/core/src/ux_utility_memory_allocate.c ****     }
 276:Middlewares/ST/usbx/common/core/src/ux_utility_memory_allocate.c **** 
 277:Middlewares/ST/usbx/common/core/src/ux_utility_memory_allocate.c ****     /* Now we are aligned, determine if we need to split this block.  */
 278:Middlewares/ST/usbx/common/core/src/ux_utility_memory_allocate.c ****     if ((available_bytes - memory_size_requested) >= ((ULONG) UX_BYTE_BLOCK_MIN))
 206              		.loc 1 278 5 is_stmt 1 view .LVU83
 207              		.loc 1 278 26 is_stmt 0 view .LVU84
 208 007a 931B     		subs	r3, r2, r6
 209              		.loc 1 278 8 view .LVU85
 210 007c 132B     		cmp	r3, #19
 211 007e 0BD9     		bls	.L10
 279:Middlewares/ST/usbx/common/core/src/ux_utility_memory_allocate.c ****     {
 280:Middlewares/ST/usbx/common/core/src/ux_utility_memory_allocate.c **** 
 281:Middlewares/ST/usbx/common/core/src/ux_utility_memory_allocate.c ****         /* Split the block.  */
 282:Middlewares/ST/usbx/common/core/src/ux_utility_memory_allocate.c ****         next_ptr =  UX_UCHAR_POINTER_ADD(current_ptr, (memory_size_requested + UX_MEMORY_BLOCK_HEAD
 212              		.loc 1 282 9 is_stmt 1 view .LVU86
 213              		.loc 1 282 21 is_stmt 0 view .LVU87
 214 0080 06F10803 		add	r3, r6, #8
 215              		.loc 1 282 18 view .LVU88
 216 0084 E218     		adds	r2, r4, r3
 217              	.LVL23:
 283:Middlewares/ST/usbx/common/core/src/ux_utility_memory_allocate.c **** 
 284:Middlewares/ST/usbx/common/core/src/ux_utility_memory_allocate.c ****         /* Setup the new free block.  */
 285:Middlewares/ST/usbx/common/core/src/ux_utility_memory_allocate.c ****         next_block_link_ptr =   UX_UCHAR_TO_INDIRECT_UCHAR_POINTER_CONVERT(next_ptr);
 218              		.loc 1 285 9 is_stmt 1 view .LVU89
 286:Middlewares/ST/usbx/common/core/src/ux_utility_memory_allocate.c ****         this_block_link_ptr =   UX_UCHAR_TO_INDIRECT_UCHAR_POINTER_CONVERT(current_ptr);
 219              		.loc 1 286 9 view .LVU90
 287:Middlewares/ST/usbx/common/core/src/ux_utility_memory_allocate.c ****         *next_block_link_ptr =  *this_block_link_ptr;
 220              		.loc 1 287 9 view .LVU91
 221              		.loc 1 287 33 is_stmt 0 view .LVU92
ARM GAS  C:\usertemp\ccNPOgyb.s 			page 10


 222 0086 2168     		ldr	r1, [r4]
 223              		.loc 1 287 30 view .LVU93
 224 0088 E150     		str	r1, [r4, r3]
 288:Middlewares/ST/usbx/common/core/src/ux_utility_memory_allocate.c ****         work_ptr =              UX_UCHAR_POINTER_ADD(next_ptr, (sizeof(UCHAR *)));
 225              		.loc 1 288 9 is_stmt 1 view .LVU94
 226              	.LVL24:
 289:Middlewares/ST/usbx/common/core/src/ux_utility_memory_allocate.c ****         free_ptr =              UX_UCHAR_TO_ALIGN_TYPE_POINTER_CONVERT(work_ptr);
 227              		.loc 1 289 9 view .LVU95
 290:Middlewares/ST/usbx/common/core/src/ux_utility_memory_allocate.c ****         *free_ptr =             UX_BYTE_BLOCK_FREE;
 228              		.loc 1 290 9 view .LVU96
 229              		.loc 1 290 19 is_stmt 0 view .LVU97
 230 008a 164B     		ldr	r3, .L19+4
 231 008c 5360     		str	r3, [r2, #4]
 291:Middlewares/ST/usbx/common/core/src/ux_utility_memory_allocate.c **** 
 292:Middlewares/ST/usbx/common/core/src/ux_utility_memory_allocate.c ****         /* Increase the total fragment counter.  */
 293:Middlewares/ST/usbx/common/core/src/ux_utility_memory_allocate.c ****         pool_ptr -> ux_byte_pool_fragments++;
 232              		.loc 1 293 9 is_stmt 1 view .LVU98
 233              		.loc 1 293 18 is_stmt 0 view .LVU99
 234 008e 6B68     		ldr	r3, [r5, #4]
 235              		.loc 1 293 43 view .LVU100
 236 0090 0133     		adds	r3, r3, #1
 237 0092 6B60     		str	r3, [r5, #4]
 294:Middlewares/ST/usbx/common/core/src/ux_utility_memory_allocate.c **** 
 295:Middlewares/ST/usbx/common/core/src/ux_utility_memory_allocate.c ****         /* Update the current pointer to point at the newly created block.  */
 296:Middlewares/ST/usbx/common/core/src/ux_utility_memory_allocate.c ****         *this_block_link_ptr =  next_ptr;
 238              		.loc 1 296 9 is_stmt 1 view .LVU101
 239              		.loc 1 296 30 is_stmt 0 view .LVU102
 240 0094 2260     		str	r2, [r4]
 297:Middlewares/ST/usbx/common/core/src/ux_utility_memory_allocate.c **** 
 298:Middlewares/ST/usbx/common/core/src/ux_utility_memory_allocate.c ****         /* Set available equal to memory size for subsequent calculation.  */
 299:Middlewares/ST/usbx/common/core/src/ux_utility_memory_allocate.c ****         available_bytes =  memory_size_requested;
 241              		.loc 1 299 9 is_stmt 1 view .LVU103
 242              	.LVL25:
 243              		.loc 1 299 25 is_stmt 0 view .LVU104
 244 0096 3246     		mov	r2, r6
 245              	.LVL26:
 246              	.L10:
 300:Middlewares/ST/usbx/common/core/src/ux_utility_memory_allocate.c ****     }
 301:Middlewares/ST/usbx/common/core/src/ux_utility_memory_allocate.c **** 
 302:Middlewares/ST/usbx/common/core/src/ux_utility_memory_allocate.c ****     /* In any case, mark the current block as allocated.  */
 303:Middlewares/ST/usbx/common/core/src/ux_utility_memory_allocate.c ****     work_ptr =              UX_UCHAR_POINTER_ADD(current_ptr, (sizeof(UCHAR *)));
 247              		.loc 1 303 5 is_stmt 1 view .LVU105
 304:Middlewares/ST/usbx/common/core/src/ux_utility_memory_allocate.c ****     this_block_link_ptr =   UX_UCHAR_TO_INDIRECT_UCHAR_POINTER_CONVERT(work_ptr);
 248              		.loc 1 304 5 view .LVU106
 305:Middlewares/ST/usbx/common/core/src/ux_utility_memory_allocate.c ****     *this_block_link_ptr =  UX_BYTE_POOL_TO_UCHAR_POINTER_CONVERT(pool_ptr);
 249              		.loc 1 305 5 view .LVU107
 250              		.loc 1 305 26 is_stmt 0 view .LVU108
 251 0098 6560     		str	r5, [r4, #4]
 306:Middlewares/ST/usbx/common/core/src/ux_utility_memory_allocate.c **** 
 307:Middlewares/ST/usbx/common/core/src/ux_utility_memory_allocate.c ****     /* Reduce the number of available bytes in the pool.  */
 308:Middlewares/ST/usbx/common/core/src/ux_utility_memory_allocate.c ****     pool_ptr -> ux_byte_pool_available =  pool_ptr -> ux_byte_pool_available - (available_bytes + U
 252              		.loc 1 308 5 is_stmt 1 view .LVU109
 253              		.loc 1 308 52 is_stmt 0 view .LVU110
 254 009a 2B68     		ldr	r3, [r5]
 255              		.loc 1 308 78 view .LVU111
 256 009c 9B1A     		subs	r3, r3, r2
 257 009e 083B     		subs	r3, r3, #8
ARM GAS  C:\usertemp\ccNPOgyb.s 			page 11


 258              		.loc 1 308 40 view .LVU112
 259 00a0 2B60     		str	r3, [r5]
 309:Middlewares/ST/usbx/common/core/src/ux_utility_memory_allocate.c **** 
 310:Middlewares/ST/usbx/common/core/src/ux_utility_memory_allocate.c ****     /* Determine if the search pointer needs to be updated. This is only done
 311:Middlewares/ST/usbx/common/core/src/ux_utility_memory_allocate.c ****         if the search pointer matches the block to be returned.  */
 312:Middlewares/ST/usbx/common/core/src/ux_utility_memory_allocate.c ****     if (current_ptr == pool_ptr -> ux_byte_pool_search)
 260              		.loc 1 312 5 is_stmt 1 view .LVU113
 261              		.loc 1 312 33 is_stmt 0 view .LVU114
 262 00a2 AB68     		ldr	r3, [r5, #8]
 263              		.loc 1 312 8 view .LVU115
 264 00a4 A342     		cmp	r3, r4
 265 00a6 14D0     		beq	.L18
 266              	.LVL27:
 267              	.L11:
 313:Middlewares/ST/usbx/common/core/src/ux_utility_memory_allocate.c ****     {
 314:Middlewares/ST/usbx/common/core/src/ux_utility_memory_allocate.c **** 
 315:Middlewares/ST/usbx/common/core/src/ux_utility_memory_allocate.c ****         /* Yes, update the search pointer to the next block.  */
 316:Middlewares/ST/usbx/common/core/src/ux_utility_memory_allocate.c ****         this_block_link_ptr =   UX_UCHAR_TO_INDIRECT_UCHAR_POINTER_CONVERT(current_ptr);
 317:Middlewares/ST/usbx/common/core/src/ux_utility_memory_allocate.c ****         pool_ptr -> ux_byte_pool_search =  *this_block_link_ptr;
 318:Middlewares/ST/usbx/common/core/src/ux_utility_memory_allocate.c ****     }
 319:Middlewares/ST/usbx/common/core/src/ux_utility_memory_allocate.c **** 
 320:Middlewares/ST/usbx/common/core/src/ux_utility_memory_allocate.c ****     /* Adjust the pointer for the application.  */
 321:Middlewares/ST/usbx/common/core/src/ux_utility_memory_allocate.c ****     work_ptr =  UX_UCHAR_POINTER_ADD(current_ptr, UX_MEMORY_BLOCK_HEADER_SIZE);
 268              		.loc 1 321 5 is_stmt 1 view .LVU116
 269              		.loc 1 321 14 is_stmt 0 view .LVU117
 270 00a8 04F10805 		add	r5, r4, #8
 271              	.LVL28:
 322:Middlewares/ST/usbx/common/core/src/ux_utility_memory_allocate.c **** 
 323:Middlewares/ST/usbx/common/core/src/ux_utility_memory_allocate.c ****     /* Clear the memory block.  */
 324:Middlewares/ST/usbx/common/core/src/ux_utility_memory_allocate.c ****     _ux_utility_memory_set(work_ptr, 0, available_bytes); /* Use case of memset is verified. */
 272              		.loc 1 324 5 is_stmt 1 view .LVU118
 273 00ac 0021     		movs	r1, #0
 274 00ae 2846     		mov	r0, r5
 275 00b0 FFF7FEFF 		bl	_ux_utility_memory_set
 276              	.LVL29:
 325:Middlewares/ST/usbx/common/core/src/ux_utility_memory_allocate.c **** 
 326:Middlewares/ST/usbx/common/core/src/ux_utility_memory_allocate.c **** #ifdef UX_ENABLE_MEMORY_STATISTICS
 327:Middlewares/ST/usbx/common/core/src/ux_utility_memory_allocate.c **** 
 328:Middlewares/ST/usbx/common/core/src/ux_utility_memory_allocate.c ****     /* Update allocate count, total size.  */
 329:Middlewares/ST/usbx/common/core/src/ux_utility_memory_allocate.c ****     if (memory_cache_flag == UX_REGULAR_MEMORY)
 330:Middlewares/ST/usbx/common/core/src/ux_utility_memory_allocate.c ****         index = UX_MEMORY_BYTE_POOL_REGULAR;
 331:Middlewares/ST/usbx/common/core/src/ux_utility_memory_allocate.c ****     else
 332:Middlewares/ST/usbx/common/core/src/ux_utility_memory_allocate.c ****         index = UX_MEMORY_BYTE_POOL_CACHE_SAFE;
 333:Middlewares/ST/usbx/common/core/src/ux_utility_memory_allocate.c **** 
 334:Middlewares/ST/usbx/common/core/src/ux_utility_memory_allocate.c ****     /* Update allocate count, total size.  */
 335:Middlewares/ST/usbx/common/core/src/ux_utility_memory_allocate.c ****     _ux_system -> ux_system_memory_byte_pool[index] -> ux_byte_pool_alloc_count ++;
 336:Middlewares/ST/usbx/common/core/src/ux_utility_memory_allocate.c ****     _ux_system -> ux_system_memory_byte_pool[index] -> ux_byte_pool_alloc_total += (available_bytes
 337:Middlewares/ST/usbx/common/core/src/ux_utility_memory_allocate.c **** 
 338:Middlewares/ST/usbx/common/core/src/ux_utility_memory_allocate.c ****     if (_ux_system -> ux_system_memory_byte_pool[index] -> ux_byte_pool_alloc_max_count < _ux_syste
 339:Middlewares/ST/usbx/common/core/src/ux_utility_memory_allocate.c ****         _ux_system -> ux_system_memory_byte_pool[index] -> ux_byte_pool_alloc_max_count = _ux_syste
 340:Middlewares/ST/usbx/common/core/src/ux_utility_memory_allocate.c **** 
 341:Middlewares/ST/usbx/common/core/src/ux_utility_memory_allocate.c ****     if (_ux_system -> ux_system_memory_byte_pool[index] -> ux_byte_pool_alloc_max_total < _ux_syste
 342:Middlewares/ST/usbx/common/core/src/ux_utility_memory_allocate.c ****         _ux_system -> ux_system_memory_byte_pool[index] -> ux_byte_pool_alloc_max_total = _ux_syste
 343:Middlewares/ST/usbx/common/core/src/ux_utility_memory_allocate.c **** 
 344:Middlewares/ST/usbx/common/core/src/ux_utility_memory_allocate.c ****     /* Log max usage of memory pool.  */
 345:Middlewares/ST/usbx/common/core/src/ux_utility_memory_allocate.c ****     if (_ux_system -> ux_system_memory_byte_pool[index] -> ux_byte_pool_min_free > _ux_system -> ux
 346:Middlewares/ST/usbx/common/core/src/ux_utility_memory_allocate.c ****         _ux_system -> ux_system_memory_byte_pool[index] -> ux_byte_pool_min_free = _ux_system -> ux
ARM GAS  C:\usertemp\ccNPOgyb.s 			page 12


 347:Middlewares/ST/usbx/common/core/src/ux_utility_memory_allocate.c **** #endif
 348:Middlewares/ST/usbx/common/core/src/ux_utility_memory_allocate.c **** 
 349:Middlewares/ST/usbx/common/core/src/ux_utility_memory_allocate.c ****     /* Release the protection.  */
 350:Middlewares/ST/usbx/common/core/src/ux_utility_memory_allocate.c ****     _ux_system_mutex_off(&_ux_system -> ux_system_mutex);
 277              		.loc 1 350 5 view .LVU119
 278              		.loc 1 350 5 view .LVU120
 279              		.loc 1 350 5 view .LVU121
 351:Middlewares/ST/usbx/common/core/src/ux_utility_memory_allocate.c **** 
 352:Middlewares/ST/usbx/common/core/src/ux_utility_memory_allocate.c ****     return(work_ptr);
 280              		.loc 1 352 5 view .LVU122
 281              	.L1:
 353:Middlewares/ST/usbx/common/core/src/ux_utility_memory_allocate.c **** }
 282              		.loc 1 353 1 is_stmt 0 view .LVU123
 283 00b4 2846     		mov	r0, r5
 284 00b6 F8BD     		pop	{r3, r4, r5, r6, r7, pc}
 285              	.LVL30:
 286              	.L6:
 216:Middlewares/ST/usbx/common/core/src/ux_utility_memory_allocate.c **** 
 287              		.loc 1 216 9 is_stmt 1 view .LVU124
 216:Middlewares/ST/usbx/common/core/src/ux_utility_memory_allocate.c **** 
 288              		.loc 1 216 23 is_stmt 0 view .LVU125
 289 00b8 B919     		adds	r1, r7, r6
 290              	.LVL31:
 216:Middlewares/ST/usbx/common/core/src/ux_utility_memory_allocate.c **** 
 291              		.loc 1 216 23 view .LVU126
 292 00ba 2846     		mov	r0, r5
 293 00bc FFF7FEFF 		bl	_ux_utility_memory_byte_pool_search
 294              	.LVL32:
 295 00c0 0446     		mov	r4, r0
 296              	.LVL33:
 216:Middlewares/ST/usbx/common/core/src/ux_utility_memory_allocate.c **** 
 297              		.loc 1 216 23 view .LVU127
 298 00c2 BFE7     		b	.L7
 299              	.L17:
 223:Middlewares/ST/usbx/common/core/src/ux_utility_memory_allocate.c **** 
 300              		.loc 1 223 9 is_stmt 1 view .LVU128
 223:Middlewares/ST/usbx/common/core/src/ux_utility_memory_allocate.c **** 
 301              		.loc 1 223 9 view .LVU129
 223:Middlewares/ST/usbx/common/core/src/ux_utility_memory_allocate.c **** 
 302              		.loc 1 223 9 view .LVU130
 228:Middlewares/ST/usbx/common/core/src/ux_utility_memory_allocate.c **** 
 303              		.loc 1 228 9 view .LVU131
 304 00c4 1222     		movs	r2, #18
 305 00c6 0821     		movs	r1, #8
 306 00c8 0220     		movs	r0, #2
 307              	.LVL34:
 228:Middlewares/ST/usbx/common/core/src/ux_utility_memory_allocate.c **** 
 308              		.loc 1 228 9 is_stmt 0 view .LVU132
 309 00ca FFF7FEFF 		bl	_ux_system_error_handler
 310              	.LVL35:
 230:Middlewares/ST/usbx/common/core/src/ux_utility_memory_allocate.c ****     }
 311              		.loc 1 230 9 is_stmt 1 view .LVU133
 230:Middlewares/ST/usbx/common/core/src/ux_utility_memory_allocate.c ****     }
 312              		.loc 1 230 15 is_stmt 0 view .LVU134
 313 00ce 2546     		mov	r5, r4
 314              	.LVL36:
 230:Middlewares/ST/usbx/common/core/src/ux_utility_memory_allocate.c ****     }
ARM GAS  C:\usertemp\ccNPOgyb.s 			page 13


 315              		.loc 1 230 15 view .LVU135
 316 00d0 F0E7     		b	.L1
 317              	.LVL37:
 318              	.L18:
 316:Middlewares/ST/usbx/common/core/src/ux_utility_memory_allocate.c ****         pool_ptr -> ux_byte_pool_search =  *this_block_link_ptr;
 319              		.loc 1 316 9 is_stmt 1 view .LVU136
 317:Middlewares/ST/usbx/common/core/src/ux_utility_memory_allocate.c ****     }
 320              		.loc 1 317 9 view .LVU137
 317:Middlewares/ST/usbx/common/core/src/ux_utility_memory_allocate.c ****     }
 321              		.loc 1 317 44 is_stmt 0 view .LVU138
 322 00d2 2368     		ldr	r3, [r4]
 317:Middlewares/ST/usbx/common/core/src/ux_utility_memory_allocate.c ****     }
 323              		.loc 1 317 41 view .LVU139
 324 00d4 AB60     		str	r3, [r5, #8]
 325 00d6 E7E7     		b	.L11
 326              	.LVL38:
 327              	.L12:
 113:Middlewares/ST/usbx/common/core/src/ux_utility_memory_allocate.c ****     }
 328              		.loc 1 113 15 view .LVU140
 329 00d8 0025     		movs	r5, #0
 330 00da EBE7     		b	.L1
 331              	.LVL39:
 332              	.L13:
 125:Middlewares/ST/usbx/common/core/src/ux_utility_memory_allocate.c ****     }
 333              		.loc 1 125 15 view .LVU141
 334 00dc 0025     		movs	r5, #0
 335              	.LVL40:
 125:Middlewares/ST/usbx/common/core/src/ux_utility_memory_allocate.c ****     }
 336              		.loc 1 125 15 view .LVU142
 337 00de E9E7     		b	.L1
 338              	.L20:
 339              		.align	2
 340              	.L19:
 341 00e0 00000000 		.word	_ux_system
 342 00e4 EEEEFFFF 		.word	-4370
 343              		.cfi_endproc
 344              	.LFE3:
 346              		.text
 347              	.Letext0:
 348              		.file 2 "Middlewares/ST/usbx/ports/generic/inc/ux_port.h"
 349              		.file 3 "Middlewares/ST/usbx/common/core/inc/ux_api.h"
 350              		.file 4 "Middlewares/ST/usbx/common/core/inc/ux_utility.h"
 351              		.file 5 "Middlewares/ST/usbx/common/core/inc/ux_system.h"
ARM GAS  C:\usertemp\ccNPOgyb.s 			page 14

